ARM GAS  C:\Users\makij\AppData\Local\Temp\ccllLF1a.s 			page 1


   1              		.syntax unified
   2              		.cpu cortex-m3
   3              		.fpu softvfp
   4              		.eabi_attribute 20, 1
   5              		.eabi_attribute 21, 1
   6              		.eabi_attribute 23, 3
   7              		.eabi_attribute 24, 1
   8              		.eabi_attribute 25, 1
   9              		.eabi_attribute 26, 1
  10              		.eabi_attribute 30, 6
  11              		.eabi_attribute 34, 1
  12              		.eabi_attribute 18, 4
  13              		.thumb
  14              		.file	"main.c"
  15              		.text
  16              	.Ltext0:
  17              		.cfi_sections	.debug_frame
  18              		.global	currentState
  19              		.bss
  20              		.type	currentState, %object
  21              		.size	currentState, 1
  22              	currentState:
  23 0000 00       		.space	1
  24              		.comm	packetUSB,80,4
  25              		.comm	packetMessage,80,4
  26              		.comm	packetHex,160,4
  27              		.comm	packetBinary,4,4
  28              		.comm	packetSend,640,4
  29              		.comm	dec,1,1
  30              		.global	flag
  31              		.data
  32              		.type	flag, %object
  33              		.size	flag, 1
  34              	flag:
  35 0000 01       		.byte	1
  36              		.global	dataReady
  37              		.bss
  38 0001 000000   		.align	2
  39              		.type	dataReady, %object
  40              		.size	dataReady, 4
  41              	dataReady:
  42 0004 00000000 		.space	4
  43              		.global	i_send
  44              		.align	2
  45              		.type	i_send, %object
  46              		.size	i_send, 4
  47              	i_send:
  48 0008 00000000 		.space	4
  49              		.global	messageBufferPosition
  50              		.type	messageBufferPosition, %object
  51              		.size	messageBufferPosition, 1
  52              	messageBufferPosition:
  53 000c 00       		.space	1
  54 000d 000000   		.section	.text.printbinchar,"ax",%progbits
  55              		.align	2
  56              		.global	printbinchar
  57              		.thumb
ARM GAS  C:\Users\makij\AppData\Local\Temp\ccllLF1a.s 			page 2


  58              		.thumb_func
  59              		.type	printbinchar, %function
  60              	printbinchar:
  61              	.LFB56:
  62              		.file 1 ".\\main.c"
   1:.\main.c      **** /* ========================================
   2:.\main.c      ****  *
   3:.\main.c      ****  * Copyright YOUR COMPANY, THE YEAR
   4:.\main.c      ****  * All Rights Reserved
   5:.\main.c      ****  * UNPUBLISHED, LICENSED SOFTWARE.
   6:.\main.c      ****  *
   7:.\main.c      ****  * CONFIDENTIAL AND PROPRIETARY INFORMATION
   8:.\main.c      ****  * WHICH IS THE PROPERTY OF your company.
   9:.\main.c      ****  *
  10:.\main.c      ****  * ========================================
  11:.\main.c      **** */
  12:.\main.c      **** #include <project.h>
  13:.\main.c      **** 
  14:.\main.c      **** #include <stdio.h>
  15:.\main.c      **** #include <stdlib.h>
  16:.\main.c      **** #include <math.h>
  17:.\main.c      **** 
  18:.\main.c      **** #include "main.h"
  19:.\main.c      **** 
  20:.\main.c      **** // the state variable
  21:.\main.c      **** State currentState = IDLE;
  22:.\main.c      **** 
  23:.\main.c      **** //usb and sending data
  24:.\main.c      **** char packetUSB[80];
  25:.\main.c      **** char packetMessage[80];
  26:.\main.c      **** char packetHex[80*2];
  27:.\main.c      **** uint8 packetBinary[4];
  28:.\main.c      **** uint8 packetSend[80*8];
  29:.\main.c      **** uint8 dec;
  30:.\main.c      **** uint8 flag = 1;
  31:.\main.c      **** bool dataReady = false;
  32:.\main.c      **** int i_send = 0;
  33:.\main.c      **** uint8 messageBufferPosition = 0;
  34:.\main.c      **** 
  35:.\main.c      **** void printbinchar(char c)
  36:.\main.c      **** {
  63              		.loc 1 36 0
  64              		.cfi_startproc
  65              		@ args = 0, pretend = 0, frame = 16
  66              		@ frame_needed = 1, uses_anonymous_args = 0
  67 0000 80B5     		push	{r7, lr}
  68              	.LCFI0:
  69              		.cfi_def_cfa_offset 8
  70              		.cfi_offset 7, -8
  71              		.cfi_offset 14, -4
  72 0002 84B0     		sub	sp, sp, #16
  73              	.LCFI1:
  74              		.cfi_def_cfa_offset 24
  75 0004 00AF     		add	r7, sp, #0
  76              	.LCFI2:
  77              		.cfi_def_cfa_register 7
  78 0006 0346     		mov	r3, r0
ARM GAS  C:\Users\makij\AppData\Local\Temp\ccllLF1a.s 			page 3


  79 0008 FB71     		strb	r3, [r7, #7]
  37:.\main.c      **** 	int counter;
  38:.\main.c      **** 	for(counter = 7; counter >= 0; --counter)
  80              		.loc 1 38 0
  81 000a 4FF00703 		mov	r3, #7
  82 000e FB60     		str	r3, [r7, #12]
  83 0010 03E0     		b	.L2
  84              	.L3:
  85              		.loc 1 38 0 is_stmt 0 discriminator 2
  86 0012 FB68     		ldr	r3, [r7, #12]
  87 0014 03F1FF33 		add	r3, r3, #-1
  88 0018 FB60     		str	r3, [r7, #12]
  89              	.L2:
  90              		.loc 1 38 0 discriminator 1
  91 001a FB68     		ldr	r3, [r7, #12]
  92 001c 002B     		cmp	r3, #0
  93 001e F8DA     		bge	.L3
  39:.\main.c      **** 	{
  40:.\main.c      **** 		//USB_PutChar( (c & (1 << counter)) ? '1' : '0' );	
  41:.\main.c      **** 	}
  42:.\main.c      **** 	USB_PutChar('\r');
  94              		.loc 1 42 0 is_stmt 1
  95 0020 4FF00D00 		mov	r0, #13
  96 0024 FFF7FEFF 		bl	USB_PutChar
  43:.\main.c      **** 	USB_PutChar('\n');
  97              		.loc 1 43 0
  98 0028 4FF00A00 		mov	r0, #10
  99 002c FFF7FEFF 		bl	USB_PutChar
  44:.\main.c      **** }
 100              		.loc 1 44 0
 101 0030 07F11007 		add	r7, r7, #16
 102 0034 BD46     		mov	sp, r7
 103 0036 80BD     		pop	{r7, pc}
 104              		.cfi_endproc
 105              	.LFE56:
 106              		.size	printbinchar, .-printbinchar
 107              		.section	.text.isr_FallingEdgeDetected,"ax",%progbits
 108              		.align	2
 109              		.global	isr_FallingEdgeDetected
 110              		.thumb
 111              		.thumb_func
 112              		.type	isr_FallingEdgeDetected, %function
 113              	isr_FallingEdgeDetected:
 114              	.LFB57:
  45:.\main.c      **** 
  46:.\main.c      **** CY_ISR(isr_FallingEdgeDetected)
  47:.\main.c      **** {	
 115              		.loc 1 47 0
 116              		.cfi_startproc
 117              		@ args = 0, pretend = 0, frame = 0
 118              		@ frame_needed = 1, uses_anonymous_args = 0
 119 0000 80B5     		push	{r7, lr}
 120              	.LCFI3:
 121              		.cfi_def_cfa_offset 8
 122              		.cfi_offset 7, -8
 123              		.cfi_offset 14, -4
 124 0002 00AF     		add	r7, sp, #0
ARM GAS  C:\Users\makij\AppData\Local\Temp\ccllLF1a.s 			page 4


 125              	.LCFI4:
 126              		.cfi_def_cfa_register 7
  48:.\main.c      **** 	Timer_BusyToCollision_WriteCounter(11292);
 127              		.loc 1 48 0
 128 0004 42F61C40 		movw	r0, #11292
 129 0008 FFF7FEFF 		bl	Timer_BusyToCollision_WriteCounter
  49:.\main.c      **** 	currentState = BUSY;
 130              		.loc 1 49 0
 131 000c 40F20003 		movw	r3, #:lower16:currentState
 132 0010 C0F20003 		movt	r3, #:upper16:currentState
 133 0014 4FF00102 		mov	r2, #1
 134 0018 1A70     		strb	r2, [r3, #0]
  50:.\main.c      **** 	Timer_BusyToCollision_Start();
 135              		.loc 1 50 0
 136 001a FFF7FEFF 		bl	Timer_BusyToCollision_Start
  51:.\main.c      **** }
 137              		.loc 1 51 0
 138 001e 80BD     		pop	{r7, pc}
 139              		.cfi_endproc
 140              	.LFE57:
 141              		.size	isr_FallingEdgeDetected, .-isr_FallingEdgeDetected
 142              		.section	.text.isr_RisingEdgeDetected,"ax",%progbits
 143              		.align	2
 144              		.global	isr_RisingEdgeDetected
 145              		.thumb
 146              		.thumb_func
 147              		.type	isr_RisingEdgeDetected, %function
 148              	isr_RisingEdgeDetected:
 149              	.LFB58:
  52:.\main.c      **** 
  53:.\main.c      **** CY_ISR(isr_RisingEdgeDetected)
  54:.\main.c      **** {
 150              		.loc 1 54 0
 151              		.cfi_startproc
 152              		@ args = 0, pretend = 0, frame = 0
 153              		@ frame_needed = 1, uses_anonymous_args = 0
 154 0000 80B5     		push	{r7, lr}
 155              	.LCFI5:
 156              		.cfi_def_cfa_offset 8
 157              		.cfi_offset 7, -8
 158              		.cfi_offset 14, -4
 159 0002 00AF     		add	r7, sp, #0
 160              	.LCFI6:
 161              		.cfi_def_cfa_register 7
  55:.\main.c      **** 	Timer_BusyToIdle_WriteCounter(11292);
 162              		.loc 1 55 0
 163 0004 42F61C40 		movw	r0, #11292
 164 0008 FFF7FEFF 		bl	Timer_BusyToIdle_WriteCounter
  56:.\main.c      **** 	currentState = BUSY;
 165              		.loc 1 56 0
 166 000c 40F20003 		movw	r3, #:lower16:currentState
 167 0010 C0F20003 		movt	r3, #:upper16:currentState
 168 0014 4FF00102 		mov	r2, #1
 169 0018 1A70     		strb	r2, [r3, #0]
  57:.\main.c      **** 	Timer_BusyToIdle_Start();
 170              		.loc 1 57 0
 171 001a FFF7FEFF 		bl	Timer_BusyToIdle_Start
ARM GAS  C:\Users\makij\AppData\Local\Temp\ccllLF1a.s 			page 5


  58:.\main.c      **** }
 172              		.loc 1 58 0
 173 001e 80BD     		pop	{r7, pc}
 174              		.cfi_endproc
 175              	.LFE58:
 176              		.size	isr_RisingEdgeDetected, .-isr_RisingEdgeDetected
 177              		.section	.text.isr_BusyToIdle,"ax",%progbits
 178              		.align	2
 179              		.global	isr_BusyToIdle
 180              		.thumb
 181              		.thumb_func
 182              		.type	isr_BusyToIdle, %function
 183              	isr_BusyToIdle:
 184              	.LFB59:
  59:.\main.c      **** 
  60:.\main.c      **** // Fires when the line has been high too long, Back to Idle
  61:.\main.c      **** CY_ISR(isr_BusyToIdle)
  62:.\main.c      **** {
 185              		.loc 1 62 0
 186              		.cfi_startproc
 187              		@ args = 0, pretend = 0, frame = 0
 188              		@ frame_needed = 1, uses_anonymous_args = 0
 189 0000 80B5     		push	{r7, lr}
 190              	.LCFI7:
 191              		.cfi_def_cfa_offset 8
 192              		.cfi_offset 7, -8
 193              		.cfi_offset 14, -4
 194 0002 00AF     		add	r7, sp, #0
 195              	.LCFI8:
 196              		.cfi_def_cfa_register 7
  63:.\main.c      **** 	Timer_BusyToIdle_WriteCounter(11292);
 197              		.loc 1 63 0
 198 0004 42F61C40 		movw	r0, #11292
 199 0008 FFF7FEFF 		bl	Timer_BusyToIdle_WriteCounter
  64:.\main.c      **** 	currentState = IDLE;
 200              		.loc 1 64 0
 201 000c 40F20003 		movw	r3, #:lower16:currentState
 202 0010 C0F20003 		movt	r3, #:upper16:currentState
 203 0014 4FF00002 		mov	r2, #0
 204 0018 1A70     		strb	r2, [r3, #0]
  65:.\main.c      **** }
 205              		.loc 1 65 0
 206 001a 80BD     		pop	{r7, pc}
 207              		.cfi_endproc
 208              	.LFE59:
 209              		.size	isr_BusyToIdle, .-isr_BusyToIdle
 210              		.section	.text.isr_BusyToCollision,"ax",%progbits
 211              		.align	2
 212              		.global	isr_BusyToCollision
 213              		.thumb
 214              		.thumb_func
 215              		.type	isr_BusyToCollision, %function
 216              	isr_BusyToCollision:
 217              	.LFB60:
  66:.\main.c      **** 
  67:.\main.c      **** // Fires when the line has been low too long, Go to Collision
  68:.\main.c      **** CY_ISR(isr_BusyToCollision)
ARM GAS  C:\Users\makij\AppData\Local\Temp\ccllLF1a.s 			page 6


  69:.\main.c      **** {
 218              		.loc 1 69 0
 219              		.cfi_startproc
 220              		@ args = 0, pretend = 0, frame = 0
 221              		@ frame_needed = 1, uses_anonymous_args = 0
 222 0000 80B5     		push	{r7, lr}
 223              	.LCFI9:
 224              		.cfi_def_cfa_offset 8
 225              		.cfi_offset 7, -8
 226              		.cfi_offset 14, -4
 227 0002 00AF     		add	r7, sp, #0
 228              	.LCFI10:
 229              		.cfi_def_cfa_register 7
  70:.\main.c      **** 	Timer_BusyToCollision_WriteCounter(11292);
 230              		.loc 1 70 0
 231 0004 42F61C40 		movw	r0, #11292
 232 0008 FFF7FEFF 		bl	Timer_BusyToCollision_WriteCounter
  71:.\main.c      **** 	currentState = COLLISION;
 233              		.loc 1 71 0
 234 000c 40F20003 		movw	r3, #:lower16:currentState
 235 0010 C0F20003 		movt	r3, #:upper16:currentState
 236 0014 4FF00202 		mov	r2, #2
 237 0018 1A70     		strb	r2, [r3, #0]
  72:.\main.c      **** }
 238              		.loc 1 72 0
 239 001a 80BD     		pop	{r7, pc}
 240              		.cfi_endproc
 241              	.LFE60:
 242              		.size	isr_BusyToCollision, .-isr_BusyToCollision
 243              		.section	.text.isr_sendingData,"ax",%progbits
 244              		.align	2
 245              		.global	isr_sendingData
 246              		.thumb
 247              		.thumb_func
 248              		.type	isr_sendingData, %function
 249              	isr_sendingData:
 250              	.LFB61:
  73:.\main.c      **** 
  74:.\main.c      **** CY_ISR(isr_sendingData)
  75:.\main.c      **** {
 251              		.loc 1 75 0
 252              		.cfi_startproc
 253              		@ args = 0, pretend = 0, frame = 0
 254              		@ frame_needed = 1, uses_anonymous_args = 0
 255 0000 80B5     		push	{r7, lr}
 256              	.LCFI11:
 257              		.cfi_def_cfa_offset 8
 258              		.cfi_offset 7, -8
 259              		.cfi_offset 14, -4
 260 0002 00AF     		add	r7, sp, #0
 261              	.LCFI12:
 262              		.cfi_def_cfa_register 7
  76:.\main.c      **** 	//flag = !flag;
  77:.\main.c      **** 	//Transm_Output_Write(flag);
  78:.\main.c      **** 	Transm_Output_Write(packetSend[i_send]);
 263              		.loc 1 78 0
 264 0004 40F20003 		movw	r3, #:lower16:i_send
ARM GAS  C:\Users\makij\AppData\Local\Temp\ccllLF1a.s 			page 7


 265 0008 C0F20003 		movt	r3, #:upper16:i_send
 266 000c 1A68     		ldr	r2, [r3, #0]
 267 000e 40F20003 		movw	r3, #:lower16:packetSend
 268 0012 C0F20003 		movt	r3, #:upper16:packetSend
 269 0016 9B5C     		ldrb	r3, [r3, r2]	@ zero_extendqisi2
 270 0018 1846     		mov	r0, r3
 271 001a FFF7FEFF 		bl	Transm_Output_Write
  79:.\main.c      **** 	//printCharAsBinary(packetSend[i_send]);
  80:.\main.c      **** 	i_send++;
 272              		.loc 1 80 0
 273 001e 40F20003 		movw	r3, #:lower16:i_send
 274 0022 C0F20003 		movt	r3, #:upper16:i_send
 275 0026 1B68     		ldr	r3, [r3, #0]
 276 0028 03F10102 		add	r2, r3, #1
 277 002c 40F20003 		movw	r3, #:lower16:i_send
 278 0030 C0F20003 		movt	r3, #:upper16:i_send
 279 0034 1A60     		str	r2, [r3, #0]
  81:.\main.c      **** }
 280              		.loc 1 81 0
 281 0036 80BD     		pop	{r7, pc}
 282              		.cfi_endproc
 283              	.LFE61:
 284              		.size	isr_sendingData, .-isr_sendingData
 285              		.section	.text.mystrrev,"ax",%progbits
 286              		.align	2
 287              		.global	mystrrev
 288              		.thumb
 289              		.thumb_func
 290              		.type	mystrrev, %function
 291              	mystrrev:
 292              	.LFB62:
  82:.\main.c      **** 
  83:.\main.c      **** void mystrrev(char hex[])
  84:.\main.c      **** {
 293              		.loc 1 84 0
 294              		.cfi_startproc
 295              		@ args = 0, pretend = 0, frame = 32
 296              		@ frame_needed = 1, uses_anonymous_args = 0
 297 0000 2DE9F043 		push	{r4, r5, r6, r7, r8, r9, lr}
 298              	.LCFI13:
 299              		.cfi_def_cfa_offset 28
 300              		.cfi_offset 4, -28
 301              		.cfi_offset 5, -24
 302              		.cfi_offset 6, -20
 303              		.cfi_offset 7, -16
 304              		.cfi_offset 8, -12
 305              		.cfi_offset 9, -8
 306              		.cfi_offset 14, -4
 307 0004 89B0     		sub	sp, sp, #36
 308              	.LCFI14:
 309              		.cfi_def_cfa_offset 64
 310 0006 00AF     		add	r7, sp, #0
 311              	.LCFI15:
 312              		.cfi_def_cfa_register 7
 313 0008 7860     		str	r0, [r7, #4]
  85:.\main.c      **** 	int length;
  86:.\main.c      **** 	for(length = 0; hex[length] != '\0'; ++length);
ARM GAS  C:\Users\makij\AppData\Local\Temp\ccllLF1a.s 			page 8


 314              		.loc 1 86 0
 315 000a 4FF00003 		mov	r3, #0
 316 000e FB61     		str	r3, [r7, #28]
 317 0010 03E0     		b	.L10
 318              	.L11:
 319              		.loc 1 86 0 is_stmt 0 discriminator 2
 320 0012 FB69     		ldr	r3, [r7, #28]
 321 0014 03F10103 		add	r3, r3, #1
 322 0018 FB61     		str	r3, [r7, #28]
 323              	.L10:
 324              		.loc 1 86 0 discriminator 1
 325 001a FB69     		ldr	r3, [r7, #28]
 326 001c 7A68     		ldr	r2, [r7, #4]
 327 001e D318     		adds	r3, r2, r3
 328 0020 1B78     		ldrb	r3, [r3, #0]	@ zero_extendqisi2
 329 0022 002B     		cmp	r3, #0
 330 0024 F5D1     		bne	.L11
  87:.\main.c      **** 	
  88:.\main.c      **** 	char temp[length];
 331              		.loc 1 88 0 is_stmt 1
 332 0026 F969     		ldr	r1, [r7, #28]
 333 0028 6B46     		mov	r3, sp
 334 002a 1E46     		mov	r6, r3
 335 002c 01F1FF33 		add	r3, r1, #-1
 336 0030 3B61     		str	r3, [r7, #16]
 337 0032 0846     		mov	r0, r1
 338 0034 0246     		mov	r2, r0
 339 0036 4FF00003 		mov	r3, #0
 340 003a 4FEA5270 		lsr	r0, r2, #29
 341 003e 4FEAC309 		lsl	r9, r3, #3
 342 0042 40EA0909 		orr	r9, r0, r9
 343 0046 4FEAC208 		lsl	r8, r2, #3
 344 004a 0846     		mov	r0, r1
 345 004c 0246     		mov	r2, r0
 346 004e 4FF00003 		mov	r3, #0
 347 0052 4FEA5270 		lsr	r0, r2, #29
 348 0056 4FEAC305 		lsl	r5, r3, #3
 349 005a 0543     		orrs	r5, r5, r0
 350 005c 4FEAC204 		lsl	r4, r2, #3
 351 0060 0B46     		mov	r3, r1
 352 0062 03F10703 		add	r3, r3, #7
 353 0066 4FEAD303 		lsr	r3, r3, #3
 354 006a 4FEAC303 		lsl	r3, r3, #3
 355 006e ADEB030D 		sub	sp, sp, r3
 356 0072 6B46     		mov	r3, sp
 357 0074 03F10003 		add	r3, r3, #0
 358 0078 FB60     		str	r3, [r7, #12]
  89:.\main.c      **** 	strcpy(temp, hex);
 359              		.loc 1 89 0
 360 007a FB68     		ldr	r3, [r7, #12]
 361 007c 1846     		mov	r0, r3
 362 007e 7968     		ldr	r1, [r7, #4]
 363 0080 FFF7FEFF 		bl	strcpy
  90:.\main.c      **** 	int i, i2;
  91:.\main.c      **** 	i2 = length-1;
 364              		.loc 1 91 0
 365 0084 FB69     		ldr	r3, [r7, #28]
ARM GAS  C:\Users\makij\AppData\Local\Temp\ccllLF1a.s 			page 9


 366 0086 03F1FF33 		add	r3, r3, #-1
 367 008a 7B61     		str	r3, [r7, #20]
  92:.\main.c      **** 	for(i = 0; i <length; i++)
 368              		.loc 1 92 0
 369 008c 4FF00003 		mov	r3, #0
 370 0090 BB61     		str	r3, [r7, #24]
 371 0092 0FE0     		b	.L12
 372              	.L13:
  93:.\main.c      **** 	{
  94:.\main.c      **** 		hex[i] = temp[i2];	
 373              		.loc 1 94 0 discriminator 2
 374 0094 BB69     		ldr	r3, [r7, #24]
 375 0096 7A68     		ldr	r2, [r7, #4]
 376 0098 D318     		adds	r3, r2, r3
 377 009a F968     		ldr	r1, [r7, #12]
 378 009c 7A69     		ldr	r2, [r7, #20]
 379 009e 8A18     		adds	r2, r1, r2
 380 00a0 1278     		ldrb	r2, [r2, #0]	@ zero_extendqisi2
 381 00a2 1A70     		strb	r2, [r3, #0]
  95:.\main.c      **** 		i2--;
 382              		.loc 1 95 0 discriminator 2
 383 00a4 7B69     		ldr	r3, [r7, #20]
 384 00a6 03F1FF33 		add	r3, r3, #-1
 385 00aa 7B61     		str	r3, [r7, #20]
  92:.\main.c      **** 	for(i = 0; i <length; i++)
 386              		.loc 1 92 0 discriminator 2
 387 00ac BB69     		ldr	r3, [r7, #24]
 388 00ae 03F10103 		add	r3, r3, #1
 389 00b2 BB61     		str	r3, [r7, #24]
 390              	.L12:
  92:.\main.c      **** 	for(i = 0; i <length; i++)
 391              		.loc 1 92 0 is_stmt 0 discriminator 1
 392 00b4 BA69     		ldr	r2, [r7, #24]
 393 00b6 FB69     		ldr	r3, [r7, #28]
 394 00b8 9A42     		cmp	r2, r3
 395 00ba EBDB     		blt	.L13
 396 00bc B546     		mov	sp, r6
  96:.\main.c      **** 	}
  97:.\main.c      **** }
 397              		.loc 1 97 0 is_stmt 1
 398 00be 07F12407 		add	r7, r7, #36
 399 00c2 BD46     		mov	sp, r7
 400 00c4 BDE8F083 		pop	{r4, r5, r6, r7, r8, r9, pc}
 401              		.cfi_endproc
 402              	.LFE62:
 403              		.size	mystrrev, .-mystrrev
 404              		.section	.text.printCharAsBinary,"ax",%progbits
 405              		.align	2
 406              		.global	printCharAsBinary
 407              		.thumb
 408              		.thumb_func
 409              		.type	printCharAsBinary, %function
 410              	printCharAsBinary:
 411              	.LFB63:
  98:.\main.c      **** void printCharAsBinary(char c) {
 412              		.loc 1 98 0
 413              		.cfi_startproc
ARM GAS  C:\Users\makij\AppData\Local\Temp\ccllLF1a.s 			page 10


 414              		@ args = 0, pretend = 0, frame = 16
 415              		@ frame_needed = 1, uses_anonymous_args = 0
 416 0000 80B5     		push	{r7, lr}
 417              	.LCFI16:
 418              		.cfi_def_cfa_offset 8
 419              		.cfi_offset 7, -8
 420              		.cfi_offset 14, -4
 421 0002 84B0     		sub	sp, sp, #16
 422              	.LCFI17:
 423              		.cfi_def_cfa_offset 24
 424 0004 00AF     		add	r7, sp, #0
 425              	.LCFI18:
 426              		.cfi_def_cfa_register 7
 427 0006 0346     		mov	r3, r0
 428 0008 FB71     		strb	r3, [r7, #7]
  99:.\main.c      **** 	int i;
 100:.\main.c      **** 	for(i = 0; i < 8; i++){
 429              		.loc 1 100 0
 430 000a 4FF00003 		mov	r3, #0
 431 000e FB60     		str	r3, [r7, #12]
 432 0010 0EE0     		b	.L15
 433              	.L16:
 101:.\main.c      **** 		USB_PutChar((c >> i) & 0x1);
 434              		.loc 1 101 0 discriminator 2
 435 0012 FA79     		ldrb	r2, [r7, #7]	@ zero_extendqisi2
 436 0014 FB68     		ldr	r3, [r7, #12]
 437 0016 42FA03F3 		asr	r3, r2, r3
 438 001a DBB2     		uxtb	r3, r3
 439 001c 03F00103 		and	r3, r3, #1
 440 0020 DBB2     		uxtb	r3, r3
 441 0022 1846     		mov	r0, r3
 442 0024 FFF7FEFF 		bl	USB_PutChar
 100:.\main.c      **** 	for(i = 0; i < 8; i++){
 443              		.loc 1 100 0 discriminator 2
 444 0028 FB68     		ldr	r3, [r7, #12]
 445 002a 03F10103 		add	r3, r3, #1
 446 002e FB60     		str	r3, [r7, #12]
 447              	.L15:
 100:.\main.c      **** 	for(i = 0; i < 8; i++){
 448              		.loc 1 100 0 is_stmt 0 discriminator 1
 449 0030 FB68     		ldr	r3, [r7, #12]
 450 0032 072B     		cmp	r3, #7
 451 0034 EDDD     		ble	.L16
 102:.\main.c      **** 	}
 103:.\main.c      **** }
 452              		.loc 1 103 0 is_stmt 1
 453 0036 07F11007 		add	r7, r7, #16
 454 003a BD46     		mov	sp, r7
 455 003c 80BD     		pop	{r7, pc}
 456              		.cfi_endproc
 457              	.LFE63:
 458              		.size	printCharAsBinary, .-printCharAsBinary
 459 003e 00BF     		.section	.text.printStringAsBinary,"ax",%progbits
 460              		.align	2
 461              		.global	printStringAsBinary
 462              		.thumb
 463              		.thumb_func
ARM GAS  C:\Users\makij\AppData\Local\Temp\ccllLF1a.s 			page 11


 464              		.type	printStringAsBinary, %function
 465              	printStringAsBinary:
 466              	.LFB64:
 104:.\main.c      ****  
 105:.\main.c      **** void printStringAsBinary(char* s){
 467              		.loc 1 105 0
 468              		.cfi_startproc
 469              		@ args = 0, pretend = 0, frame = 8
 470              		@ frame_needed = 1, uses_anonymous_args = 0
 471 0000 80B5     		push	{r7, lr}
 472              	.LCFI19:
 473              		.cfi_def_cfa_offset 8
 474              		.cfi_offset 7, -8
 475              		.cfi_offset 14, -4
 476 0002 82B0     		sub	sp, sp, #8
 477              	.LCFI20:
 478              		.cfi_def_cfa_offset 16
 479 0004 00AF     		add	r7, sp, #0
 480              	.LCFI21:
 481              		.cfi_def_cfa_register 7
 482 0006 7860     		str	r0, [r7, #4]
 106:.\main.c      **** 	for(; *s; s++){
 483              		.loc 1 106 0
 484 0008 0CE0     		b	.L18
 485              	.L19:
 107:.\main.c      **** 		printCharAsBinary(*s);
 486              		.loc 1 107 0 discriminator 2
 487 000a 7B68     		ldr	r3, [r7, #4]
 488 000c 1B78     		ldrb	r3, [r3, #0]	@ zero_extendqisi2
 489 000e 1846     		mov	r0, r3
 490 0010 FFF7FEFF 		bl	printCharAsBinary
 108:.\main.c      **** 		USB_PutChar(' ');
 491              		.loc 1 108 0 discriminator 2
 492 0014 4FF02000 		mov	r0, #32
 493 0018 FFF7FEFF 		bl	USB_PutChar
 106:.\main.c      **** 	for(; *s; s++){
 494              		.loc 1 106 0 discriminator 2
 495 001c 7B68     		ldr	r3, [r7, #4]
 496 001e 03F10103 		add	r3, r3, #1
 497 0022 7B60     		str	r3, [r7, #4]
 498              	.L18:
 106:.\main.c      **** 	for(; *s; s++){
 499              		.loc 1 106 0 is_stmt 0 discriminator 1
 500 0024 7B68     		ldr	r3, [r7, #4]
 501 0026 1B78     		ldrb	r3, [r3, #0]	@ zero_extendqisi2
 502 0028 002B     		cmp	r3, #0
 503 002a EED1     		bne	.L19
 109:.\main.c      **** 	}
 110:.\main.c      **** 	USB_PutChar('\n');
 504              		.loc 1 110 0 is_stmt 1
 505 002c 4FF00A00 		mov	r0, #10
 506 0030 FFF7FEFF 		bl	USB_PutChar
 111:.\main.c      **** }
 507              		.loc 1 111 0
 508 0034 07F10807 		add	r7, r7, #8
 509 0038 BD46     		mov	sp, r7
 510 003a 80BD     		pop	{r7, pc}
ARM GAS  C:\Users\makij\AppData\Local\Temp\ccllLF1a.s 			page 12


 511              		.cfi_endproc
 512              	.LFE64:
 513              		.size	printStringAsBinary, .-printStringAsBinary
 514              		.section	.text.decimal_hex,"ax",%progbits
 515              		.align	2
 516              		.global	decimal_hex
 517              		.thumb
 518              		.thumb_func
 519              		.type	decimal_hex, %function
 520              	decimal_hex:
 521              	.LFB65:
 112:.\main.c      **** void decimal_hex(int n, char hex[]) /* Function to convert decimal to hexadecimal. */
 113:.\main.c      **** {
 522              		.loc 1 113 0
 523              		.cfi_startproc
 524              		@ args = 0, pretend = 0, frame = 16
 525              		@ frame_needed = 1, uses_anonymous_args = 0
 526 0000 80B5     		push	{r7, lr}
 527              	.LCFI22:
 528              		.cfi_def_cfa_offset 8
 529              		.cfi_offset 7, -8
 530              		.cfi_offset 14, -4
 531 0002 84B0     		sub	sp, sp, #16
 532              	.LCFI23:
 533              		.cfi_def_cfa_offset 24
 534 0004 00AF     		add	r7, sp, #0
 535              	.LCFI24:
 536              		.cfi_def_cfa_register 7
 537 0006 7860     		str	r0, [r7, #4]
 538 0008 3960     		str	r1, [r7, #0]
 114:.\main.c      ****     int i=0,rem;
 539              		.loc 1 114 0
 540 000a 4FF00003 		mov	r3, #0
 541 000e FB60     		str	r3, [r7, #12]
 115:.\main.c      ****     while (n!=0)
 542              		.loc 1 115 0
 543 0010 62E0     		b	.L21
 544              	.L33:
 116:.\main.c      ****     {
 117:.\main.c      ****         rem=n%16;
 545              		.loc 1 117 0
 546 0012 7A68     		ldr	r2, [r7, #4]
 547 0014 4FF00F03 		mov	r3, #15
 548 0018 C8F20003 		movt	r3, 32768
 549 001c 1340     		ands	r3, r3, r2
 550 001e 002B     		cmp	r3, #0
 551 0020 05DA     		bge	.L22
 552 0022 03F1FF33 		add	r3, r3, #-1
 553 0026 63F00F03 		orn	r3, r3, #15
 554 002a 03F10103 		add	r3, r3, #1
 555              	.L22:
 556 002e BB60     		str	r3, [r7, #8]
 118:.\main.c      ****         switch(rem)
 557              		.loc 1 118 0
 558 0030 BB68     		ldr	r3, [r7, #8]
 559 0032 A3F10A03 		sub	r3, r3, #10
 560 0036 052B     		cmp	r3, #5
ARM GAS  C:\Users\makij\AppData\Local\Temp\ccllLF1a.s 			page 13


 561 0038 38D8     		bhi	.L23
 562 003a 01A2     		adr	r2, .L30
 563 003c 52F823F0 		ldr	pc, [r2, r3, lsl #2]
 564              		.align	2
 565              	.L30:
 566 0040 59000000 		.word	.L24+1
 567 0044 67000000 		.word	.L25+1
 568 0048 75000000 		.word	.L26+1
 569 004c 83000000 		.word	.L27+1
 570 0050 91000000 		.word	.L28+1
 571 0054 9F000000 		.word	.L29+1
 572              	.L24:
 119:.\main.c      ****         {
 120:.\main.c      ****             case 10:
 121:.\main.c      ****               hex[i]='A';
 573              		.loc 1 121 0
 574 0058 FB68     		ldr	r3, [r7, #12]
 575 005a 3A68     		ldr	r2, [r7, #0]
 576 005c D318     		adds	r3, r2, r3
 577 005e 4FF04102 		mov	r2, #65
 578 0062 1A70     		strb	r2, [r3, #0]
 122:.\main.c      ****               break;
 579              		.loc 1 122 0
 580 0064 2CE0     		b	.L31
 581              	.L25:
 123:.\main.c      ****             case 11:
 124:.\main.c      ****               hex[i]='B';
 582              		.loc 1 124 0
 583 0066 FB68     		ldr	r3, [r7, #12]
 584 0068 3A68     		ldr	r2, [r7, #0]
 585 006a D318     		adds	r3, r2, r3
 586 006c 4FF04202 		mov	r2, #66
 587 0070 1A70     		strb	r2, [r3, #0]
 125:.\main.c      ****               break;
 588              		.loc 1 125 0
 589 0072 25E0     		b	.L31
 590              	.L26:
 126:.\main.c      ****             case 12:
 127:.\main.c      ****               hex[i]='C';
 591              		.loc 1 127 0
 592 0074 FB68     		ldr	r3, [r7, #12]
 593 0076 3A68     		ldr	r2, [r7, #0]
 594 0078 D318     		adds	r3, r2, r3
 595 007a 4FF04302 		mov	r2, #67
 596 007e 1A70     		strb	r2, [r3, #0]
 128:.\main.c      ****               break;
 597              		.loc 1 128 0
 598 0080 1EE0     		b	.L31
 599              	.L27:
 129:.\main.c      ****             case 13:
 130:.\main.c      ****               hex[i]='D';
 600              		.loc 1 130 0
 601 0082 FB68     		ldr	r3, [r7, #12]
 602 0084 3A68     		ldr	r2, [r7, #0]
 603 0086 D318     		adds	r3, r2, r3
 604 0088 4FF04402 		mov	r2, #68
 605 008c 1A70     		strb	r2, [r3, #0]
ARM GAS  C:\Users\makij\AppData\Local\Temp\ccllLF1a.s 			page 14


 131:.\main.c      ****               break;
 606              		.loc 1 131 0
 607 008e 17E0     		b	.L31
 608              	.L28:
 132:.\main.c      ****             case 14:
 133:.\main.c      ****               hex[i]='E';
 609              		.loc 1 133 0
 610 0090 FB68     		ldr	r3, [r7, #12]
 611 0092 3A68     		ldr	r2, [r7, #0]
 612 0094 D318     		adds	r3, r2, r3
 613 0096 4FF04502 		mov	r2, #69
 614 009a 1A70     		strb	r2, [r3, #0]
 134:.\main.c      ****               break;
 615              		.loc 1 134 0
 616 009c 10E0     		b	.L31
 617              	.L29:
 135:.\main.c      ****             case 15:
 136:.\main.c      ****               hex[i]='F';
 618              		.loc 1 136 0
 619 009e FB68     		ldr	r3, [r7, #12]
 620 00a0 3A68     		ldr	r2, [r7, #0]
 621 00a2 D318     		adds	r3, r2, r3
 622 00a4 4FF04602 		mov	r2, #70
 623 00a8 1A70     		strb	r2, [r3, #0]
 137:.\main.c      ****               break;
 624              		.loc 1 137 0
 625 00aa 09E0     		b	.L31
 626              	.L23:
 138:.\main.c      ****             default:
 139:.\main.c      ****               hex[i]=rem+'0';
 627              		.loc 1 139 0
 628 00ac FB68     		ldr	r3, [r7, #12]
 629 00ae 3A68     		ldr	r2, [r7, #0]
 630 00b0 D318     		adds	r3, r2, r3
 631 00b2 BA68     		ldr	r2, [r7, #8]
 632 00b4 D2B2     		uxtb	r2, r2
 633 00b6 02F13002 		add	r2, r2, #48
 634 00ba D2B2     		uxtb	r2, r2
 635 00bc 1A70     		strb	r2, [r3, #0]
 140:.\main.c      ****               break;
 636              		.loc 1 140 0
 637 00be 00BF     		nop
 638              	.L31:
 141:.\main.c      ****         }
 142:.\main.c      ****         ++i;
 639              		.loc 1 142 0
 640 00c0 FB68     		ldr	r3, [r7, #12]
 641 00c2 03F10103 		add	r3, r3, #1
 642 00c6 FB60     		str	r3, [r7, #12]
 143:.\main.c      ****         n/=16;
 643              		.loc 1 143 0
 644 00c8 7B68     		ldr	r3, [r7, #4]
 645 00ca 002B     		cmp	r3, #0
 646 00cc 01DA     		bge	.L32
 647 00ce 03F10F03 		add	r3, r3, #15
 648              	.L32:
 649 00d2 4FEA2313 		asr	r3, r3, #4
ARM GAS  C:\Users\makij\AppData\Local\Temp\ccllLF1a.s 			page 15


 650 00d6 7B60     		str	r3, [r7, #4]
 651              	.L21:
 115:.\main.c      ****     while (n!=0)
 652              		.loc 1 115 0 discriminator 1
 653 00d8 7B68     		ldr	r3, [r7, #4]
 654 00da 002B     		cmp	r3, #0
 655 00dc 99D1     		bne	.L33
 144:.\main.c      ****     }
 145:.\main.c      ****     hex[i]='\0';
 656              		.loc 1 145 0
 657 00de FB68     		ldr	r3, [r7, #12]
 658 00e0 3A68     		ldr	r2, [r7, #0]
 659 00e2 D318     		adds	r3, r2, r3
 660 00e4 4FF00002 		mov	r2, #0
 661 00e8 1A70     		strb	r2, [r3, #0]
 146:.\main.c      ****     mystrrev(hex);   /* Reverse string */
 662              		.loc 1 146 0
 663 00ea 3868     		ldr	r0, [r7, #0]
 664 00ec FFF7FEFF 		bl	mystrrev
 147:.\main.c      **** }
 665              		.loc 1 147 0
 666 00f0 07F11007 		add	r7, r7, #16
 667 00f4 BD46     		mov	sp, r7
 668 00f6 80BD     		pop	{r7, pc}
 669              		.cfi_endproc
 670              	.LFE65:
 671              		.size	decimal_hex, .-decimal_hex
 672              		.section	.text.main,"ax",%progbits
 673              		.align	2
 674              		.global	main
 675              		.thumb
 676              		.thumb_func
 677              		.type	main, %function
 678              	main:
 679              	.LFB66:
 148:.\main.c      **** 
 149:.\main.c      **** 
 150:.\main.c      **** 
 151:.\main.c      **** int main()
 152:.\main.c      **** {
 680              		.loc 1 152 0
 681              		.cfi_startproc
 682              		@ args = 0, pretend = 0, frame = 32
 683              		@ frame_needed = 1, uses_anonymous_args = 0
 684 0000 80B5     		push	{r7, lr}
 685              	.LCFI25:
 686              		.cfi_def_cfa_offset 8
 687              		.cfi_offset 7, -8
 688              		.cfi_offset 14, -4
 689 0002 88B0     		sub	sp, sp, #32
 690              	.LCFI26:
 691              		.cfi_def_cfa_offset 40
 692 0004 00AF     		add	r7, sp, #0
 693              	.LCFI27:
 694              		.cfi_def_cfa_register 7
 153:.\main.c      **** 	// Initialize all components
 154:.\main.c      **** 	init();
ARM GAS  C:\Users\makij\AppData\Local\Temp\ccllLF1a.s 			page 16


 695              		.loc 1 154 0
 696 0006 FFF7FEFF 		bl	init
 155:.\main.c      **** 	uint16 count;
 156:.\main.c      **** 	bool messageReady = false;
 697              		.loc 1 156 0
 698 000a 4FF00003 		mov	r3, #0
 699 000e FB61     		str	r3, [r7, #28]
 700              	.L72:
 157:.\main.c      **** 	uint16 forLoopCounter;
 158:.\main.c      **** 	// main program loop
 159:.\main.c      **** 	for(;;)
 160:.\main.c      ****     {
 161:.\main.c      **** 		// these states are switched in the various ISR's
 162:.\main.c      **** 		switch(currentState)
 701              		.loc 1 162 0
 702 0010 40F20003 		movw	r3, #:lower16:currentState
 703 0014 C0F20003 		movt	r3, #:upper16:currentState
 704 0018 1B78     		ldrb	r3, [r3, #0]	@ zero_extendqisi2
 705 001a 012B     		cmp	r3, #1
 706 001c 00F09D83 		beq	.L37
 707 0020 022B     		cmp	r3, #2
 708 0022 00F0A783 		beq	.L38
 709 0026 002B     		cmp	r3, #0
 710 0028 40F0BF83 		bne	.L35
 711              	.L36:
 163:.\main.c      **** 		{
 164:.\main.c      **** 			case IDLE:
 165:.\main.c      **** 			/****************************************
 166:.\main.c      **** 			uncommented as the current state was not changing
 167:.\main.c      **** 			*********************************************/
 168:.\main.c      **** 			/*
 169:.\main.c      **** 			if(i_send == 0 || i_send == forLoopCounter)
 170:.\main.c      **** 			{
 171:.\main.c      **** 				Timer_sendData_Sleep();
 172:.\main.c      **** 			}
 173:.\main.c      **** 			*/
 174:.\main.c      **** 			
 175:.\main.c      **** 			/*
 176:.\main.c      **** 				Transm_Output_Write(1);
 177:.\main.c      **** 			*/
 178:.\main.c      **** 				dataReady = false;
 712              		.loc 1 178 0
 713 002c 40F20003 		movw	r3, #:lower16:dataReady
 714 0030 C0F20003 		movt	r3, #:upper16:dataReady
 715 0034 4FF00002 		mov	r2, #0
 716 0038 1A60     		str	r2, [r3, #0]
 179:.\main.c      **** 			
 180:.\main.c      **** 				memset(packetSend,  0, (80*8));
 717              		.loc 1 180 0
 718 003a 40F20000 		movw	r0, #:lower16:packetSend
 719 003e C0F20000 		movt	r0, #:upper16:packetSend
 720 0042 4FF00001 		mov	r1, #0
 721 0046 4FF42072 		mov	r2, #640
 722 004a FFF7FEFF 		bl	memset
 181:.\main.c      **** 				Pin_LEDBusy_Write(0);			
 723              		.loc 1 181 0
 724 004e 4FF00000 		mov	r0, #0
ARM GAS  C:\Users\makij\AppData\Local\Temp\ccllLF1a.s 			page 17


 725 0052 FFF7FEFF 		bl	Pin_LEDBusy_Write
 182:.\main.c      **** 				Pin_LEDIdle_Write(1);
 726              		.loc 1 182 0
 727 0056 4FF00100 		mov	r0, #1
 728 005a FFF7FEFF 		bl	Pin_LEDIdle_Write
 183:.\main.c      **** 				Pin_LEDCollision_Write(0);
 729              		.loc 1 183 0
 730 005e 4FF00000 		mov	r0, #0
 731 0062 FFF7FEFF 		bl	Pin_LEDCollision_Write
 184:.\main.c      **** 				/*****************************************************************************
 185:.\main.c      **** 				
 186:.\main.c      **** 				The USB need to watch for the return key before it creates the buffer
 187:.\main.c      **** 				Currently it fires on every key press (1/8/2015) James Maki
 188:.\main.c      **** 				
 189:.\main.c      **** 				******************************************************************************/
 190:.\main.c      **** 				
 191:.\main.c      **** 				
 192:.\main.c      **** 				//check message from usb
 193:.\main.c      **** 				if(USB_DataIsReady() != 0u)               /* Check for input data from PC */
 732              		.loc 1 193 0
 733 0066 FFF7FEFF 		bl	USB_DataIsReady
 734 006a 0346     		mov	r3, r0
 735 006c 002B     		cmp	r3, #0
 736 006e 00F04D83 		beq	.L39
 737              	.LBB2:
 194:.\main.c      **** 	       	{   
 195:.\main.c      **** 		           count = USB_GetAll(packetUSB);           /* Read received data and re-enable OUT endpo
 738              		.loc 1 195 0
 739 0072 40F20000 		movw	r0, #:lower16:packetUSB
 740 0076 C0F20000 		movt	r0, #:upper16:packetUSB
 741 007a FFF7FEFF 		bl	USB_GetAll
 742 007e 0346     		mov	r3, r0
 743 0080 FB80     		strh	r3, [r7, #6]	@ movhi
 196:.\main.c      **** 		           if(count != 0u)
 744              		.loc 1 196 0
 745 0082 FB88     		ldrh	r3, [r7, #6]
 746 0084 002B     		cmp	r3, #0
 747 0086 4FD0     		beq	.L73
 197:.\main.c      **** 		           {
 198:.\main.c      **** 						for(forLoopCounter=0; forLoopCounter<count;forLoopCounter++)
 748              		.loc 1 198 0
 749 0088 4FF00003 		mov	r3, #0
 750 008c 7B83     		strh	r3, [r7, #26]	@ movhi
 751 008e 47E0     		b	.L41
 752              	.L45:
 199:.\main.c      **** 						//USB_PutData(packetUSB, count); 
 200:.\main.c      **** 		               /* If the last sent packet is exactly maximum packet size, 
 201:.\main.c      **** 		               *  it shall be followed by a zero-length packet to assure the
 202:.\main.c      **** 		               *  end of segment is properly identified by the terminal.
 203:.\main.c      **** 		               */
 204:.\main.c      **** 		               if(packetUSB[forLoopCounter] == '\r' || count == 80)
 753              		.loc 1 204 0
 754 0090 7A8B     		ldrh	r2, [r7, #26]
 755 0092 40F20003 		movw	r3, #:lower16:packetUSB
 756 0096 C0F20003 		movt	r3, #:upper16:packetUSB
 757 009a 9B5C     		ldrb	r3, [r3, r2]	@ zero_extendqisi2
 758 009c 0D2B     		cmp	r3, #13
ARM GAS  C:\Users\makij\AppData\Local\Temp\ccllLF1a.s 			page 18


 759 009e 02D0     		beq	.L42
 760              		.loc 1 204 0 is_stmt 0 discriminator 1
 761 00a0 FB88     		ldrh	r3, [r7, #6]
 762 00a2 502B     		cmp	r3, #80
 763 00a4 17D1     		bne	.L43
 764              	.L42:
 205:.\main.c      **** 		               {
 206:.\main.c      **** 							messageReady = true;
 765              		.loc 1 206 0 is_stmt 1
 766 00a6 4FF00103 		mov	r3, #1
 767 00aa FB61     		str	r3, [r7, #28]
 207:.\main.c      **** 		                   packetMessage[messageBufferPosition] = 0;
 768              		.loc 1 207 0
 769 00ac 40F20003 		movw	r3, #:lower16:messageBufferPosition
 770 00b0 C0F20003 		movt	r3, #:upper16:messageBufferPosition
 771 00b4 1B78     		ldrb	r3, [r3, #0]	@ zero_extendqisi2
 772 00b6 1A46     		mov	r2, r3
 773 00b8 40F20003 		movw	r3, #:lower16:packetMessage
 774 00bc C0F20003 		movt	r3, #:upper16:packetMessage
 775 00c0 4FF00001 		mov	r1, #0
 776 00c4 9954     		strb	r1, [r3, r2]
 208:.\main.c      **** 							messageBufferPosition=0;
 777              		.loc 1 208 0
 778 00c6 40F20003 		movw	r3, #:lower16:messageBufferPosition
 779 00ca C0F20003 		movt	r3, #:upper16:messageBufferPosition
 780 00ce 4FF00002 		mov	r2, #0
 781 00d2 1A70     		strb	r2, [r3, #0]
 782 00d4 20E0     		b	.L44
 783              	.L43:
 209:.\main.c      **** 							}
 210:.\main.c      **** 						else{
 211:.\main.c      **** 							messageReady = false;
 784              		.loc 1 211 0
 785 00d6 4FF00003 		mov	r3, #0
 786 00da FB61     		str	r3, [r7, #28]
 212:.\main.c      **** 							messageBufferPosition++;
 787              		.loc 1 212 0
 788 00dc 40F20003 		movw	r3, #:lower16:messageBufferPosition
 789 00e0 C0F20003 		movt	r3, #:upper16:messageBufferPosition
 790 00e4 1B78     		ldrb	r3, [r3, #0]	@ zero_extendqisi2
 791 00e6 03F10103 		add	r3, r3, #1
 792 00ea DAB2     		uxtb	r2, r3
 793 00ec 40F20003 		movw	r3, #:lower16:messageBufferPosition
 794 00f0 C0F20003 		movt	r3, #:upper16:messageBufferPosition
 795 00f4 1A70     		strb	r2, [r3, #0]
 213:.\main.c      **** 							packetMessage[messageBufferPosition]=packetUSB[forLoopCounter];
 796              		.loc 1 213 0
 797 00f6 40F20003 		movw	r3, #:lower16:messageBufferPosition
 798 00fa C0F20003 		movt	r3, #:upper16:messageBufferPosition
 799 00fe 1B78     		ldrb	r3, [r3, #0]	@ zero_extendqisi2
 800 0100 1A46     		mov	r2, r3
 801 0102 798B     		ldrh	r1, [r7, #26]
 802 0104 40F20003 		movw	r3, #:lower16:packetUSB
 803 0108 C0F20003 		movt	r3, #:upper16:packetUSB
 804 010c 595C     		ldrb	r1, [r3, r1]	@ zero_extendqisi2
 805 010e 40F20003 		movw	r3, #:lower16:packetMessage
 806 0112 C0F20003 		movt	r3, #:upper16:packetMessage
ARM GAS  C:\Users\makij\AppData\Local\Temp\ccllLF1a.s 			page 19


 807 0116 9954     		strb	r1, [r3, r2]
 808              	.L44:
 198:.\main.c      **** 						for(forLoopCounter=0; forLoopCounter<count;forLoopCounter++)
 809              		.loc 1 198 0
 810 0118 7B8B     		ldrh	r3, [r7, #26]	@ movhi
 811 011a 03F10103 		add	r3, r3, #1
 812 011e 7B83     		strh	r3, [r7, #26]	@ movhi
 813              	.L41:
 198:.\main.c      **** 						for(forLoopCounter=0; forLoopCounter<count;forLoopCounter++)
 814              		.loc 1 198 0 is_stmt 0 discriminator 1
 815 0120 7A8B     		ldrh	r2, [r7, #26]
 816 0122 FB88     		ldrh	r3, [r7, #6]
 817 0124 9A42     		cmp	r2, r3
 818 0126 B3D3     		bcc	.L45
 819              	.L73:
 214:.\main.c      **** 						}
 215:.\main.c      **** 		           }
 216:.\main.c      **** 					while(USB_CDCIsReady() == 0u); /* Wait till component is ready to send more data to the PC */
 820              		.loc 1 216 0 is_stmt 1
 821 0128 00BF     		nop
 822              	.L46:
 823              		.loc 1 216 0 is_stmt 0 discriminator 1
 824 012a FFF7FEFF 		bl	USB_CDCIsReady
 825 012e 0346     		mov	r3, r0
 826 0130 002B     		cmp	r3, #0
 827 0132 FAD0     		beq	.L46
 217:.\main.c      **** 		                   USB_PutData(packetUSB, count);         /* Send zero-length packet to PC */
 828              		.loc 1 217 0 is_stmt 1
 829 0134 FB88     		ldrh	r3, [r7, #6]
 830 0136 40F20000 		movw	r0, #:lower16:packetUSB
 831 013a C0F20000 		movt	r0, #:upper16:packetUSB
 832 013e 1946     		mov	r1, r3
 833 0140 FFF7FEFF 		bl	USB_PutData
 218:.\main.c      **** 					//generate packet and send packet
 219:.\main.c      **** 					i_send = 0;
 834              		.loc 1 219 0
 835 0144 40F20003 		movw	r3, #:lower16:i_send
 836 0148 C0F20003 		movt	r3, #:upper16:i_send
 837 014c 4FF00002 		mov	r2, #0
 838 0150 1A60     		str	r2, [r3, #0]
 220:.\main.c      **** 
 221:.\main.c      **** 					
 222:.\main.c      **** 					int l, l2;
 223:.\main.c      **** 						USB_PutChar('b');
 839              		.loc 1 223 0
 840 0152 4FF06200 		mov	r0, #98
 841 0156 FFF7FEFF 		bl	USB_PutChar
 224:.\main.c      **** 						USB_PutChar(packetMessage[0]);
 842              		.loc 1 224 0
 843 015a 40F20003 		movw	r3, #:lower16:packetMessage
 844 015e C0F20003 		movt	r3, #:upper16:packetMessage
 845 0162 1B78     		ldrb	r3, [r3, #0]	@ zero_extendqisi2
 846 0164 1846     		mov	r0, r3
 847 0166 FFF7FEFF 		bl	USB_PutChar
 225:.\main.c      **** 						
 226:.\main.c      **** 					for(l = 0; packetMessage[l] != '\0'; l++)
 848              		.loc 1 226 0
ARM GAS  C:\Users\makij\AppData\Local\Temp\ccllLF1a.s 			page 20


 849 016a 4FF00003 		mov	r3, #0
 850 016e 7B61     		str	r3, [r7, #20]
 851 0170 BBE2     		b	.L47
 852              	.L68:
 227:.\main.c      **** 					{
 228:.\main.c      **** 						USB_PutChar('a');
 853              		.loc 1 228 0
 854 0172 4FF06100 		mov	r0, #97
 855 0176 FFF7FEFF 		bl	USB_PutChar
 229:.\main.c      **** 						dec = (unsigned int) packetUSB[l];
 856              		.loc 1 229 0
 857 017a 40F20003 		movw	r3, #:lower16:packetUSB
 858 017e C0F20003 		movt	r3, #:upper16:packetUSB
 859 0182 7A69     		ldr	r2, [r7, #20]
 860 0184 9B18     		adds	r3, r3, r2
 861 0186 1A78     		ldrb	r2, [r3, #0]	@ zero_extendqisi2
 862 0188 40F20003 		movw	r3, #:lower16:dec
 863 018c C0F20003 		movt	r3, #:upper16:dec
 864 0190 1A70     		strb	r2, [r3, #0]
 230:.\main.c      **** 						//USB_PutChar((char *)dec);
 231:.\main.c      **** 						
 232:.\main.c      **** 						decimal_hex(dec, packetHex);
 865              		.loc 1 232 0
 866 0192 40F20003 		movw	r3, #:lower16:dec
 867 0196 C0F20003 		movt	r3, #:upper16:dec
 868 019a 1B78     		ldrb	r3, [r3, #0]	@ zero_extendqisi2
 869 019c 1846     		mov	r0, r3
 870 019e 40F20001 		movw	r1, #:lower16:packetHex
 871 01a2 C0F20001 		movt	r1, #:upper16:packetHex
 872 01a6 FFF7FEFF 		bl	decimal_hex
 233:.\main.c      **** 						//printStringAsBinary(packetHex);
 234:.\main.c      **** 						//LCD_Position(1,0);
 235:.\main.c      **** 						
 236:.\main.c      **** 						
 237:.\main.c      **** 						for(l2 = 0; packetHex[l2] != '\0'; l2++)
 873              		.loc 1 237 0
 874 01aa 4FF00003 		mov	r3, #0
 875 01ae 3B61     		str	r3, [r7, #16]
 876 01b0 8DE2     		b	.L48
 877              	.L67:
 878              	.LBB3:
 238:.\main.c      **** 						{
 239:.\main.c      **** 							printbinchar(packetHex[l2]);
 879              		.loc 1 239 0
 880 01b2 40F20003 		movw	r3, #:lower16:packetHex
 881 01b6 C0F20003 		movt	r3, #:upper16:packetHex
 882 01ba 3A69     		ldr	r2, [r7, #16]
 883 01bc 9B18     		adds	r3, r3, r2
 884 01be 1B78     		ldrb	r3, [r3, #0]	@ zero_extendqisi2
 885 01c0 1846     		mov	r0, r3
 886 01c2 FFF7FEFF 		bl	printbinchar
 240:.\main.c      **** 							if(packetHex[l2] == '0'){
 887              		.loc 1 240 0
 888 01c6 40F20003 		movw	r3, #:lower16:packetHex
 889 01ca C0F20003 		movt	r3, #:upper16:packetHex
 890 01ce 3A69     		ldr	r2, [r7, #16]
 891 01d0 9B18     		adds	r3, r3, r2
ARM GAS  C:\Users\makij\AppData\Local\Temp\ccllLF1a.s 			page 21


 892 01d2 1B78     		ldrb	r3, [r3, #0]	@ zero_extendqisi2
 893 01d4 302B     		cmp	r3, #48
 894 01d6 1CD1     		bne	.L49
 241:.\main.c      **** 								packetBinary[0] = 0;
 895              		.loc 1 241 0
 896 01d8 40F20003 		movw	r3, #:lower16:packetBinary
 897 01dc C0F20003 		movt	r3, #:upper16:packetBinary
 898 01e0 4FF00002 		mov	r2, #0
 899 01e4 1A70     		strb	r2, [r3, #0]
 242:.\main.c      **** 								packetBinary[1] = 0;
 900              		.loc 1 242 0
 901 01e6 40F20003 		movw	r3, #:lower16:packetBinary
 902 01ea C0F20003 		movt	r3, #:upper16:packetBinary
 903 01ee 4FF00002 		mov	r2, #0
 904 01f2 5A70     		strb	r2, [r3, #1]
 243:.\main.c      **** 								packetBinary[2] = 0;
 905              		.loc 1 243 0
 906 01f4 40F20003 		movw	r3, #:lower16:packetBinary
 907 01f8 C0F20003 		movt	r3, #:upper16:packetBinary
 908 01fc 4FF00002 		mov	r2, #0
 909 0200 9A70     		strb	r2, [r3, #2]
 244:.\main.c      **** 								packetBinary[3] = 0;
 910              		.loc 1 244 0
 911 0202 40F20003 		movw	r3, #:lower16:packetBinary
 912 0206 C0F20003 		movt	r3, #:upper16:packetBinary
 913 020a 4FF00002 		mov	r2, #0
 914 020e DA70     		strb	r2, [r3, #3]
 915 0210 2FE2     		b	.L50
 916              	.L49:
 245:.\main.c      **** 							}else if(packetHex[l2] == '1'){
 917              		.loc 1 245 0
 918 0212 40F20003 		movw	r3, #:lower16:packetHex
 919 0216 C0F20003 		movt	r3, #:upper16:packetHex
 920 021a 3A69     		ldr	r2, [r7, #16]
 921 021c 9B18     		adds	r3, r3, r2
 922 021e 1B78     		ldrb	r3, [r3, #0]	@ zero_extendqisi2
 923 0220 312B     		cmp	r3, #49
 924 0222 1CD1     		bne	.L51
 246:.\main.c      **** 								packetBinary[0] = 0;
 925              		.loc 1 246 0
 926 0224 40F20003 		movw	r3, #:lower16:packetBinary
 927 0228 C0F20003 		movt	r3, #:upper16:packetBinary
 928 022c 4FF00002 		mov	r2, #0
 929 0230 1A70     		strb	r2, [r3, #0]
 247:.\main.c      **** 								packetBinary[1] = 0;
 930              		.loc 1 247 0
 931 0232 40F20003 		movw	r3, #:lower16:packetBinary
 932 0236 C0F20003 		movt	r3, #:upper16:packetBinary
 933 023a 4FF00002 		mov	r2, #0
 934 023e 5A70     		strb	r2, [r3, #1]
 248:.\main.c      **** 								packetBinary[2] = 0;
 935              		.loc 1 248 0
 936 0240 40F20003 		movw	r3, #:lower16:packetBinary
 937 0244 C0F20003 		movt	r3, #:upper16:packetBinary
 938 0248 4FF00002 		mov	r2, #0
 939 024c 9A70     		strb	r2, [r3, #2]
 249:.\main.c      **** 								packetBinary[3] = 1;
ARM GAS  C:\Users\makij\AppData\Local\Temp\ccllLF1a.s 			page 22


 940              		.loc 1 249 0
 941 024e 40F20003 		movw	r3, #:lower16:packetBinary
 942 0252 C0F20003 		movt	r3, #:upper16:packetBinary
 943 0256 4FF00102 		mov	r2, #1
 944 025a DA70     		strb	r2, [r3, #3]
 945 025c 09E2     		b	.L50
 946              	.L51:
 250:.\main.c      **** 							}else if(packetHex[l2] == '2'){
 947              		.loc 1 250 0
 948 025e 40F20003 		movw	r3, #:lower16:packetHex
 949 0262 C0F20003 		movt	r3, #:upper16:packetHex
 950 0266 3A69     		ldr	r2, [r7, #16]
 951 0268 9B18     		adds	r3, r3, r2
 952 026a 1B78     		ldrb	r3, [r3, #0]	@ zero_extendqisi2
 953 026c 322B     		cmp	r3, #50
 954 026e 1CD1     		bne	.L52
 251:.\main.c      **** 								packetBinary[0] = 0;
 955              		.loc 1 251 0
 956 0270 40F20003 		movw	r3, #:lower16:packetBinary
 957 0274 C0F20003 		movt	r3, #:upper16:packetBinary
 958 0278 4FF00002 		mov	r2, #0
 959 027c 1A70     		strb	r2, [r3, #0]
 252:.\main.c      **** 								packetBinary[1] = 0;
 960              		.loc 1 252 0
 961 027e 40F20003 		movw	r3, #:lower16:packetBinary
 962 0282 C0F20003 		movt	r3, #:upper16:packetBinary
 963 0286 4FF00002 		mov	r2, #0
 964 028a 5A70     		strb	r2, [r3, #1]
 253:.\main.c      **** 								packetBinary[2] = 1;
 965              		.loc 1 253 0
 966 028c 40F20003 		movw	r3, #:lower16:packetBinary
 967 0290 C0F20003 		movt	r3, #:upper16:packetBinary
 968 0294 4FF00102 		mov	r2, #1
 969 0298 9A70     		strb	r2, [r3, #2]
 254:.\main.c      **** 								packetBinary[3] = 0;
 970              		.loc 1 254 0
 971 029a 40F20003 		movw	r3, #:lower16:packetBinary
 972 029e C0F20003 		movt	r3, #:upper16:packetBinary
 973 02a2 4FF00002 		mov	r2, #0
 974 02a6 DA70     		strb	r2, [r3, #3]
 975 02a8 E3E1     		b	.L50
 976              	.L52:
 255:.\main.c      **** 							}else if(packetHex[l2] == '3'){
 977              		.loc 1 255 0
 978 02aa 40F20003 		movw	r3, #:lower16:packetHex
 979 02ae C0F20003 		movt	r3, #:upper16:packetHex
 980 02b2 3A69     		ldr	r2, [r7, #16]
 981 02b4 9B18     		adds	r3, r3, r2
 982 02b6 1B78     		ldrb	r3, [r3, #0]	@ zero_extendqisi2
 983 02b8 332B     		cmp	r3, #51
 984 02ba 1CD1     		bne	.L53
 256:.\main.c      **** 								packetBinary[0] = 0;
 985              		.loc 1 256 0
 986 02bc 40F20003 		movw	r3, #:lower16:packetBinary
 987 02c0 C0F20003 		movt	r3, #:upper16:packetBinary
 988 02c4 4FF00002 		mov	r2, #0
 989 02c8 1A70     		strb	r2, [r3, #0]
ARM GAS  C:\Users\makij\AppData\Local\Temp\ccllLF1a.s 			page 23


 257:.\main.c      **** 								packetBinary[1] = 0;
 990              		.loc 1 257 0
 991 02ca 40F20003 		movw	r3, #:lower16:packetBinary
 992 02ce C0F20003 		movt	r3, #:upper16:packetBinary
 993 02d2 4FF00002 		mov	r2, #0
 994 02d6 5A70     		strb	r2, [r3, #1]
 258:.\main.c      **** 								packetBinary[2] = 1;
 995              		.loc 1 258 0
 996 02d8 40F20003 		movw	r3, #:lower16:packetBinary
 997 02dc C0F20003 		movt	r3, #:upper16:packetBinary
 998 02e0 4FF00102 		mov	r2, #1
 999 02e4 9A70     		strb	r2, [r3, #2]
 259:.\main.c      **** 								packetBinary[3] = 1;
 1000              		.loc 1 259 0
 1001 02e6 40F20003 		movw	r3, #:lower16:packetBinary
 1002 02ea C0F20003 		movt	r3, #:upper16:packetBinary
 1003 02ee 4FF00102 		mov	r2, #1
 1004 02f2 DA70     		strb	r2, [r3, #3]
 1005 02f4 BDE1     		b	.L50
 1006              	.L53:
 260:.\main.c      **** 							}else if(packetHex[l2] == '4'){
 1007              		.loc 1 260 0
 1008 02f6 40F20003 		movw	r3, #:lower16:packetHex
 1009 02fa C0F20003 		movt	r3, #:upper16:packetHex
 1010 02fe 3A69     		ldr	r2, [r7, #16]
 1011 0300 9B18     		adds	r3, r3, r2
 1012 0302 1B78     		ldrb	r3, [r3, #0]	@ zero_extendqisi2
 1013 0304 342B     		cmp	r3, #52
 1014 0306 1CD1     		bne	.L54
 261:.\main.c      **** 								packetBinary[0] = 0;
 1015              		.loc 1 261 0
 1016 0308 40F20003 		movw	r3, #:lower16:packetBinary
 1017 030c C0F20003 		movt	r3, #:upper16:packetBinary
 1018 0310 4FF00002 		mov	r2, #0
 1019 0314 1A70     		strb	r2, [r3, #0]
 262:.\main.c      **** 								packetBinary[1] = 1;
 1020              		.loc 1 262 0
 1021 0316 40F20003 		movw	r3, #:lower16:packetBinary
 1022 031a C0F20003 		movt	r3, #:upper16:packetBinary
 1023 031e 4FF00102 		mov	r2, #1
 1024 0322 5A70     		strb	r2, [r3, #1]
 263:.\main.c      **** 								packetBinary[2] = 0;
 1025              		.loc 1 263 0
 1026 0324 40F20003 		movw	r3, #:lower16:packetBinary
 1027 0328 C0F20003 		movt	r3, #:upper16:packetBinary
 1028 032c 4FF00002 		mov	r2, #0
 1029 0330 9A70     		strb	r2, [r3, #2]
 264:.\main.c      **** 								packetBinary[3] = 0;
 1030              		.loc 1 264 0
 1031 0332 40F20003 		movw	r3, #:lower16:packetBinary
 1032 0336 C0F20003 		movt	r3, #:upper16:packetBinary
 1033 033a 4FF00002 		mov	r2, #0
 1034 033e DA70     		strb	r2, [r3, #3]
 1035 0340 97E1     		b	.L50
 1036              	.L54:
 265:.\main.c      **** 							}else if(packetHex[l2] == '5'){
 1037              		.loc 1 265 0
ARM GAS  C:\Users\makij\AppData\Local\Temp\ccllLF1a.s 			page 24


 1038 0342 40F20003 		movw	r3, #:lower16:packetHex
 1039 0346 C0F20003 		movt	r3, #:upper16:packetHex
 1040 034a 3A69     		ldr	r2, [r7, #16]
 1041 034c 9B18     		adds	r3, r3, r2
 1042 034e 1B78     		ldrb	r3, [r3, #0]	@ zero_extendqisi2
 1043 0350 352B     		cmp	r3, #53
 1044 0352 1CD1     		bne	.L55
 266:.\main.c      **** 								packetBinary[0] = 0;
 1045              		.loc 1 266 0
 1046 0354 40F20003 		movw	r3, #:lower16:packetBinary
 1047 0358 C0F20003 		movt	r3, #:upper16:packetBinary
 1048 035c 4FF00002 		mov	r2, #0
 1049 0360 1A70     		strb	r2, [r3, #0]
 267:.\main.c      **** 								packetBinary[1] = 1;
 1050              		.loc 1 267 0
 1051 0362 40F20003 		movw	r3, #:lower16:packetBinary
 1052 0366 C0F20003 		movt	r3, #:upper16:packetBinary
 1053 036a 4FF00102 		mov	r2, #1
 1054 036e 5A70     		strb	r2, [r3, #1]
 268:.\main.c      **** 								packetBinary[2] = 0;
 1055              		.loc 1 268 0
 1056 0370 40F20003 		movw	r3, #:lower16:packetBinary
 1057 0374 C0F20003 		movt	r3, #:upper16:packetBinary
 1058 0378 4FF00002 		mov	r2, #0
 1059 037c 9A70     		strb	r2, [r3, #2]
 269:.\main.c      **** 								packetBinary[3] = 1;
 1060              		.loc 1 269 0
 1061 037e 40F20003 		movw	r3, #:lower16:packetBinary
 1062 0382 C0F20003 		movt	r3, #:upper16:packetBinary
 1063 0386 4FF00102 		mov	r2, #1
 1064 038a DA70     		strb	r2, [r3, #3]
 1065 038c 71E1     		b	.L50
 1066              	.L55:
 270:.\main.c      **** 							}else if(packetHex[l2] == '6'){
 1067              		.loc 1 270 0
 1068 038e 40F20003 		movw	r3, #:lower16:packetHex
 1069 0392 C0F20003 		movt	r3, #:upper16:packetHex
 1070 0396 3A69     		ldr	r2, [r7, #16]
 1071 0398 9B18     		adds	r3, r3, r2
 1072 039a 1B78     		ldrb	r3, [r3, #0]	@ zero_extendqisi2
 1073 039c 362B     		cmp	r3, #54
 1074 039e 1CD1     		bne	.L56
 271:.\main.c      **** 								packetBinary[0] = 0;
 1075              		.loc 1 271 0
 1076 03a0 40F20003 		movw	r3, #:lower16:packetBinary
 1077 03a4 C0F20003 		movt	r3, #:upper16:packetBinary
 1078 03a8 4FF00002 		mov	r2, #0
 1079 03ac 1A70     		strb	r2, [r3, #0]
 272:.\main.c      **** 								packetBinary[1] = 1;
 1080              		.loc 1 272 0
 1081 03ae 40F20003 		movw	r3, #:lower16:packetBinary
 1082 03b2 C0F20003 		movt	r3, #:upper16:packetBinary
 1083 03b6 4FF00102 		mov	r2, #1
 1084 03ba 5A70     		strb	r2, [r3, #1]
 273:.\main.c      **** 								packetBinary[2] = 1;
 1085              		.loc 1 273 0
 1086 03bc 40F20003 		movw	r3, #:lower16:packetBinary
ARM GAS  C:\Users\makij\AppData\Local\Temp\ccllLF1a.s 			page 25


 1087 03c0 C0F20003 		movt	r3, #:upper16:packetBinary
 1088 03c4 4FF00102 		mov	r2, #1
 1089 03c8 9A70     		strb	r2, [r3, #2]
 274:.\main.c      **** 								packetBinary[3] = 0;
 1090              		.loc 1 274 0
 1091 03ca 40F20003 		movw	r3, #:lower16:packetBinary
 1092 03ce C0F20003 		movt	r3, #:upper16:packetBinary
 1093 03d2 4FF00002 		mov	r2, #0
 1094 03d6 DA70     		strb	r2, [r3, #3]
 1095 03d8 4BE1     		b	.L50
 1096              	.L56:
 275:.\main.c      **** 							}else if(packetHex[l2] == '7'){
 1097              		.loc 1 275 0
 1098 03da 40F20003 		movw	r3, #:lower16:packetHex
 1099 03de C0F20003 		movt	r3, #:upper16:packetHex
 1100 03e2 3A69     		ldr	r2, [r7, #16]
 1101 03e4 9B18     		adds	r3, r3, r2
 1102 03e6 1B78     		ldrb	r3, [r3, #0]	@ zero_extendqisi2
 1103 03e8 372B     		cmp	r3, #55
 1104 03ea 1CD1     		bne	.L57
 276:.\main.c      **** 								packetBinary[0] = 0;
 1105              		.loc 1 276 0
 1106 03ec 40F20003 		movw	r3, #:lower16:packetBinary
 1107 03f0 C0F20003 		movt	r3, #:upper16:packetBinary
 1108 03f4 4FF00002 		mov	r2, #0
 1109 03f8 1A70     		strb	r2, [r3, #0]
 277:.\main.c      **** 								packetBinary[1] = 1;
 1110              		.loc 1 277 0
 1111 03fa 40F20003 		movw	r3, #:lower16:packetBinary
 1112 03fe C0F20003 		movt	r3, #:upper16:packetBinary
 1113 0402 4FF00102 		mov	r2, #1
 1114 0406 5A70     		strb	r2, [r3, #1]
 278:.\main.c      **** 								packetBinary[2] = 1;
 1115              		.loc 1 278 0
 1116 0408 40F20003 		movw	r3, #:lower16:packetBinary
 1117 040c C0F20003 		movt	r3, #:upper16:packetBinary
 1118 0410 4FF00102 		mov	r2, #1
 1119 0414 9A70     		strb	r2, [r3, #2]
 279:.\main.c      **** 								packetBinary[3] = 1;
 1120              		.loc 1 279 0
 1121 0416 40F20003 		movw	r3, #:lower16:packetBinary
 1122 041a C0F20003 		movt	r3, #:upper16:packetBinary
 1123 041e 4FF00102 		mov	r2, #1
 1124 0422 DA70     		strb	r2, [r3, #3]
 1125 0424 25E1     		b	.L50
 1126              	.L57:
 280:.\main.c      **** 							}else if(packetHex[l2] == '8'){
 1127              		.loc 1 280 0
 1128 0426 40F20003 		movw	r3, #:lower16:packetHex
 1129 042a C0F20003 		movt	r3, #:upper16:packetHex
 1130 042e 3A69     		ldr	r2, [r7, #16]
 1131 0430 9B18     		adds	r3, r3, r2
 1132 0432 1B78     		ldrb	r3, [r3, #0]	@ zero_extendqisi2
 1133 0434 382B     		cmp	r3, #56
 1134 0436 1CD1     		bne	.L58
 281:.\main.c      **** 								packetBinary[0] = 1;
 1135              		.loc 1 281 0
ARM GAS  C:\Users\makij\AppData\Local\Temp\ccllLF1a.s 			page 26


 1136 0438 40F20003 		movw	r3, #:lower16:packetBinary
 1137 043c C0F20003 		movt	r3, #:upper16:packetBinary
 1138 0440 4FF00102 		mov	r2, #1
 1139 0444 1A70     		strb	r2, [r3, #0]
 282:.\main.c      **** 								packetBinary[1] = 0;
 1140              		.loc 1 282 0
 1141 0446 40F20003 		movw	r3, #:lower16:packetBinary
 1142 044a C0F20003 		movt	r3, #:upper16:packetBinary
 1143 044e 4FF00002 		mov	r2, #0
 1144 0452 5A70     		strb	r2, [r3, #1]
 283:.\main.c      **** 								packetBinary[2] = 0;
 1145              		.loc 1 283 0
 1146 0454 40F20003 		movw	r3, #:lower16:packetBinary
 1147 0458 C0F20003 		movt	r3, #:upper16:packetBinary
 1148 045c 4FF00002 		mov	r2, #0
 1149 0460 9A70     		strb	r2, [r3, #2]
 284:.\main.c      **** 								packetBinary[3] = 0;
 1150              		.loc 1 284 0
 1151 0462 40F20003 		movw	r3, #:lower16:packetBinary
 1152 0466 C0F20003 		movt	r3, #:upper16:packetBinary
 1153 046a 4FF00002 		mov	r2, #0
 1154 046e DA70     		strb	r2, [r3, #3]
 1155 0470 FFE0     		b	.L50
 1156              	.L58:
 285:.\main.c      **** 							}else if(packetHex[l2] == '9'){
 1157              		.loc 1 285 0
 1158 0472 40F20003 		movw	r3, #:lower16:packetHex
 1159 0476 C0F20003 		movt	r3, #:upper16:packetHex
 1160 047a 3A69     		ldr	r2, [r7, #16]
 1161 047c 9B18     		adds	r3, r3, r2
 1162 047e 1B78     		ldrb	r3, [r3, #0]	@ zero_extendqisi2
 1163 0480 392B     		cmp	r3, #57
 1164 0482 1CD1     		bne	.L59
 286:.\main.c      **** 								packetBinary[0] = 1;
 1165              		.loc 1 286 0
 1166 0484 40F20003 		movw	r3, #:lower16:packetBinary
 1167 0488 C0F20003 		movt	r3, #:upper16:packetBinary
 1168 048c 4FF00102 		mov	r2, #1
 1169 0490 1A70     		strb	r2, [r3, #0]
 287:.\main.c      **** 								packetBinary[1] = 0;
 1170              		.loc 1 287 0
 1171 0492 40F20003 		movw	r3, #:lower16:packetBinary
 1172 0496 C0F20003 		movt	r3, #:upper16:packetBinary
 1173 049a 4FF00002 		mov	r2, #0
 1174 049e 5A70     		strb	r2, [r3, #1]
 288:.\main.c      **** 								packetBinary[2] = 0;
 1175              		.loc 1 288 0
 1176 04a0 40F20003 		movw	r3, #:lower16:packetBinary
 1177 04a4 C0F20003 		movt	r3, #:upper16:packetBinary
 1178 04a8 4FF00002 		mov	r2, #0
 1179 04ac 9A70     		strb	r2, [r3, #2]
 289:.\main.c      **** 								packetBinary[3] = 1;
 1180              		.loc 1 289 0
 1181 04ae 40F20003 		movw	r3, #:lower16:packetBinary
 1182 04b2 C0F20003 		movt	r3, #:upper16:packetBinary
 1183 04b6 4FF00102 		mov	r2, #1
 1184 04ba DA70     		strb	r2, [r3, #3]
ARM GAS  C:\Users\makij\AppData\Local\Temp\ccllLF1a.s 			page 27


 1185 04bc D9E0     		b	.L50
 1186              	.L59:
 290:.\main.c      **** 							}else if(packetHex[l2] == 'A'){
 1187              		.loc 1 290 0
 1188 04be 40F20003 		movw	r3, #:lower16:packetHex
 1189 04c2 C0F20003 		movt	r3, #:upper16:packetHex
 1190 04c6 3A69     		ldr	r2, [r7, #16]
 1191 04c8 9B18     		adds	r3, r3, r2
 1192 04ca 1B78     		ldrb	r3, [r3, #0]	@ zero_extendqisi2
 1193 04cc 412B     		cmp	r3, #65
 1194 04ce 1CD1     		bne	.L60
 291:.\main.c      **** 								packetBinary[0] = 1;
 1195              		.loc 1 291 0
 1196 04d0 40F20003 		movw	r3, #:lower16:packetBinary
 1197 04d4 C0F20003 		movt	r3, #:upper16:packetBinary
 1198 04d8 4FF00102 		mov	r2, #1
 1199 04dc 1A70     		strb	r2, [r3, #0]
 292:.\main.c      **** 								packetBinary[1] = 0;
 1200              		.loc 1 292 0
 1201 04de 40F20003 		movw	r3, #:lower16:packetBinary
 1202 04e2 C0F20003 		movt	r3, #:upper16:packetBinary
 1203 04e6 4FF00002 		mov	r2, #0
 1204 04ea 5A70     		strb	r2, [r3, #1]
 293:.\main.c      **** 								packetBinary[2] = 1;
 1205              		.loc 1 293 0
 1206 04ec 40F20003 		movw	r3, #:lower16:packetBinary
 1207 04f0 C0F20003 		movt	r3, #:upper16:packetBinary
 1208 04f4 4FF00102 		mov	r2, #1
 1209 04f8 9A70     		strb	r2, [r3, #2]
 294:.\main.c      **** 								packetBinary[3] = 0;
 1210              		.loc 1 294 0
 1211 04fa 40F20003 		movw	r3, #:lower16:packetBinary
 1212 04fe C0F20003 		movt	r3, #:upper16:packetBinary
 1213 0502 4FF00002 		mov	r2, #0
 1214 0506 DA70     		strb	r2, [r3, #3]
 1215 0508 B3E0     		b	.L50
 1216              	.L60:
 295:.\main.c      **** 							}else if(packetHex[l2] == 'B'){
 1217              		.loc 1 295 0
 1218 050a 40F20003 		movw	r3, #:lower16:packetHex
 1219 050e C0F20003 		movt	r3, #:upper16:packetHex
 1220 0512 3A69     		ldr	r2, [r7, #16]
 1221 0514 9B18     		adds	r3, r3, r2
 1222 0516 1B78     		ldrb	r3, [r3, #0]	@ zero_extendqisi2
 1223 0518 422B     		cmp	r3, #66
 1224 051a 1CD1     		bne	.L61
 296:.\main.c      **** 								packetBinary[0] = 1;
 1225              		.loc 1 296 0
 1226 051c 40F20003 		movw	r3, #:lower16:packetBinary
 1227 0520 C0F20003 		movt	r3, #:upper16:packetBinary
 1228 0524 4FF00102 		mov	r2, #1
 1229 0528 1A70     		strb	r2, [r3, #0]
 297:.\main.c      **** 								packetBinary[1] = 0;
 1230              		.loc 1 297 0
 1231 052a 40F20003 		movw	r3, #:lower16:packetBinary
 1232 052e C0F20003 		movt	r3, #:upper16:packetBinary
 1233 0532 4FF00002 		mov	r2, #0
ARM GAS  C:\Users\makij\AppData\Local\Temp\ccllLF1a.s 			page 28


 1234 0536 5A70     		strb	r2, [r3, #1]
 298:.\main.c      **** 								packetBinary[2] = 1;
 1235              		.loc 1 298 0
 1236 0538 40F20003 		movw	r3, #:lower16:packetBinary
 1237 053c C0F20003 		movt	r3, #:upper16:packetBinary
 1238 0540 4FF00102 		mov	r2, #1
 1239 0544 9A70     		strb	r2, [r3, #2]
 299:.\main.c      **** 								packetBinary[3] = 1;
 1240              		.loc 1 299 0
 1241 0546 40F20003 		movw	r3, #:lower16:packetBinary
 1242 054a C0F20003 		movt	r3, #:upper16:packetBinary
 1243 054e 4FF00102 		mov	r2, #1
 1244 0552 DA70     		strb	r2, [r3, #3]
 1245 0554 8DE0     		b	.L50
 1246              	.L61:
 300:.\main.c      **** 							}else if(packetHex[l2] == 'C'){
 1247              		.loc 1 300 0
 1248 0556 40F20003 		movw	r3, #:lower16:packetHex
 1249 055a C0F20003 		movt	r3, #:upper16:packetHex
 1250 055e 3A69     		ldr	r2, [r7, #16]
 1251 0560 9B18     		adds	r3, r3, r2
 1252 0562 1B78     		ldrb	r3, [r3, #0]	@ zero_extendqisi2
 1253 0564 432B     		cmp	r3, #67
 1254 0566 1CD1     		bne	.L62
 301:.\main.c      **** 								packetBinary[0] = 1;
 1255              		.loc 1 301 0
 1256 0568 40F20003 		movw	r3, #:lower16:packetBinary
 1257 056c C0F20003 		movt	r3, #:upper16:packetBinary
 1258 0570 4FF00102 		mov	r2, #1
 1259 0574 1A70     		strb	r2, [r3, #0]
 302:.\main.c      **** 								packetBinary[1] = 1;
 1260              		.loc 1 302 0
 1261 0576 40F20003 		movw	r3, #:lower16:packetBinary
 1262 057a C0F20003 		movt	r3, #:upper16:packetBinary
 1263 057e 4FF00102 		mov	r2, #1
 1264 0582 5A70     		strb	r2, [r3, #1]
 303:.\main.c      **** 								packetBinary[2] = 0;
 1265              		.loc 1 303 0
 1266 0584 40F20003 		movw	r3, #:lower16:packetBinary
 1267 0588 C0F20003 		movt	r3, #:upper16:packetBinary
 1268 058c 4FF00002 		mov	r2, #0
 1269 0590 9A70     		strb	r2, [r3, #2]
 304:.\main.c      **** 								packetBinary[3] = 0;
 1270              		.loc 1 304 0
 1271 0592 40F20003 		movw	r3, #:lower16:packetBinary
 1272 0596 C0F20003 		movt	r3, #:upper16:packetBinary
 1273 059a 4FF00002 		mov	r2, #0
 1274 059e DA70     		strb	r2, [r3, #3]
 1275 05a0 67E0     		b	.L50
 1276              	.L62:
 305:.\main.c      **** 							}else if(packetHex[l2] =='D'){
 1277              		.loc 1 305 0
 1278 05a2 40F20003 		movw	r3, #:lower16:packetHex
 1279 05a6 C0F20003 		movt	r3, #:upper16:packetHex
 1280 05aa 3A69     		ldr	r2, [r7, #16]
 1281 05ac 9B18     		adds	r3, r3, r2
 1282 05ae 1B78     		ldrb	r3, [r3, #0]	@ zero_extendqisi2
ARM GAS  C:\Users\makij\AppData\Local\Temp\ccllLF1a.s 			page 29


 1283 05b0 442B     		cmp	r3, #68
 1284 05b2 1CD1     		bne	.L63
 306:.\main.c      **** 								packetBinary[0] = 1;
 1285              		.loc 1 306 0
 1286 05b4 40F20003 		movw	r3, #:lower16:packetBinary
 1287 05b8 C0F20003 		movt	r3, #:upper16:packetBinary
 1288 05bc 4FF00102 		mov	r2, #1
 1289 05c0 1A70     		strb	r2, [r3, #0]
 307:.\main.c      **** 								packetBinary[1] = 1;
 1290              		.loc 1 307 0
 1291 05c2 40F20003 		movw	r3, #:lower16:packetBinary
 1292 05c6 C0F20003 		movt	r3, #:upper16:packetBinary
 1293 05ca 4FF00102 		mov	r2, #1
 1294 05ce 5A70     		strb	r2, [r3, #1]
 308:.\main.c      **** 								packetBinary[2] = 0;
 1295              		.loc 1 308 0
 1296 05d0 40F20003 		movw	r3, #:lower16:packetBinary
 1297 05d4 C0F20003 		movt	r3, #:upper16:packetBinary
 1298 05d8 4FF00002 		mov	r2, #0
 1299 05dc 9A70     		strb	r2, [r3, #2]
 309:.\main.c      **** 								packetBinary[3] = 1;
 1300              		.loc 1 309 0
 1301 05de 40F20003 		movw	r3, #:lower16:packetBinary
 1302 05e2 C0F20003 		movt	r3, #:upper16:packetBinary
 1303 05e6 4FF00102 		mov	r2, #1
 1304 05ea DA70     		strb	r2, [r3, #3]
 1305 05ec 41E0     		b	.L50
 1306              	.L63:
 310:.\main.c      **** 							}else if(packetHex[l2] == 'E'){
 1307              		.loc 1 310 0
 1308 05ee 40F20003 		movw	r3, #:lower16:packetHex
 1309 05f2 C0F20003 		movt	r3, #:upper16:packetHex
 1310 05f6 3A69     		ldr	r2, [r7, #16]
 1311 05f8 9B18     		adds	r3, r3, r2
 1312 05fa 1B78     		ldrb	r3, [r3, #0]	@ zero_extendqisi2
 1313 05fc 452B     		cmp	r3, #69
 1314 05fe 1CD1     		bne	.L64
 311:.\main.c      **** 								packetBinary[0] = 1;
 1315              		.loc 1 311 0
 1316 0600 40F20003 		movw	r3, #:lower16:packetBinary
 1317 0604 C0F20003 		movt	r3, #:upper16:packetBinary
 1318 0608 4FF00102 		mov	r2, #1
 1319 060c 1A70     		strb	r2, [r3, #0]
 312:.\main.c      **** 								packetBinary[1] = 1;
 1320              		.loc 1 312 0
 1321 060e 40F20003 		movw	r3, #:lower16:packetBinary
 1322 0612 C0F20003 		movt	r3, #:upper16:packetBinary
 1323 0616 4FF00102 		mov	r2, #1
 1324 061a 5A70     		strb	r2, [r3, #1]
 313:.\main.c      **** 								packetBinary[2] = 1;
 1325              		.loc 1 313 0
 1326 061c 40F20003 		movw	r3, #:lower16:packetBinary
 1327 0620 C0F20003 		movt	r3, #:upper16:packetBinary
 1328 0624 4FF00102 		mov	r2, #1
 1329 0628 9A70     		strb	r2, [r3, #2]
 314:.\main.c      **** 								packetBinary[3] = 0;
 1330              		.loc 1 314 0
ARM GAS  C:\Users\makij\AppData\Local\Temp\ccllLF1a.s 			page 30


 1331 062a 40F20003 		movw	r3, #:lower16:packetBinary
 1332 062e C0F20003 		movt	r3, #:upper16:packetBinary
 1333 0632 4FF00002 		mov	r2, #0
 1334 0636 DA70     		strb	r2, [r3, #3]
 1335 0638 1BE0     		b	.L50
 1336              	.L64:
 315:.\main.c      **** 							}else {
 316:.\main.c      **** 								packetBinary[0] = 1;
 1337              		.loc 1 316 0
 1338 063a 40F20003 		movw	r3, #:lower16:packetBinary
 1339 063e C0F20003 		movt	r3, #:upper16:packetBinary
 1340 0642 4FF00102 		mov	r2, #1
 1341 0646 1A70     		strb	r2, [r3, #0]
 317:.\main.c      **** 								packetBinary[1] = 1;
 1342              		.loc 1 317 0
 1343 0648 40F20003 		movw	r3, #:lower16:packetBinary
 1344 064c C0F20003 		movt	r3, #:upper16:packetBinary
 1345 0650 4FF00102 		mov	r2, #1
 1346 0654 5A70     		strb	r2, [r3, #1]
 318:.\main.c      **** 								packetBinary[2] = 1;
 1347              		.loc 1 318 0
 1348 0656 40F20003 		movw	r3, #:lower16:packetBinary
 1349 065a C0F20003 		movt	r3, #:upper16:packetBinary
 1350 065e 4FF00102 		mov	r2, #1
 1351 0662 9A70     		strb	r2, [r3, #2]
 319:.\main.c      **** 								packetBinary[3] = 1;
 1352              		.loc 1 319 0
 1353 0664 40F20003 		movw	r3, #:lower16:packetBinary
 1354 0668 C0F20003 		movt	r3, #:upper16:packetBinary
 1355 066c 4FF00102 		mov	r2, #1
 1356 0670 DA70     		strb	r2, [r3, #3]
 1357              	.L50:
 320:.\main.c      **** 							}
 321:.\main.c      **** 						
 322:.\main.c      **** 							int l3;
 323:.\main.c      **** 							for(l3 = 0; l3 <4; l3++)
 1358              		.loc 1 323 0
 1359 0672 4FF00003 		mov	r3, #0
 1360 0676 FB60     		str	r3, [r7, #12]
 1361 0678 16E0     		b	.L65
 1362              	.L66:
 324:.\main.c      **** 							{
 325:.\main.c      **** 								packetSend[i_send + l3] = packetBinary[l3];
 1363              		.loc 1 325 0 discriminator 2
 1364 067a 40F20003 		movw	r3, #:lower16:i_send
 1365 067e C0F20003 		movt	r3, #:upper16:i_send
 1366 0682 1A68     		ldr	r2, [r3, #0]
 1367 0684 FB68     		ldr	r3, [r7, #12]
 1368 0686 D218     		adds	r2, r2, r3
 1369 0688 40F20003 		movw	r3, #:lower16:packetBinary
 1370 068c C0F20003 		movt	r3, #:upper16:packetBinary
 1371 0690 F968     		ldr	r1, [r7, #12]
 1372 0692 5B18     		adds	r3, r3, r1
 1373 0694 1978     		ldrb	r1, [r3, #0]	@ zero_extendqisi2
 1374 0696 40F20003 		movw	r3, #:lower16:packetSend
 1375 069a C0F20003 		movt	r3, #:upper16:packetSend
 1376 069e 9954     		strb	r1, [r3, r2]
ARM GAS  C:\Users\makij\AppData\Local\Temp\ccllLF1a.s 			page 31


 323:.\main.c      **** 							for(l3 = 0; l3 <4; l3++)
 1377              		.loc 1 323 0 discriminator 2
 1378 06a0 FB68     		ldr	r3, [r7, #12]
 1379 06a2 03F10103 		add	r3, r3, #1
 1380 06a6 FB60     		str	r3, [r7, #12]
 1381              	.L65:
 323:.\main.c      **** 							for(l3 = 0; l3 <4; l3++)
 1382              		.loc 1 323 0 is_stmt 0 discriminator 1
 1383 06a8 FB68     		ldr	r3, [r7, #12]
 1384 06aa 032B     		cmp	r3, #3
 1385 06ac E5DD     		ble	.L66
 326:.\main.c      **** 								
 327:.\main.c      **** 							}//generates binary values
 328:.\main.c      **** 							
 329:.\main.c      **** 							i_send++;
 1386              		.loc 1 329 0 is_stmt 1
 1387 06ae 40F20003 		movw	r3, #:lower16:i_send
 1388 06b2 C0F20003 		movt	r3, #:upper16:i_send
 1389 06b6 1B68     		ldr	r3, [r3, #0]
 1390 06b8 03F10102 		add	r2, r3, #1
 1391 06bc 40F20003 		movw	r3, #:lower16:i_send
 1392 06c0 C0F20003 		movt	r3, #:upper16:i_send
 1393 06c4 1A60     		str	r2, [r3, #0]
 1394              	.LBE3:
 237:.\main.c      **** 						for(l2 = 0; packetHex[l2] != '\0'; l2++)
 1395              		.loc 1 237 0
 1396 06c6 3B69     		ldr	r3, [r7, #16]
 1397 06c8 03F10103 		add	r3, r3, #1
 1398 06cc 3B61     		str	r3, [r7, #16]
 1399              	.L48:
 237:.\main.c      **** 						for(l2 = 0; packetHex[l2] != '\0'; l2++)
 1400              		.loc 1 237 0 is_stmt 0 discriminator 1
 1401 06ce 40F20003 		movw	r3, #:lower16:packetHex
 1402 06d2 C0F20003 		movt	r3, #:upper16:packetHex
 1403 06d6 3A69     		ldr	r2, [r7, #16]
 1404 06d8 9B18     		adds	r3, r3, r2
 1405 06da 1B78     		ldrb	r3, [r3, #0]	@ zero_extendqisi2
 1406 06dc 002B     		cmp	r3, #0
 1407 06de 7FF468AD 		bne	.L67
 226:.\main.c      **** 					for(l = 0; packetMessage[l] != '\0'; l++)
 1408              		.loc 1 226 0 is_stmt 1
 1409 06e2 7B69     		ldr	r3, [r7, #20]
 1410 06e4 03F10103 		add	r3, r3, #1
 1411 06e8 7B61     		str	r3, [r7, #20]
 1412              	.L47:
 226:.\main.c      **** 					for(l = 0; packetMessage[l] != '\0'; l++)
 1413              		.loc 1 226 0 is_stmt 0 discriminator 1
 1414 06ea 40F20003 		movw	r3, #:lower16:packetMessage
 1415 06ee C0F20003 		movt	r3, #:upper16:packetMessage
 1416 06f2 7A69     		ldr	r2, [r7, #20]
 1417 06f4 9B18     		adds	r3, r3, r2
 1418 06f6 1B78     		ldrb	r3, [r3, #0]	@ zero_extendqisi2
 1419 06f8 002B     		cmp	r3, #0
 1420 06fa 7FF43AAD 		bne	.L68
 330:.\main.c      **** 						}
 331:.\main.c      **** 					}
 332:.\main.c      **** 					dataReady = true;
ARM GAS  C:\Users\makij\AppData\Local\Temp\ccllLF1a.s 			page 32


 1421              		.loc 1 332 0 is_stmt 1
 1422 06fe 40F20003 		movw	r3, #:lower16:dataReady
 1423 0702 C0F20003 		movt	r3, #:upper16:dataReady
 1424 0706 4FF00102 		mov	r2, #1
 1425 070a 1A60     		str	r2, [r3, #0]
 1426              	.L39:
 1427              	.LBE2:
 333:.\main.c      **** 	        	}
 334:.\main.c      **** 				
 335:.\main.c      **** 				if(dataReady && messageReady){ 
 1428              		.loc 1 335 0
 1429 070c 40F20003 		movw	r3, #:lower16:dataReady
 1430 0710 C0F20003 		movt	r3, #:upper16:dataReady
 1431 0714 1B68     		ldr	r3, [r3, #0]
 1432 0716 002B     		cmp	r3, #0
 1433 0718 46D0     		beq	.L74
 1434              		.loc 1 335 0 is_stmt 0 discriminator 1
 1435 071a FB69     		ldr	r3, [r7, #28]
 1436 071c 002B     		cmp	r3, #0
 1437 071e 43D0     		beq	.L74
 1438              	.LBB4:
 336:.\main.c      **** 					i_send = 0;
 1439              		.loc 1 336 0 is_stmt 1
 1440 0720 40F20003 		movw	r3, #:lower16:i_send
 1441 0724 C0F20003 		movt	r3, #:upper16:i_send
 1442 0728 4FF00002 		mov	r2, #0
 1443 072c 1A60     		str	r2, [r3, #0]
 337:.\main.c      **** 					//Transm_Output_Write(0); /* uncomment this line to see that Output change on each key pressed
 338:.\main.c      **** 				//	USB_PutChar('\r');
 339:.\main.c      **** 				//	USB_PutChar('\n');
 340:.\main.c      **** 					int l2;
 341:.\main.c      **** 					for(l2 = 0; l2 <10; l2++){
 1444              		.loc 1 341 0
 1445 072e 4FF00003 		mov	r3, #0
 1446 0732 BB60     		str	r3, [r7, #8]
 1447 0734 0DE0     		b	.L70
 1448              	.L71:
 342:.\main.c      **** 					printbinchar(packetHex[l2]);
 1449              		.loc 1 342 0 discriminator 2
 1450 0736 40F20003 		movw	r3, #:lower16:packetHex
 1451 073a C0F20003 		movt	r3, #:upper16:packetHex
 1452 073e BA68     		ldr	r2, [r7, #8]
 1453 0740 9B18     		adds	r3, r3, r2
 1454 0742 1B78     		ldrb	r3, [r3, #0]	@ zero_extendqisi2
 1455 0744 1846     		mov	r0, r3
 1456 0746 FFF7FEFF 		bl	printbinchar
 341:.\main.c      **** 					for(l2 = 0; l2 <10; l2++){
 1457              		.loc 1 341 0 discriminator 2
 1458 074a BB68     		ldr	r3, [r7, #8]
 1459 074c 03F10103 		add	r3, r3, #1
 1460 0750 BB60     		str	r3, [r7, #8]
 1461              	.L70:
 341:.\main.c      **** 					for(l2 = 0; l2 <10; l2++){
 1462              		.loc 1 341 0 is_stmt 0 discriminator 1
 1463 0752 BB68     		ldr	r3, [r7, #8]
 1464 0754 092B     		cmp	r3, #9
 1465 0756 EEDD     		ble	.L71
ARM GAS  C:\Users\makij\AppData\Local\Temp\ccllLF1a.s 			page 33


 1466              	.LBE4:
 343:.\main.c      **** 					}
 344:.\main.c      **** 					//Timer_sendData_Enable();
 345:.\main.c      **** 					
 346:.\main.c      **** 				}
 347:.\main.c      **** 				break;
 1467              		.loc 1 347 0 is_stmt 1
 1468 0758 26E0     		b	.L74
 1469              	.L37:
 348:.\main.c      **** 			case BUSY:
 349:.\main.c      **** 				Pin_LEDBusy_Write(1);			
 1470              		.loc 1 349 0
 1471 075a 4FF00100 		mov	r0, #1
 1472 075e FFF7FEFF 		bl	Pin_LEDBusy_Write
 350:.\main.c      **** 				Pin_LEDIdle_Write(0);
 1473              		.loc 1 350 0
 1474 0762 4FF00000 		mov	r0, #0
 1475 0766 FFF7FEFF 		bl	Pin_LEDIdle_Write
 351:.\main.c      **** 				Pin_LEDCollision_Write(0);
 1476              		.loc 1 351 0
 1477 076a 4FF00000 		mov	r0, #0
 1478 076e FFF7FEFF 		bl	Pin_LEDCollision_Write
 352:.\main.c      **** 				break;
 1479              		.loc 1 352 0
 1480 0772 1AE0     		b	.L35
 1481              	.L38:
 353:.\main.c      **** 
 354:.\main.c      **** 			case COLLISION:	
 355:.\main.c      **** 				Timer_sendData_Sleep();
 1482              		.loc 1 355 0
 1483 0774 FFF7FEFF 		bl	Timer_sendData_Sleep
 356:.\main.c      **** 				Transm_Output_Write(1);
 1484              		.loc 1 356 0
 1485 0778 4FF00100 		mov	r0, #1
 1486 077c FFF7FEFF 		bl	Transm_Output_Write
 357:.\main.c      **** 				dataReady = false;
 1487              		.loc 1 357 0
 1488 0780 40F20003 		movw	r3, #:lower16:dataReady
 1489 0784 C0F20003 		movt	r3, #:upper16:dataReady
 1490 0788 4FF00002 		mov	r2, #0
 1491 078c 1A60     		str	r2, [r3, #0]
 358:.\main.c      **** 				Pin_LEDBusy_Write(0);			
 1492              		.loc 1 358 0
 1493 078e 4FF00000 		mov	r0, #0
 1494 0792 FFF7FEFF 		bl	Pin_LEDBusy_Write
 359:.\main.c      **** 				Pin_LEDIdle_Write(0);
 1495              		.loc 1 359 0
 1496 0796 4FF00000 		mov	r0, #0
 1497 079a FFF7FEFF 		bl	Pin_LEDIdle_Write
 360:.\main.c      **** 				Pin_LEDCollision_Write(1);
 1498              		.loc 1 360 0
 1499 079e 4FF00100 		mov	r0, #1
 1500 07a2 FFF7FEFF 		bl	Pin_LEDCollision_Write
 361:.\main.c      **** 				break;
 1501              		.loc 1 361 0
 1502 07a6 00E0     		b	.L35
 1503              	.L74:
ARM GAS  C:\Users\makij\AppData\Local\Temp\ccllLF1a.s 			page 34


 347:.\main.c      **** 				break;
 1504              		.loc 1 347 0
 1505 07a8 00BF     		nop
 1506              	.L35:
 362:.\main.c      **** 		}
 363:.\main.c      **** 	}
 1507              		.loc 1 363 0
 1508 07aa 31E4     		b	.L72
 1509              		.cfi_endproc
 1510              	.LFE66:
 1511              		.size	main, .-main
 1512              		.section	.rodata
 1513              		.align	2
 1514              	.LC0:
 1515 0000 57656C63 		.ascii	"Welcome\000"
 1515      6F6D6500 
 1516              		.section	.text.init,"ax",%progbits
 1517              		.align	2
 1518              		.global	init
 1519              		.thumb
 1520              		.thumb_func
 1521              		.type	init, %function
 1522              	init:
 1523              	.LFB67:
 364:.\main.c      **** }
 365:.\main.c      **** 
 366:.\main.c      **** void init()
 367:.\main.c      **** {	
 1524              		.loc 1 367 0
 1525              		.cfi_startproc
 1526              		@ args = 0, pretend = 0, frame = 0
 1527              		@ frame_needed = 1, uses_anonymous_args = 0
 1528 0000 80B5     		push	{r7, lr}
 1529              	.LCFI28:
 1530              		.cfi_def_cfa_offset 8
 1531              		.cfi_offset 7, -8
 1532              		.cfi_offset 14, -4
 1533 0002 00AF     		add	r7, sp, #0
 1534              	.LCFI29:
 1535              		.cfi_def_cfa_register 7
 368:.\main.c      **** 	LCD_Start();
 1536              		.loc 1 368 0
 1537 0004 FFF7FEFF 		bl	LCD_Start
 369:.\main.c      **** 	LCD_Position(0,0);
 1538              		.loc 1 369 0
 1539 0008 4FF00000 		mov	r0, #0
 1540 000c 4FF00001 		mov	r1, #0
 1541 0010 FFF7FEFF 		bl	LCD_Position
 370:.\main.c      **** 	LCD_PrintString("Welcome");
 1542              		.loc 1 370 0
 1543 0014 40F20000 		movw	r0, #:lower16:.LC0
 1544 0018 C0F20000 		movt	r0, #:upper16:.LC0
 1545 001c FFF7FEFF 		bl	LCD_PrintString
 371:.\main.c      **** 	
 372:.\main.c      **** 	
 373:.\main.c      **** 	Transm_Output_Write(1);
 1546              		.loc 1 373 0
ARM GAS  C:\Users\makij\AppData\Local\Temp\ccllLF1a.s 			page 35


 1547 0020 4FF00100 		mov	r0, #1
 1548 0024 FFF7FEFF 		bl	Transm_Output_Write
 374:.\main.c      **** 	//Enable Global Interrupts
 375:.\main.c      **** 	CYGlobalIntEnable;
 1549              		.loc 1 375 0
 1550              	@ 375 ".\main.c" 1
 1551 0028 62B6     		CPSIE   i
 1552              	@ 0 "" 2
 376:.\main.c      **** 	
 377:.\main.c      **** 	//Init isr
 378:.\main.c      **** 	isr_BusyToCollision_StartEx(isr_BusyToCollision);
 1553              		.loc 1 378 0
 1554              		.thumb
 1555 002a 40F20000 		movw	r0, #:lower16:isr_BusyToCollision
 1556 002e C0F20000 		movt	r0, #:upper16:isr_BusyToCollision
 1557 0032 FFF7FEFF 		bl	isr_BusyToCollision_StartEx
 379:.\main.c      **** 	isr_BusyToIdle_StartEx(isr_BusyToIdle);
 1558              		.loc 1 379 0
 1559 0036 40F20000 		movw	r0, #:lower16:isr_BusyToIdle
 1560 003a C0F20000 		movt	r0, #:upper16:isr_BusyToIdle
 1561 003e FFF7FEFF 		bl	isr_BusyToIdle_StartEx
 380:.\main.c      **** 	
 381:.\main.c      **** 	isr_RisingEdge_StartEx(isr_RisingEdgeDetected);
 1562              		.loc 1 381 0
 1563 0042 40F20000 		movw	r0, #:lower16:isr_RisingEdgeDetected
 1564 0046 C0F20000 		movt	r0, #:upper16:isr_RisingEdgeDetected
 1565 004a FFF7FEFF 		bl	isr_RisingEdge_StartEx
 382:.\main.c      **** 	isr_FallingEdge_StartEx(isr_FallingEdgeDetected);
 1566              		.loc 1 382 0
 1567 004e 40F20000 		movw	r0, #:lower16:isr_FallingEdgeDetected
 1568 0052 C0F20000 		movt	r0, #:upper16:isr_FallingEdgeDetected
 1569 0056 FFF7FEFF 		bl	isr_FallingEdge_StartEx
 383:.\main.c      **** 	
 384:.\main.c      **** 	Timer_sendData_Start();
 1570              		.loc 1 384 0
 1571 005a FFF7FEFF 		bl	Timer_sendData_Start
 385:.\main.c      **** 	Timer_sendData_Sleep();
 1572              		.loc 1 385 0
 1573 005e FFF7FEFF 		bl	Timer_sendData_Sleep
 386:.\main.c      **** 	
 387:.\main.c      **** 	
 388:.\main.c      **** 	isr_sendData_StartEx(isr_sendingData);
 1574              		.loc 1 388 0
 1575 0062 40F20000 		movw	r0, #:lower16:isr_sendingData
 1576 0066 C0F20000 		movt	r0, #:upper16:isr_sendingData
 1577 006a FFF7FEFF 		bl	isr_sendData_StartEx
 389:.\main.c      **** 	
 390:.\main.c      **** 	    /* Start USBFS Operation with 3V operation */
 391:.\main.c      ****     USB_Start(0u, USB_3V_OPERATION);
 1578              		.loc 1 391 0
 1579 006e 4FF00000 		mov	r0, #0
 1580 0072 4FF00001 		mov	r1, #0
 1581 0076 FFF7FEFF 		bl	USB_Start
 392:.\main.c      **** 	 /* Wait for Device to enumerate */
 393:.\main.c      ****     while(!USB_GetConfiguration());
 1582              		.loc 1 393 0
 1583 007a 00BF     		nop
ARM GAS  C:\Users\makij\AppData\Local\Temp\ccllLF1a.s 			page 36


 1584              	.L76:
 1585              		.loc 1 393 0 is_stmt 0 discriminator 1
 1586 007c FFF7FEFF 		bl	USB_GetConfiguration
 1587 0080 0346     		mov	r3, r0
 1588 0082 002B     		cmp	r3, #0
 1589 0084 FAD0     		beq	.L76
 394:.\main.c      **** 
 395:.\main.c      ****     /* Enumeration is done, enable OUT endpoint for receive data from Host */
 396:.\main.c      ****     USB_CDC_Init();
 1590              		.loc 1 396 0 is_stmt 1
 1591 0086 FFF7FEFF 		bl	USB_CDC_Init
 397:.\main.c      **** 	
 398:.\main.c      **** 	//Init Components
 399:.\main.c      **** 	//Timer_BusyToCollision_Start();
 400:.\main.c      **** 	//Timer_BusyToIdle_Start();
 401:.\main.c      **** 	
 402:.\main.c      **** }
 1592              		.loc 1 402 0
 1593 008a 80BD     		pop	{r7, pc}
 1594              		.cfi_endproc
 1595              	.LFE67:
 1596              		.size	init, .-init
 1597              		.text
 1598              	.Letext0:
 1599              		.file 2 "c:\\program files (x86)\\cypress\\psoc creator\\3.0\\psoc creator\\import\\gnu_cs\\arm\\4
 1600              		.file 3 "./Generated_Source/PSoC5/cytypes.h"
 1601              		.file 4 ".\\main.h"
 1602              		.file 5 "./Generated_Source/PSoC5/core_cm3.h"
 1603              		.section	.debug_info,"",%progbits
 1604              	.Ldebug_info0:
 1605 0000 89040000 		.4byte	0x489
 1606 0004 0200     		.2byte	0x2
 1607 0006 00000000 		.4byte	.Ldebug_abbrev0
 1608 000a 04       		.byte	0x4
 1609 000b 01       		.uleb128 0x1
 1610 000c 90010000 		.4byte	.LASF52
 1611 0010 01       		.byte	0x1
 1612 0011 F4020000 		.4byte	.LASF53
 1613 0015 58020000 		.4byte	.LASF54
 1614 0019 00000000 		.4byte	.Ldebug_ranges0+0
 1615 001d 00000000 		.4byte	0
 1616 0021 00000000 		.4byte	0
 1617 0025 00000000 		.4byte	.Ldebug_line0
 1618 0029 02       		.uleb128 0x2
 1619 002a 01       		.byte	0x1
 1620 002b 06       		.byte	0x6
 1621 002c 69000000 		.4byte	.LASF0
 1622 0030 02       		.uleb128 0x2
 1623 0031 01       		.byte	0x1
 1624 0032 08       		.byte	0x8
 1625 0033 EB000000 		.4byte	.LASF1
 1626 0037 02       		.uleb128 0x2
 1627 0038 02       		.byte	0x2
 1628 0039 05       		.byte	0x5
 1629 003a 0F000000 		.4byte	.LASF2
 1630 003e 02       		.uleb128 0x2
 1631 003f 02       		.byte	0x2
ARM GAS  C:\Users\makij\AppData\Local\Temp\ccllLF1a.s 			page 37


 1632 0040 07       		.byte	0x7
 1633 0041 D9010000 		.4byte	.LASF3
 1634 0045 03       		.uleb128 0x3
 1635 0046 20020000 		.4byte	.LASF9
 1636 004a 02       		.byte	0x2
 1637 004b 4F       		.byte	0x4f
 1638 004c 50000000 		.4byte	0x50
 1639 0050 02       		.uleb128 0x2
 1640 0051 04       		.byte	0x4
 1641 0052 05       		.byte	0x5
 1642 0053 BA000000 		.4byte	.LASF4
 1643 0057 02       		.uleb128 0x2
 1644 0058 04       		.byte	0x4
 1645 0059 07       		.byte	0x7
 1646 005a D5020000 		.4byte	.LASF5
 1647 005e 02       		.uleb128 0x2
 1648 005f 08       		.byte	0x8
 1649 0060 05       		.byte	0x5
 1650 0061 82000000 		.4byte	.LASF6
 1651 0065 02       		.uleb128 0x2
 1652 0066 08       		.byte	0x8
 1653 0067 07       		.byte	0x7
 1654 0068 27010000 		.4byte	.LASF7
 1655 006c 04       		.uleb128 0x4
 1656 006d 04       		.byte	0x4
 1657 006e 05       		.byte	0x5
 1658 006f 696E7400 		.ascii	"int\000"
 1659 0073 02       		.uleb128 0x2
 1660 0074 04       		.byte	0x4
 1661 0075 07       		.byte	0x7
 1662 0076 48010000 		.4byte	.LASF8
 1663 007a 03       		.uleb128 0x3
 1664 007b 52000000 		.4byte	.LASF10
 1665 007f 03       		.byte	0x3
 1666 0080 5B       		.byte	0x5b
 1667 0081 30000000 		.4byte	0x30
 1668 0085 03       		.uleb128 0x3
 1669 0086 35000000 		.4byte	.LASF11
 1670 008a 03       		.byte	0x3
 1671 008b 5C       		.byte	0x5c
 1672 008c 3E000000 		.4byte	0x3e
 1673 0090 02       		.uleb128 0x2
 1674 0091 04       		.byte	0x4
 1675 0092 04       		.byte	0x4
 1676 0093 7C000000 		.4byte	.LASF12
 1677 0097 02       		.uleb128 0x2
 1678 0098 08       		.byte	0x8
 1679 0099 04       		.byte	0x4
 1680 009a E7020000 		.4byte	.LASF13
 1681 009e 02       		.uleb128 0x2
 1682 009f 01       		.byte	0x1
 1683 00a0 08       		.byte	0x8
 1684 00a1 FE010000 		.4byte	.LASF14
 1685 00a5 02       		.uleb128 0x2
 1686 00a6 04       		.byte	0x4
 1687 00a7 07       		.byte	0x7
 1688 00a8 19000000 		.4byte	.LASF15
ARM GAS  C:\Users\makij\AppData\Local\Temp\ccllLF1a.s 			page 38


 1689 00ac 05       		.uleb128 0x5
 1690 00ad 04       		.byte	0x4
 1691 00ae 9E000000 		.4byte	0x9e
 1692 00b2 06       		.uleb128 0x6
 1693 00b3 7A000000 		.4byte	0x7a
 1694 00b7 C2000000 		.4byte	0xc2
 1695 00bb 07       		.uleb128 0x7
 1696 00bc A5000000 		.4byte	0xa5
 1697 00c0 03       		.byte	0x3
 1698 00c1 00       		.byte	0
 1699 00c2 02       		.uleb128 0x2
 1700 00c3 08       		.byte	0x8
 1701 00c4 04       		.byte	0x4
 1702 00c5 D2000000 		.4byte	.LASF16
 1703 00c9 03       		.uleb128 0x3
 1704 00ca 5D000000 		.4byte	.LASF17
 1705 00ce 04       		.byte	0x4
 1706 00cf 1D       		.byte	0x1d
 1707 00d0 6C000000 		.4byte	0x6c
 1708 00d4 08       		.uleb128 0x8
 1709 00d5 01       		.byte	0x1
 1710 00d6 04       		.byte	0x4
 1711 00d7 1E       		.byte	0x1e
 1712 00d8 E9000000 		.4byte	0xe9
 1713 00dc 09       		.uleb128 0x9
 1714 00dd 55010000 		.4byte	.LASF18
 1715 00e1 00       		.sleb128 0
 1716 00e2 09       		.uleb128 0x9
 1717 00e3 35020000 		.4byte	.LASF19
 1718 00e7 01       		.sleb128 1
 1719 00e8 00       		.byte	0
 1720 00e9 08       		.uleb128 0x8
 1721 00ea 01       		.byte	0x1
 1722 00eb 04       		.byte	0x4
 1723 00ec 1F       		.byte	0x1f
 1724 00ed 04010000 		.4byte	0x104
 1725 00f1 09       		.uleb128 0x9
 1726 00f2 58000000 		.4byte	.LASF20
 1727 00f6 00       		.sleb128 0
 1728 00f7 09       		.uleb128 0x9
 1729 00f8 CD000000 		.4byte	.LASF21
 1730 00fc 01       		.sleb128 1
 1731 00fd 09       		.uleb128 0x9
 1732 00fe C3000000 		.4byte	.LASF22
 1733 0102 02       		.sleb128 2
 1734 0103 00       		.byte	0
 1735 0104 03       		.uleb128 0x3
 1736 0105 B4000000 		.4byte	.LASF23
 1737 0109 04       		.byte	0x4
 1738 010a 1F       		.byte	0x1f
 1739 010b E9000000 		.4byte	0xe9
 1740 010f 0A       		.uleb128 0xa
 1741 0110 01       		.byte	0x1
 1742 0111 83010000 		.4byte	.LASF29
 1743 0115 01       		.byte	0x1
 1744 0116 23       		.byte	0x23
 1745 0117 01       		.byte	0x1
ARM GAS  C:\Users\makij\AppData\Local\Temp\ccllLF1a.s 			page 39


 1746 0118 00000000 		.4byte	.LFB56
 1747 011c 38000000 		.4byte	.LFE56
 1748 0120 00000000 		.4byte	.LLST0
 1749 0124 01       		.byte	0x1
 1750 0125 44010000 		.4byte	0x144
 1751 0129 0B       		.uleb128 0xb
 1752 012a 6300     		.ascii	"c\000"
 1753 012c 01       		.byte	0x1
 1754 012d 23       		.byte	0x23
 1755 012e 9E000000 		.4byte	0x9e
 1756 0132 02       		.byte	0x2
 1757 0133 91       		.byte	0x91
 1758 0134 6F       		.sleb128 -17
 1759 0135 0C       		.uleb128 0xc
 1760 0136 F9000000 		.4byte	.LASF31
 1761 013a 01       		.byte	0x1
 1762 013b 25       		.byte	0x25
 1763 013c 6C000000 		.4byte	0x6c
 1764 0140 02       		.byte	0x2
 1765 0141 91       		.byte	0x91
 1766 0142 74       		.sleb128 -12
 1767 0143 00       		.byte	0
 1768 0144 0D       		.uleb128 0xd
 1769 0145 01       		.byte	0x1
 1770 0146 08020000 		.4byte	.LASF24
 1771 014a 01       		.byte	0x1
 1772 014b 2E       		.byte	0x2e
 1773 014c 01       		.byte	0x1
 1774 014d 00000000 		.4byte	.LFB57
 1775 0151 20000000 		.4byte	.LFE57
 1776 0155 38000000 		.4byte	.LLST1
 1777 0159 01       		.byte	0x1
 1778 015a 0D       		.uleb128 0xd
 1779 015b 01       		.byte	0x1
 1780 015c 01010000 		.4byte	.LASF25
 1781 0160 01       		.byte	0x1
 1782 0161 35       		.byte	0x35
 1783 0162 01       		.byte	0x1
 1784 0163 00000000 		.4byte	.LFB58
 1785 0167 20000000 		.4byte	.LFE58
 1786 016b 64000000 		.4byte	.LLST2
 1787 016f 01       		.byte	0x1
 1788 0170 0D       		.uleb128 0xd
 1789 0171 01       		.byte	0x1
 1790 0172 18010000 		.4byte	.LASF26
 1791 0176 01       		.byte	0x1
 1792 0177 3D       		.byte	0x3d
 1793 0178 01       		.byte	0x1
 1794 0179 00000000 		.4byte	.LFB59
 1795 017d 1C000000 		.4byte	.LFE59
 1796 0181 90000000 		.4byte	.LLST3
 1797 0185 01       		.byte	0x1
 1798 0186 0D       		.uleb128 0xd
 1799 0187 01       		.byte	0x1
 1800 0188 44020000 		.4byte	.LASF27
 1801 018c 01       		.byte	0x1
 1802 018d 44       		.byte	0x44
ARM GAS  C:\Users\makij\AppData\Local\Temp\ccllLF1a.s 			page 40


 1803 018e 01       		.byte	0x1
 1804 018f 00000000 		.4byte	.LFB60
 1805 0193 1C000000 		.4byte	.LFE60
 1806 0197 BC000000 		.4byte	.LLST4
 1807 019b 01       		.byte	0x1
 1808 019c 0D       		.uleb128 0xd
 1809 019d 01       		.byte	0x1
 1810 019e 90000000 		.4byte	.LASF28
 1811 01a2 01       		.byte	0x1
 1812 01a3 4A       		.byte	0x4a
 1813 01a4 01       		.byte	0x1
 1814 01a5 00000000 		.4byte	.LFB61
 1815 01a9 38000000 		.4byte	.LFE61
 1816 01ad E8000000 		.4byte	.LLST5
 1817 01b1 01       		.byte	0x1
 1818 01b2 0A       		.uleb128 0xa
 1819 01b3 01       		.byte	0x1
 1820 01b4 1A030000 		.4byte	.LASF30
 1821 01b8 01       		.byte	0x1
 1822 01b9 53       		.byte	0x53
 1823 01ba 01       		.byte	0x1
 1824 01bb 00000000 		.4byte	.LFB62
 1825 01bf C8000000 		.4byte	.LFE62
 1826 01c3 14010000 		.4byte	.LLST6
 1827 01c7 01       		.byte	0x1
 1828 01c8 11020000 		.4byte	0x211
 1829 01cc 0B       		.uleb128 0xb
 1830 01cd 68657800 		.ascii	"hex\000"
 1831 01d1 01       		.byte	0x1
 1832 01d2 53       		.byte	0x53
 1833 01d3 AC000000 		.4byte	0xac
 1834 01d7 02       		.byte	0x2
 1835 01d8 91       		.byte	0x91
 1836 01d9 44       		.sleb128 -60
 1837 01da 0C       		.uleb128 0xc
 1838 01db 75000000 		.4byte	.LASF32
 1839 01df 01       		.byte	0x1
 1840 01e0 55       		.byte	0x55
 1841 01e1 6C000000 		.4byte	0x6c
 1842 01e5 02       		.byte	0x2
 1843 01e6 91       		.byte	0x91
 1844 01e7 5C       		.sleb128 -36
 1845 01e8 0C       		.uleb128 0xc
 1846 01e9 0A000000 		.4byte	.LASF33
 1847 01ed 01       		.byte	0x1
 1848 01ee 58       		.byte	0x58
 1849 01ef 11020000 		.4byte	0x211
 1850 01f3 03       		.byte	0x3
 1851 01f4 91       		.byte	0x91
 1852 01f5 4C       		.sleb128 -52
 1853 01f6 06       		.byte	0x6
 1854 01f7 0E       		.uleb128 0xe
 1855 01f8 6900     		.ascii	"i\000"
 1856 01fa 01       		.byte	0x1
 1857 01fb 5A       		.byte	0x5a
 1858 01fc 6C000000 		.4byte	0x6c
 1859 0200 02       		.byte	0x2
ARM GAS  C:\Users\makij\AppData\Local\Temp\ccllLF1a.s 			page 41


 1860 0201 91       		.byte	0x91
 1861 0202 58       		.sleb128 -40
 1862 0203 0E       		.uleb128 0xe
 1863 0204 693200   		.ascii	"i2\000"
 1864 0207 01       		.byte	0x1
 1865 0208 5A       		.byte	0x5a
 1866 0209 6C000000 		.4byte	0x6c
 1867 020d 02       		.byte	0x2
 1868 020e 91       		.byte	0x91
 1869 020f 54       		.sleb128 -44
 1870 0210 00       		.byte	0
 1871 0211 06       		.uleb128 0x6
 1872 0212 9E000000 		.4byte	0x9e
 1873 0216 24020000 		.4byte	0x224
 1874 021a 0F       		.uleb128 0xf
 1875 021b A5000000 		.4byte	0xa5
 1876 021f 03       		.byte	0x3
 1877 0220 91       		.byte	0x91
 1878 0221 50       		.sleb128 -48
 1879 0222 06       		.byte	0x6
 1880 0223 00       		.byte	0
 1881 0224 0A       		.uleb128 0xa
 1882 0225 01       		.byte	0x1
 1883 0226 EC010000 		.4byte	.LASF34
 1884 022a 01       		.byte	0x1
 1885 022b 62       		.byte	0x62
 1886 022c 01       		.byte	0x1
 1887 022d 00000000 		.4byte	.LFB63
 1888 0231 3E000000 		.4byte	.LFE63
 1889 0235 4E010000 		.4byte	.LLST7
 1890 0239 01       		.byte	0x1
 1891 023a 57020000 		.4byte	0x257
 1892 023e 0B       		.uleb128 0xb
 1893 023f 6300     		.ascii	"c\000"
 1894 0241 01       		.byte	0x1
 1895 0242 62       		.byte	0x62
 1896 0243 9E000000 		.4byte	0x9e
 1897 0247 02       		.byte	0x2
 1898 0248 91       		.byte	0x91
 1899 0249 6F       		.sleb128 -17
 1900 024a 0E       		.uleb128 0xe
 1901 024b 6900     		.ascii	"i\000"
 1902 024d 01       		.byte	0x1
 1903 024e 63       		.byte	0x63
 1904 024f 6C000000 		.4byte	0x6c
 1905 0253 02       		.byte	0x2
 1906 0254 91       		.byte	0x91
 1907 0255 74       		.sleb128 -12
 1908 0256 00       		.byte	0
 1909 0257 0A       		.uleb128 0xa
 1910 0258 01       		.byte	0x1
 1911 0259 A0000000 		.4byte	.LASF35
 1912 025d 01       		.byte	0x1
 1913 025e 69       		.byte	0x69
 1914 025f 01       		.byte	0x1
 1915 0260 00000000 		.4byte	.LFB64
 1916 0264 3C000000 		.4byte	.LFE64
ARM GAS  C:\Users\makij\AppData\Local\Temp\ccllLF1a.s 			page 42


 1917 0268 86010000 		.4byte	.LLST8
 1918 026c 01       		.byte	0x1
 1919 026d 7E020000 		.4byte	0x27e
 1920 0271 0B       		.uleb128 0xb
 1921 0272 7300     		.ascii	"s\000"
 1922 0274 01       		.byte	0x1
 1923 0275 69       		.byte	0x69
 1924 0276 AC000000 		.4byte	0xac
 1925 027a 02       		.byte	0x2
 1926 027b 91       		.byte	0x91
 1927 027c 74       		.sleb128 -12
 1928 027d 00       		.byte	0
 1929 027e 0A       		.uleb128 0xa
 1930 027f 01       		.byte	0x1
 1931 0280 68010000 		.4byte	.LASF36
 1932 0284 01       		.byte	0x1
 1933 0285 70       		.byte	0x70
 1934 0286 01       		.byte	0x1
 1935 0287 00000000 		.4byte	.LFB65
 1936 028b F8000000 		.4byte	.LFE65
 1937 028f BE010000 		.4byte	.LLST9
 1938 0293 01       		.byte	0x1
 1939 0294 CD020000 		.4byte	0x2cd
 1940 0298 0B       		.uleb128 0xb
 1941 0299 6E00     		.ascii	"n\000"
 1942 029b 01       		.byte	0x1
 1943 029c 70       		.byte	0x70
 1944 029d 6C000000 		.4byte	0x6c
 1945 02a1 02       		.byte	0x2
 1946 02a2 91       		.byte	0x91
 1947 02a3 6C       		.sleb128 -20
 1948 02a4 0B       		.uleb128 0xb
 1949 02a5 68657800 		.ascii	"hex\000"
 1950 02a9 01       		.byte	0x1
 1951 02aa 70       		.byte	0x70
 1952 02ab AC000000 		.4byte	0xac
 1953 02af 02       		.byte	0x2
 1954 02b0 91       		.byte	0x91
 1955 02b1 68       		.sleb128 -24
 1956 02b2 0E       		.uleb128 0xe
 1957 02b3 6900     		.ascii	"i\000"
 1958 02b5 01       		.byte	0x1
 1959 02b6 72       		.byte	0x72
 1960 02b7 6C000000 		.4byte	0x6c
 1961 02bb 02       		.byte	0x2
 1962 02bc 91       		.byte	0x91
 1963 02bd 74       		.sleb128 -12
 1964 02be 0E       		.uleb128 0xe
 1965 02bf 72656D00 		.ascii	"rem\000"
 1966 02c3 01       		.byte	0x1
 1967 02c4 72       		.byte	0x72
 1968 02c5 6C000000 		.4byte	0x6c
 1969 02c9 02       		.byte	0x2
 1970 02ca 91       		.byte	0x91
 1971 02cb 70       		.sleb128 -16
 1972 02cc 00       		.byte	0
 1973 02cd 10       		.uleb128 0x10
ARM GAS  C:\Users\makij\AppData\Local\Temp\ccllLF1a.s 			page 43


 1974 02ce 01       		.byte	0x1
 1975 02cf 30000000 		.4byte	.LASF37
 1976 02d3 01       		.byte	0x1
 1977 02d4 97       		.byte	0x97
 1978 02d5 6C000000 		.4byte	0x6c
 1979 02d9 00000000 		.4byte	.LFB66
 1980 02dd AC070000 		.4byte	.LFE66
 1981 02e1 F6010000 		.4byte	.LLST10
 1982 02e5 01       		.byte	0x1
 1983 02e6 6C030000 		.4byte	0x36c
 1984 02ea 0C       		.uleb128 0xc
 1985 02eb EE020000 		.4byte	.LASF38
 1986 02ef 01       		.byte	0x1
 1987 02f0 9B       		.byte	0x9b
 1988 02f1 85000000 		.4byte	0x85
 1989 02f5 02       		.byte	0x2
 1990 02f6 91       		.byte	0x91
 1991 02f7 5E       		.sleb128 -34
 1992 02f8 0C       		.uleb128 0xc
 1993 02f9 DE000000 		.4byte	.LASF39
 1994 02fd 01       		.byte	0x1
 1995 02fe 9C       		.byte	0x9c
 1996 02ff C9000000 		.4byte	0xc9
 1997 0303 02       		.byte	0x2
 1998 0304 91       		.byte	0x91
 1999 0305 74       		.sleb128 -12
 2000 0306 0C       		.uleb128 0xc
 2001 0307 74010000 		.4byte	.LASF40
 2002 030b 01       		.byte	0x1
 2003 030c 9D       		.byte	0x9d
 2004 030d 85000000 		.4byte	0x85
 2005 0311 02       		.byte	0x2
 2006 0312 91       		.byte	0x91
 2007 0313 72       		.sleb128 -14
 2008 0314 11       		.uleb128 0x11
 2009 0315 72000000 		.4byte	.LBB2
 2010 0319 0C070000 		.4byte	.LBE2
 2011 031d 53030000 		.4byte	0x353
 2012 0321 0E       		.uleb128 0xe
 2013 0322 6C00     		.ascii	"l\000"
 2014 0324 01       		.byte	0x1
 2015 0325 DE       		.byte	0xde
 2016 0326 6C000000 		.4byte	0x6c
 2017 032a 02       		.byte	0x2
 2018 032b 91       		.byte	0x91
 2019 032c 6C       		.sleb128 -20
 2020 032d 0E       		.uleb128 0xe
 2021 032e 6C3200   		.ascii	"l2\000"
 2022 0331 01       		.byte	0x1
 2023 0332 DE       		.byte	0xde
 2024 0333 6C000000 		.4byte	0x6c
 2025 0337 02       		.byte	0x2
 2026 0338 91       		.byte	0x91
 2027 0339 68       		.sleb128 -24
 2028 033a 12       		.uleb128 0x12
 2029 033b B2010000 		.4byte	.LBB3
 2030 033f C6060000 		.4byte	.LBE3
ARM GAS  C:\Users\makij\AppData\Local\Temp\ccllLF1a.s 			page 44


 2031 0343 13       		.uleb128 0x13
 2032 0344 6C3300   		.ascii	"l3\000"
 2033 0347 01       		.byte	0x1
 2034 0348 4201     		.2byte	0x142
 2035 034a 6C000000 		.4byte	0x6c
 2036 034e 02       		.byte	0x2
 2037 034f 91       		.byte	0x91
 2038 0350 64       		.sleb128 -28
 2039 0351 00       		.byte	0
 2040 0352 00       		.byte	0
 2041 0353 12       		.uleb128 0x12
 2042 0354 20070000 		.4byte	.LBB4
 2043 0358 58070000 		.4byte	.LBE4
 2044 035c 13       		.uleb128 0x13
 2045 035d 6C3200   		.ascii	"l2\000"
 2046 0360 01       		.byte	0x1
 2047 0361 5401     		.2byte	0x154
 2048 0363 6C000000 		.4byte	0x6c
 2049 0367 02       		.byte	0x2
 2050 0368 91       		.byte	0x91
 2051 0369 60       		.sleb128 -32
 2052 036a 00       		.byte	0
 2053 036b 00       		.byte	0
 2054 036c 14       		.uleb128 0x14
 2055 036d 01       		.byte	0x1
 2056 036e 03020000 		.4byte	.LASF55
 2057 0372 01       		.byte	0x1
 2058 0373 6E01     		.2byte	0x16e
 2059 0375 00000000 		.4byte	.LFB67
 2060 0379 8C000000 		.4byte	.LFE67
 2061 037d 2E020000 		.4byte	.LLST11
 2062 0381 01       		.byte	0x1
 2063 0382 15       		.uleb128 0x15
 2064 0383 0D030000 		.4byte	.LASF41
 2065 0387 05       		.byte	0x5
 2066 0388 1606     		.2byte	0x616
 2067 038a 90030000 		.4byte	0x390
 2068 038e 01       		.byte	0x1
 2069 038f 01       		.byte	0x1
 2070 0390 16       		.uleb128 0x16
 2071 0391 45000000 		.4byte	0x45
 2072 0395 17       		.uleb128 0x17
 2073 0396 28020000 		.4byte	.LASF42
 2074 039a 01       		.byte	0x1
 2075 039b 15       		.byte	0x15
 2076 039c 04010000 		.4byte	0x104
 2077 03a0 01       		.byte	0x1
 2078 03a1 05       		.byte	0x5
 2079 03a2 03       		.byte	0x3
 2080 03a3 00000000 		.4byte	currentState
 2081 03a7 06       		.uleb128 0x6
 2082 03a8 9E000000 		.4byte	0x9e
 2083 03ac B7030000 		.4byte	0x3b7
 2084 03b0 07       		.uleb128 0x7
 2085 03b1 A5000000 		.4byte	0xa5
 2086 03b5 4F       		.byte	0x4f
 2087 03b6 00       		.byte	0
ARM GAS  C:\Users\makij\AppData\Local\Temp\ccllLF1a.s 			page 45


 2088 03b7 17       		.uleb128 0x17
 2089 03b8 00000000 		.4byte	.LASF43
 2090 03bc 01       		.byte	0x1
 2091 03bd 18       		.byte	0x18
 2092 03be A7030000 		.4byte	0x3a7
 2093 03c2 01       		.byte	0x1
 2094 03c3 05       		.byte	0x5
 2095 03c4 03       		.byte	0x3
 2096 03c5 00000000 		.4byte	packetUSB
 2097 03c9 17       		.uleb128 0x17
 2098 03ca 22000000 		.4byte	.LASF44
 2099 03ce 01       		.byte	0x1
 2100 03cf 19       		.byte	0x19
 2101 03d0 A7030000 		.4byte	0x3a7
 2102 03d4 01       		.byte	0x1
 2103 03d5 05       		.byte	0x5
 2104 03d6 03       		.byte	0x3
 2105 03d7 00000000 		.4byte	packetMessage
 2106 03db 06       		.uleb128 0x6
 2107 03dc 9E000000 		.4byte	0x9e
 2108 03e0 EB030000 		.4byte	0x3eb
 2109 03e4 07       		.uleb128 0x7
 2110 03e5 A5000000 		.4byte	0xa5
 2111 03e9 9F       		.byte	0x9f
 2112 03ea 00       		.byte	0
 2113 03eb 17       		.uleb128 0x17
 2114 03ec 3E010000 		.4byte	.LASF45
 2115 03f0 01       		.byte	0x1
 2116 03f1 1A       		.byte	0x1a
 2117 03f2 DB030000 		.4byte	0x3db
 2118 03f6 01       		.byte	0x1
 2119 03f7 05       		.byte	0x5
 2120 03f8 03       		.byte	0x3
 2121 03f9 00000000 		.4byte	packetHex
 2122 03fd 17       		.uleb128 0x17
 2123 03fe 5B010000 		.4byte	.LASF46
 2124 0402 01       		.byte	0x1
 2125 0403 1B       		.byte	0x1b
 2126 0404 B2000000 		.4byte	0xb2
 2127 0408 01       		.byte	0x1
 2128 0409 05       		.byte	0x5
 2129 040a 03       		.byte	0x3
 2130 040b 00000000 		.4byte	packetBinary
 2131 040f 06       		.uleb128 0x6
 2132 0410 7A000000 		.4byte	0x7a
 2133 0414 20040000 		.4byte	0x420
 2134 0418 18       		.uleb128 0x18
 2135 0419 A5000000 		.4byte	0xa5
 2136 041d 7F02     		.2byte	0x27f
 2137 041f 00       		.byte	0
 2138 0420 17       		.uleb128 0x17
 2139 0421 FD020000 		.4byte	.LASF47
 2140 0425 01       		.byte	0x1
 2141 0426 1C       		.byte	0x1c
 2142 0427 0F040000 		.4byte	0x40f
 2143 042b 01       		.byte	0x1
 2144 042c 05       		.byte	0x5
ARM GAS  C:\Users\makij\AppData\Local\Temp\ccllLF1a.s 			page 46


 2145 042d 03       		.byte	0x3
 2146 042e 00000000 		.4byte	packetSend
 2147 0432 19       		.uleb128 0x19
 2148 0433 64656300 		.ascii	"dec\000"
 2149 0437 01       		.byte	0x1
 2150 0438 1D       		.byte	0x1d
 2151 0439 7A000000 		.4byte	0x7a
 2152 043d 01       		.byte	0x1
 2153 043e 05       		.byte	0x5
 2154 043f 03       		.byte	0x3
 2155 0440 00000000 		.4byte	dec
 2156 0444 17       		.uleb128 0x17
 2157 0445 08030000 		.4byte	.LASF48
 2158 0449 01       		.byte	0x1
 2159 044a 1E       		.byte	0x1e
 2160 044b 7A000000 		.4byte	0x7a
 2161 044f 01       		.byte	0x1
 2162 0450 05       		.byte	0x5
 2163 0451 03       		.byte	0x3
 2164 0452 00000000 		.4byte	flag
 2165 0456 17       		.uleb128 0x17
 2166 0457 3A020000 		.4byte	.LASF49
 2167 045b 01       		.byte	0x1
 2168 045c 1F       		.byte	0x1f
 2169 045d C9000000 		.4byte	0xc9
 2170 0461 01       		.byte	0x1
 2171 0462 05       		.byte	0x5
 2172 0463 03       		.byte	0x3
 2173 0464 00000000 		.4byte	dataReady
 2174 0468 17       		.uleb128 0x17
 2175 0469 62000000 		.4byte	.LASF50
 2176 046d 01       		.byte	0x1
 2177 046e 20       		.byte	0x20
 2178 046f 6C000000 		.4byte	0x6c
 2179 0473 01       		.byte	0x1
 2180 0474 05       		.byte	0x5
 2181 0475 03       		.byte	0x3
 2182 0476 00000000 		.4byte	i_send
 2183 047a 17       		.uleb128 0x17
 2184 047b 3C000000 		.4byte	.LASF51
 2185 047f 01       		.byte	0x1
 2186 0480 21       		.byte	0x21
 2187 0481 7A000000 		.4byte	0x7a
 2188 0485 01       		.byte	0x1
 2189 0486 05       		.byte	0x5
 2190 0487 03       		.byte	0x3
 2191 0488 00000000 		.4byte	messageBufferPosition
 2192 048c 00       		.byte	0
 2193              		.section	.debug_abbrev,"",%progbits
 2194              	.Ldebug_abbrev0:
 2195 0000 01       		.uleb128 0x1
 2196 0001 11       		.uleb128 0x11
 2197 0002 01       		.byte	0x1
 2198 0003 25       		.uleb128 0x25
 2199 0004 0E       		.uleb128 0xe
 2200 0005 13       		.uleb128 0x13
 2201 0006 0B       		.uleb128 0xb
ARM GAS  C:\Users\makij\AppData\Local\Temp\ccllLF1a.s 			page 47


 2202 0007 03       		.uleb128 0x3
 2203 0008 0E       		.uleb128 0xe
 2204 0009 1B       		.uleb128 0x1b
 2205 000a 0E       		.uleb128 0xe
 2206 000b 55       		.uleb128 0x55
 2207 000c 06       		.uleb128 0x6
 2208 000d 11       		.uleb128 0x11
 2209 000e 01       		.uleb128 0x1
 2210 000f 52       		.uleb128 0x52
 2211 0010 01       		.uleb128 0x1
 2212 0011 10       		.uleb128 0x10
 2213 0012 06       		.uleb128 0x6
 2214 0013 00       		.byte	0
 2215 0014 00       		.byte	0
 2216 0015 02       		.uleb128 0x2
 2217 0016 24       		.uleb128 0x24
 2218 0017 00       		.byte	0
 2219 0018 0B       		.uleb128 0xb
 2220 0019 0B       		.uleb128 0xb
 2221 001a 3E       		.uleb128 0x3e
 2222 001b 0B       		.uleb128 0xb
 2223 001c 03       		.uleb128 0x3
 2224 001d 0E       		.uleb128 0xe
 2225 001e 00       		.byte	0
 2226 001f 00       		.byte	0
 2227 0020 03       		.uleb128 0x3
 2228 0021 16       		.uleb128 0x16
 2229 0022 00       		.byte	0
 2230 0023 03       		.uleb128 0x3
 2231 0024 0E       		.uleb128 0xe
 2232 0025 3A       		.uleb128 0x3a
 2233 0026 0B       		.uleb128 0xb
 2234 0027 3B       		.uleb128 0x3b
 2235 0028 0B       		.uleb128 0xb
 2236 0029 49       		.uleb128 0x49
 2237 002a 13       		.uleb128 0x13
 2238 002b 00       		.byte	0
 2239 002c 00       		.byte	0
 2240 002d 04       		.uleb128 0x4
 2241 002e 24       		.uleb128 0x24
 2242 002f 00       		.byte	0
 2243 0030 0B       		.uleb128 0xb
 2244 0031 0B       		.uleb128 0xb
 2245 0032 3E       		.uleb128 0x3e
 2246 0033 0B       		.uleb128 0xb
 2247 0034 03       		.uleb128 0x3
 2248 0035 08       		.uleb128 0x8
 2249 0036 00       		.byte	0
 2250 0037 00       		.byte	0
 2251 0038 05       		.uleb128 0x5
 2252 0039 0F       		.uleb128 0xf
 2253 003a 00       		.byte	0
 2254 003b 0B       		.uleb128 0xb
 2255 003c 0B       		.uleb128 0xb
 2256 003d 49       		.uleb128 0x49
 2257 003e 13       		.uleb128 0x13
 2258 003f 00       		.byte	0
ARM GAS  C:\Users\makij\AppData\Local\Temp\ccllLF1a.s 			page 48


 2259 0040 00       		.byte	0
 2260 0041 06       		.uleb128 0x6
 2261 0042 01       		.uleb128 0x1
 2262 0043 01       		.byte	0x1
 2263 0044 49       		.uleb128 0x49
 2264 0045 13       		.uleb128 0x13
 2265 0046 01       		.uleb128 0x1
 2266 0047 13       		.uleb128 0x13
 2267 0048 00       		.byte	0
 2268 0049 00       		.byte	0
 2269 004a 07       		.uleb128 0x7
 2270 004b 21       		.uleb128 0x21
 2271 004c 00       		.byte	0
 2272 004d 49       		.uleb128 0x49
 2273 004e 13       		.uleb128 0x13
 2274 004f 2F       		.uleb128 0x2f
 2275 0050 0B       		.uleb128 0xb
 2276 0051 00       		.byte	0
 2277 0052 00       		.byte	0
 2278 0053 08       		.uleb128 0x8
 2279 0054 04       		.uleb128 0x4
 2280 0055 01       		.byte	0x1
 2281 0056 0B       		.uleb128 0xb
 2282 0057 0B       		.uleb128 0xb
 2283 0058 3A       		.uleb128 0x3a
 2284 0059 0B       		.uleb128 0xb
 2285 005a 3B       		.uleb128 0x3b
 2286 005b 0B       		.uleb128 0xb
 2287 005c 01       		.uleb128 0x1
 2288 005d 13       		.uleb128 0x13
 2289 005e 00       		.byte	0
 2290 005f 00       		.byte	0
 2291 0060 09       		.uleb128 0x9
 2292 0061 28       		.uleb128 0x28
 2293 0062 00       		.byte	0
 2294 0063 03       		.uleb128 0x3
 2295 0064 0E       		.uleb128 0xe
 2296 0065 1C       		.uleb128 0x1c
 2297 0066 0D       		.uleb128 0xd
 2298 0067 00       		.byte	0
 2299 0068 00       		.byte	0
 2300 0069 0A       		.uleb128 0xa
 2301 006a 2E       		.uleb128 0x2e
 2302 006b 01       		.byte	0x1
 2303 006c 3F       		.uleb128 0x3f
 2304 006d 0C       		.uleb128 0xc
 2305 006e 03       		.uleb128 0x3
 2306 006f 0E       		.uleb128 0xe
 2307 0070 3A       		.uleb128 0x3a
 2308 0071 0B       		.uleb128 0xb
 2309 0072 3B       		.uleb128 0x3b
 2310 0073 0B       		.uleb128 0xb
 2311 0074 27       		.uleb128 0x27
 2312 0075 0C       		.uleb128 0xc
 2313 0076 11       		.uleb128 0x11
 2314 0077 01       		.uleb128 0x1
 2315 0078 12       		.uleb128 0x12
ARM GAS  C:\Users\makij\AppData\Local\Temp\ccllLF1a.s 			page 49


 2316 0079 01       		.uleb128 0x1
 2317 007a 40       		.uleb128 0x40
 2318 007b 06       		.uleb128 0x6
 2319 007c 9642     		.uleb128 0x2116
 2320 007e 0C       		.uleb128 0xc
 2321 007f 01       		.uleb128 0x1
 2322 0080 13       		.uleb128 0x13
 2323 0081 00       		.byte	0
 2324 0082 00       		.byte	0
 2325 0083 0B       		.uleb128 0xb
 2326 0084 05       		.uleb128 0x5
 2327 0085 00       		.byte	0
 2328 0086 03       		.uleb128 0x3
 2329 0087 08       		.uleb128 0x8
 2330 0088 3A       		.uleb128 0x3a
 2331 0089 0B       		.uleb128 0xb
 2332 008a 3B       		.uleb128 0x3b
 2333 008b 0B       		.uleb128 0xb
 2334 008c 49       		.uleb128 0x49
 2335 008d 13       		.uleb128 0x13
 2336 008e 02       		.uleb128 0x2
 2337 008f 0A       		.uleb128 0xa
 2338 0090 00       		.byte	0
 2339 0091 00       		.byte	0
 2340 0092 0C       		.uleb128 0xc
 2341 0093 34       		.uleb128 0x34
 2342 0094 00       		.byte	0
 2343 0095 03       		.uleb128 0x3
 2344 0096 0E       		.uleb128 0xe
 2345 0097 3A       		.uleb128 0x3a
 2346 0098 0B       		.uleb128 0xb
 2347 0099 3B       		.uleb128 0x3b
 2348 009a 0B       		.uleb128 0xb
 2349 009b 49       		.uleb128 0x49
 2350 009c 13       		.uleb128 0x13
 2351 009d 02       		.uleb128 0x2
 2352 009e 0A       		.uleb128 0xa
 2353 009f 00       		.byte	0
 2354 00a0 00       		.byte	0
 2355 00a1 0D       		.uleb128 0xd
 2356 00a2 2E       		.uleb128 0x2e
 2357 00a3 00       		.byte	0
 2358 00a4 3F       		.uleb128 0x3f
 2359 00a5 0C       		.uleb128 0xc
 2360 00a6 03       		.uleb128 0x3
 2361 00a7 0E       		.uleb128 0xe
 2362 00a8 3A       		.uleb128 0x3a
 2363 00a9 0B       		.uleb128 0xb
 2364 00aa 3B       		.uleb128 0x3b
 2365 00ab 0B       		.uleb128 0xb
 2366 00ac 27       		.uleb128 0x27
 2367 00ad 0C       		.uleb128 0xc
 2368 00ae 11       		.uleb128 0x11
 2369 00af 01       		.uleb128 0x1
 2370 00b0 12       		.uleb128 0x12
 2371 00b1 01       		.uleb128 0x1
 2372 00b2 40       		.uleb128 0x40
ARM GAS  C:\Users\makij\AppData\Local\Temp\ccllLF1a.s 			page 50


 2373 00b3 06       		.uleb128 0x6
 2374 00b4 9642     		.uleb128 0x2116
 2375 00b6 0C       		.uleb128 0xc
 2376 00b7 00       		.byte	0
 2377 00b8 00       		.byte	0
 2378 00b9 0E       		.uleb128 0xe
 2379 00ba 34       		.uleb128 0x34
 2380 00bb 00       		.byte	0
 2381 00bc 03       		.uleb128 0x3
 2382 00bd 08       		.uleb128 0x8
 2383 00be 3A       		.uleb128 0x3a
 2384 00bf 0B       		.uleb128 0xb
 2385 00c0 3B       		.uleb128 0x3b
 2386 00c1 0B       		.uleb128 0xb
 2387 00c2 49       		.uleb128 0x49
 2388 00c3 13       		.uleb128 0x13
 2389 00c4 02       		.uleb128 0x2
 2390 00c5 0A       		.uleb128 0xa
 2391 00c6 00       		.byte	0
 2392 00c7 00       		.byte	0
 2393 00c8 0F       		.uleb128 0xf
 2394 00c9 21       		.uleb128 0x21
 2395 00ca 00       		.byte	0
 2396 00cb 49       		.uleb128 0x49
 2397 00cc 13       		.uleb128 0x13
 2398 00cd 2F       		.uleb128 0x2f
 2399 00ce 0A       		.uleb128 0xa
 2400 00cf 00       		.byte	0
 2401 00d0 00       		.byte	0
 2402 00d1 10       		.uleb128 0x10
 2403 00d2 2E       		.uleb128 0x2e
 2404 00d3 01       		.byte	0x1
 2405 00d4 3F       		.uleb128 0x3f
 2406 00d5 0C       		.uleb128 0xc
 2407 00d6 03       		.uleb128 0x3
 2408 00d7 0E       		.uleb128 0xe
 2409 00d8 3A       		.uleb128 0x3a
 2410 00d9 0B       		.uleb128 0xb
 2411 00da 3B       		.uleb128 0x3b
 2412 00db 0B       		.uleb128 0xb
 2413 00dc 49       		.uleb128 0x49
 2414 00dd 13       		.uleb128 0x13
 2415 00de 11       		.uleb128 0x11
 2416 00df 01       		.uleb128 0x1
 2417 00e0 12       		.uleb128 0x12
 2418 00e1 01       		.uleb128 0x1
 2419 00e2 40       		.uleb128 0x40
 2420 00e3 06       		.uleb128 0x6
 2421 00e4 9642     		.uleb128 0x2116
 2422 00e6 0C       		.uleb128 0xc
 2423 00e7 01       		.uleb128 0x1
 2424 00e8 13       		.uleb128 0x13
 2425 00e9 00       		.byte	0
 2426 00ea 00       		.byte	0
 2427 00eb 11       		.uleb128 0x11
 2428 00ec 0B       		.uleb128 0xb
 2429 00ed 01       		.byte	0x1
ARM GAS  C:\Users\makij\AppData\Local\Temp\ccllLF1a.s 			page 51


 2430 00ee 11       		.uleb128 0x11
 2431 00ef 01       		.uleb128 0x1
 2432 00f0 12       		.uleb128 0x12
 2433 00f1 01       		.uleb128 0x1
 2434 00f2 01       		.uleb128 0x1
 2435 00f3 13       		.uleb128 0x13
 2436 00f4 00       		.byte	0
 2437 00f5 00       		.byte	0
 2438 00f6 12       		.uleb128 0x12
 2439 00f7 0B       		.uleb128 0xb
 2440 00f8 01       		.byte	0x1
 2441 00f9 11       		.uleb128 0x11
 2442 00fa 01       		.uleb128 0x1
 2443 00fb 12       		.uleb128 0x12
 2444 00fc 01       		.uleb128 0x1
 2445 00fd 00       		.byte	0
 2446 00fe 00       		.byte	0
 2447 00ff 13       		.uleb128 0x13
 2448 0100 34       		.uleb128 0x34
 2449 0101 00       		.byte	0
 2450 0102 03       		.uleb128 0x3
 2451 0103 08       		.uleb128 0x8
 2452 0104 3A       		.uleb128 0x3a
 2453 0105 0B       		.uleb128 0xb
 2454 0106 3B       		.uleb128 0x3b
 2455 0107 05       		.uleb128 0x5
 2456 0108 49       		.uleb128 0x49
 2457 0109 13       		.uleb128 0x13
 2458 010a 02       		.uleb128 0x2
 2459 010b 0A       		.uleb128 0xa
 2460 010c 00       		.byte	0
 2461 010d 00       		.byte	0
 2462 010e 14       		.uleb128 0x14
 2463 010f 2E       		.uleb128 0x2e
 2464 0110 00       		.byte	0
 2465 0111 3F       		.uleb128 0x3f
 2466 0112 0C       		.uleb128 0xc
 2467 0113 03       		.uleb128 0x3
 2468 0114 0E       		.uleb128 0xe
 2469 0115 3A       		.uleb128 0x3a
 2470 0116 0B       		.uleb128 0xb
 2471 0117 3B       		.uleb128 0x3b
 2472 0118 05       		.uleb128 0x5
 2473 0119 11       		.uleb128 0x11
 2474 011a 01       		.uleb128 0x1
 2475 011b 12       		.uleb128 0x12
 2476 011c 01       		.uleb128 0x1
 2477 011d 40       		.uleb128 0x40
 2478 011e 06       		.uleb128 0x6
 2479 011f 9642     		.uleb128 0x2116
 2480 0121 0C       		.uleb128 0xc
 2481 0122 00       		.byte	0
 2482 0123 00       		.byte	0
 2483 0124 15       		.uleb128 0x15
 2484 0125 34       		.uleb128 0x34
 2485 0126 00       		.byte	0
 2486 0127 03       		.uleb128 0x3
ARM GAS  C:\Users\makij\AppData\Local\Temp\ccllLF1a.s 			page 52


 2487 0128 0E       		.uleb128 0xe
 2488 0129 3A       		.uleb128 0x3a
 2489 012a 0B       		.uleb128 0xb
 2490 012b 3B       		.uleb128 0x3b
 2491 012c 05       		.uleb128 0x5
 2492 012d 49       		.uleb128 0x49
 2493 012e 13       		.uleb128 0x13
 2494 012f 3F       		.uleb128 0x3f
 2495 0130 0C       		.uleb128 0xc
 2496 0131 3C       		.uleb128 0x3c
 2497 0132 0C       		.uleb128 0xc
 2498 0133 00       		.byte	0
 2499 0134 00       		.byte	0
 2500 0135 16       		.uleb128 0x16
 2501 0136 35       		.uleb128 0x35
 2502 0137 00       		.byte	0
 2503 0138 49       		.uleb128 0x49
 2504 0139 13       		.uleb128 0x13
 2505 013a 00       		.byte	0
 2506 013b 00       		.byte	0
 2507 013c 17       		.uleb128 0x17
 2508 013d 34       		.uleb128 0x34
 2509 013e 00       		.byte	0
 2510 013f 03       		.uleb128 0x3
 2511 0140 0E       		.uleb128 0xe
 2512 0141 3A       		.uleb128 0x3a
 2513 0142 0B       		.uleb128 0xb
 2514 0143 3B       		.uleb128 0x3b
 2515 0144 0B       		.uleb128 0xb
 2516 0145 49       		.uleb128 0x49
 2517 0146 13       		.uleb128 0x13
 2518 0147 3F       		.uleb128 0x3f
 2519 0148 0C       		.uleb128 0xc
 2520 0149 02       		.uleb128 0x2
 2521 014a 0A       		.uleb128 0xa
 2522 014b 00       		.byte	0
 2523 014c 00       		.byte	0
 2524 014d 18       		.uleb128 0x18
 2525 014e 21       		.uleb128 0x21
 2526 014f 00       		.byte	0
 2527 0150 49       		.uleb128 0x49
 2528 0151 13       		.uleb128 0x13
 2529 0152 2F       		.uleb128 0x2f
 2530 0153 05       		.uleb128 0x5
 2531 0154 00       		.byte	0
 2532 0155 00       		.byte	0
 2533 0156 19       		.uleb128 0x19
 2534 0157 34       		.uleb128 0x34
 2535 0158 00       		.byte	0
 2536 0159 03       		.uleb128 0x3
 2537 015a 08       		.uleb128 0x8
 2538 015b 3A       		.uleb128 0x3a
 2539 015c 0B       		.uleb128 0xb
 2540 015d 3B       		.uleb128 0x3b
 2541 015e 0B       		.uleb128 0xb
 2542 015f 49       		.uleb128 0x49
 2543 0160 13       		.uleb128 0x13
ARM GAS  C:\Users\makij\AppData\Local\Temp\ccllLF1a.s 			page 53


 2544 0161 3F       		.uleb128 0x3f
 2545 0162 0C       		.uleb128 0xc
 2546 0163 02       		.uleb128 0x2
 2547 0164 0A       		.uleb128 0xa
 2548 0165 00       		.byte	0
 2549 0166 00       		.byte	0
 2550 0167 00       		.byte	0
 2551              		.section	.debug_loc,"",%progbits
 2552              	.Ldebug_loc0:
 2553              	.LLST0:
 2554 0000 00000000 		.4byte	.LFB56
 2555 0004 02000000 		.4byte	.LCFI0
 2556 0008 0200     		.2byte	0x2
 2557 000a 7D       		.byte	0x7d
 2558 000b 00       		.sleb128 0
 2559 000c 02000000 		.4byte	.LCFI0
 2560 0010 04000000 		.4byte	.LCFI1
 2561 0014 0200     		.2byte	0x2
 2562 0016 7D       		.byte	0x7d
 2563 0017 08       		.sleb128 8
 2564 0018 04000000 		.4byte	.LCFI1
 2565 001c 06000000 		.4byte	.LCFI2
 2566 0020 0200     		.2byte	0x2
 2567 0022 7D       		.byte	0x7d
 2568 0023 18       		.sleb128 24
 2569 0024 06000000 		.4byte	.LCFI2
 2570 0028 38000000 		.4byte	.LFE56
 2571 002c 0200     		.2byte	0x2
 2572 002e 77       		.byte	0x77
 2573 002f 18       		.sleb128 24
 2574 0030 00000000 		.4byte	0
 2575 0034 00000000 		.4byte	0
 2576              	.LLST1:
 2577 0038 00000000 		.4byte	.LFB57
 2578 003c 02000000 		.4byte	.LCFI3
 2579 0040 0200     		.2byte	0x2
 2580 0042 7D       		.byte	0x7d
 2581 0043 00       		.sleb128 0
 2582 0044 02000000 		.4byte	.LCFI3
 2583 0048 04000000 		.4byte	.LCFI4
 2584 004c 0200     		.2byte	0x2
 2585 004e 7D       		.byte	0x7d
 2586 004f 08       		.sleb128 8
 2587 0050 04000000 		.4byte	.LCFI4
 2588 0054 20000000 		.4byte	.LFE57
 2589 0058 0200     		.2byte	0x2
 2590 005a 77       		.byte	0x77
 2591 005b 08       		.sleb128 8
 2592 005c 00000000 		.4byte	0
 2593 0060 00000000 		.4byte	0
 2594              	.LLST2:
 2595 0064 00000000 		.4byte	.LFB58
 2596 0068 02000000 		.4byte	.LCFI5
 2597 006c 0200     		.2byte	0x2
 2598 006e 7D       		.byte	0x7d
 2599 006f 00       		.sleb128 0
 2600 0070 02000000 		.4byte	.LCFI5
ARM GAS  C:\Users\makij\AppData\Local\Temp\ccllLF1a.s 			page 54


 2601 0074 04000000 		.4byte	.LCFI6
 2602 0078 0200     		.2byte	0x2
 2603 007a 7D       		.byte	0x7d
 2604 007b 08       		.sleb128 8
 2605 007c 04000000 		.4byte	.LCFI6
 2606 0080 20000000 		.4byte	.LFE58
 2607 0084 0200     		.2byte	0x2
 2608 0086 77       		.byte	0x77
 2609 0087 08       		.sleb128 8
 2610 0088 00000000 		.4byte	0
 2611 008c 00000000 		.4byte	0
 2612              	.LLST3:
 2613 0090 00000000 		.4byte	.LFB59
 2614 0094 02000000 		.4byte	.LCFI7
 2615 0098 0200     		.2byte	0x2
 2616 009a 7D       		.byte	0x7d
 2617 009b 00       		.sleb128 0
 2618 009c 02000000 		.4byte	.LCFI7
 2619 00a0 04000000 		.4byte	.LCFI8
 2620 00a4 0200     		.2byte	0x2
 2621 00a6 7D       		.byte	0x7d
 2622 00a7 08       		.sleb128 8
 2623 00a8 04000000 		.4byte	.LCFI8
 2624 00ac 1C000000 		.4byte	.LFE59
 2625 00b0 0200     		.2byte	0x2
 2626 00b2 77       		.byte	0x77
 2627 00b3 08       		.sleb128 8
 2628 00b4 00000000 		.4byte	0
 2629 00b8 00000000 		.4byte	0
 2630              	.LLST4:
 2631 00bc 00000000 		.4byte	.LFB60
 2632 00c0 02000000 		.4byte	.LCFI9
 2633 00c4 0200     		.2byte	0x2
 2634 00c6 7D       		.byte	0x7d
 2635 00c7 00       		.sleb128 0
 2636 00c8 02000000 		.4byte	.LCFI9
 2637 00cc 04000000 		.4byte	.LCFI10
 2638 00d0 0200     		.2byte	0x2
 2639 00d2 7D       		.byte	0x7d
 2640 00d3 08       		.sleb128 8
 2641 00d4 04000000 		.4byte	.LCFI10
 2642 00d8 1C000000 		.4byte	.LFE60
 2643 00dc 0200     		.2byte	0x2
 2644 00de 77       		.byte	0x77
 2645 00df 08       		.sleb128 8
 2646 00e0 00000000 		.4byte	0
 2647 00e4 00000000 		.4byte	0
 2648              	.LLST5:
 2649 00e8 00000000 		.4byte	.LFB61
 2650 00ec 02000000 		.4byte	.LCFI11
 2651 00f0 0200     		.2byte	0x2
 2652 00f2 7D       		.byte	0x7d
 2653 00f3 00       		.sleb128 0
 2654 00f4 02000000 		.4byte	.LCFI11
 2655 00f8 04000000 		.4byte	.LCFI12
 2656 00fc 0200     		.2byte	0x2
 2657 00fe 7D       		.byte	0x7d
ARM GAS  C:\Users\makij\AppData\Local\Temp\ccllLF1a.s 			page 55


 2658 00ff 08       		.sleb128 8
 2659 0100 04000000 		.4byte	.LCFI12
 2660 0104 38000000 		.4byte	.LFE61
 2661 0108 0200     		.2byte	0x2
 2662 010a 77       		.byte	0x77
 2663 010b 08       		.sleb128 8
 2664 010c 00000000 		.4byte	0
 2665 0110 00000000 		.4byte	0
 2666              	.LLST6:
 2667 0114 00000000 		.4byte	.LFB62
 2668 0118 04000000 		.4byte	.LCFI13
 2669 011c 0200     		.2byte	0x2
 2670 011e 7D       		.byte	0x7d
 2671 011f 00       		.sleb128 0
 2672 0120 04000000 		.4byte	.LCFI13
 2673 0124 06000000 		.4byte	.LCFI14
 2674 0128 0200     		.2byte	0x2
 2675 012a 7D       		.byte	0x7d
 2676 012b 1C       		.sleb128 28
 2677 012c 06000000 		.4byte	.LCFI14
 2678 0130 08000000 		.4byte	.LCFI15
 2679 0134 0300     		.2byte	0x3
 2680 0136 7D       		.byte	0x7d
 2681 0137 C000     		.sleb128 64
 2682 0139 08000000 		.4byte	.LCFI15
 2683 013d C8000000 		.4byte	.LFE62
 2684 0141 0300     		.2byte	0x3
 2685 0143 77       		.byte	0x77
 2686 0144 C000     		.sleb128 64
 2687 0146 00000000 		.4byte	0
 2688 014a 00000000 		.4byte	0
 2689              	.LLST7:
 2690 014e 00000000 		.4byte	.LFB63
 2691 0152 02000000 		.4byte	.LCFI16
 2692 0156 0200     		.2byte	0x2
 2693 0158 7D       		.byte	0x7d
 2694 0159 00       		.sleb128 0
 2695 015a 02000000 		.4byte	.LCFI16
 2696 015e 04000000 		.4byte	.LCFI17
 2697 0162 0200     		.2byte	0x2
 2698 0164 7D       		.byte	0x7d
 2699 0165 08       		.sleb128 8
 2700 0166 04000000 		.4byte	.LCFI17
 2701 016a 06000000 		.4byte	.LCFI18
 2702 016e 0200     		.2byte	0x2
 2703 0170 7D       		.byte	0x7d
 2704 0171 18       		.sleb128 24
 2705 0172 06000000 		.4byte	.LCFI18
 2706 0176 3E000000 		.4byte	.LFE63
 2707 017a 0200     		.2byte	0x2
 2708 017c 77       		.byte	0x77
 2709 017d 18       		.sleb128 24
 2710 017e 00000000 		.4byte	0
 2711 0182 00000000 		.4byte	0
 2712              	.LLST8:
 2713 0186 00000000 		.4byte	.LFB64
 2714 018a 02000000 		.4byte	.LCFI19
ARM GAS  C:\Users\makij\AppData\Local\Temp\ccllLF1a.s 			page 56


 2715 018e 0200     		.2byte	0x2
 2716 0190 7D       		.byte	0x7d
 2717 0191 00       		.sleb128 0
 2718 0192 02000000 		.4byte	.LCFI19
 2719 0196 04000000 		.4byte	.LCFI20
 2720 019a 0200     		.2byte	0x2
 2721 019c 7D       		.byte	0x7d
 2722 019d 08       		.sleb128 8
 2723 019e 04000000 		.4byte	.LCFI20
 2724 01a2 06000000 		.4byte	.LCFI21
 2725 01a6 0200     		.2byte	0x2
 2726 01a8 7D       		.byte	0x7d
 2727 01a9 10       		.sleb128 16
 2728 01aa 06000000 		.4byte	.LCFI21
 2729 01ae 3C000000 		.4byte	.LFE64
 2730 01b2 0200     		.2byte	0x2
 2731 01b4 77       		.byte	0x77
 2732 01b5 10       		.sleb128 16
 2733 01b6 00000000 		.4byte	0
 2734 01ba 00000000 		.4byte	0
 2735              	.LLST9:
 2736 01be 00000000 		.4byte	.LFB65
 2737 01c2 02000000 		.4byte	.LCFI22
 2738 01c6 0200     		.2byte	0x2
 2739 01c8 7D       		.byte	0x7d
 2740 01c9 00       		.sleb128 0
 2741 01ca 02000000 		.4byte	.LCFI22
 2742 01ce 04000000 		.4byte	.LCFI23
 2743 01d2 0200     		.2byte	0x2
 2744 01d4 7D       		.byte	0x7d
 2745 01d5 08       		.sleb128 8
 2746 01d6 04000000 		.4byte	.LCFI23
 2747 01da 06000000 		.4byte	.LCFI24
 2748 01de 0200     		.2byte	0x2
 2749 01e0 7D       		.byte	0x7d
 2750 01e1 18       		.sleb128 24
 2751 01e2 06000000 		.4byte	.LCFI24
 2752 01e6 F8000000 		.4byte	.LFE65
 2753 01ea 0200     		.2byte	0x2
 2754 01ec 77       		.byte	0x77
 2755 01ed 18       		.sleb128 24
 2756 01ee 00000000 		.4byte	0
 2757 01f2 00000000 		.4byte	0
 2758              	.LLST10:
 2759 01f6 00000000 		.4byte	.LFB66
 2760 01fa 02000000 		.4byte	.LCFI25
 2761 01fe 0200     		.2byte	0x2
 2762 0200 7D       		.byte	0x7d
 2763 0201 00       		.sleb128 0
 2764 0202 02000000 		.4byte	.LCFI25
 2765 0206 04000000 		.4byte	.LCFI26
 2766 020a 0200     		.2byte	0x2
 2767 020c 7D       		.byte	0x7d
 2768 020d 08       		.sleb128 8
 2769 020e 04000000 		.4byte	.LCFI26
 2770 0212 06000000 		.4byte	.LCFI27
 2771 0216 0200     		.2byte	0x2
ARM GAS  C:\Users\makij\AppData\Local\Temp\ccllLF1a.s 			page 57


 2772 0218 7D       		.byte	0x7d
 2773 0219 28       		.sleb128 40
 2774 021a 06000000 		.4byte	.LCFI27
 2775 021e AC070000 		.4byte	.LFE66
 2776 0222 0200     		.2byte	0x2
 2777 0224 77       		.byte	0x77
 2778 0225 28       		.sleb128 40
 2779 0226 00000000 		.4byte	0
 2780 022a 00000000 		.4byte	0
 2781              	.LLST11:
 2782 022e 00000000 		.4byte	.LFB67
 2783 0232 02000000 		.4byte	.LCFI28
 2784 0236 0200     		.2byte	0x2
 2785 0238 7D       		.byte	0x7d
 2786 0239 00       		.sleb128 0
 2787 023a 02000000 		.4byte	.LCFI28
 2788 023e 04000000 		.4byte	.LCFI29
 2789 0242 0200     		.2byte	0x2
 2790 0244 7D       		.byte	0x7d
 2791 0245 08       		.sleb128 8
 2792 0246 04000000 		.4byte	.LCFI29
 2793 024a 8C000000 		.4byte	.LFE67
 2794 024e 0200     		.2byte	0x2
 2795 0250 77       		.byte	0x77
 2796 0251 08       		.sleb128 8
 2797 0252 00000000 		.4byte	0
 2798 0256 00000000 		.4byte	0
 2799              		.section	.debug_aranges,"",%progbits
 2800 0000 74000000 		.4byte	0x74
 2801 0004 0200     		.2byte	0x2
 2802 0006 00000000 		.4byte	.Ldebug_info0
 2803 000a 04       		.byte	0x4
 2804 000b 00       		.byte	0
 2805 000c 0000     		.2byte	0
 2806 000e 0000     		.2byte	0
 2807 0010 00000000 		.4byte	.LFB56
 2808 0014 38000000 		.4byte	.LFE56-.LFB56
 2809 0018 00000000 		.4byte	.LFB57
 2810 001c 20000000 		.4byte	.LFE57-.LFB57
 2811 0020 00000000 		.4byte	.LFB58
 2812 0024 20000000 		.4byte	.LFE58-.LFB58
 2813 0028 00000000 		.4byte	.LFB59
 2814 002c 1C000000 		.4byte	.LFE59-.LFB59
 2815 0030 00000000 		.4byte	.LFB60
 2816 0034 1C000000 		.4byte	.LFE60-.LFB60
 2817 0038 00000000 		.4byte	.LFB61
 2818 003c 38000000 		.4byte	.LFE61-.LFB61
 2819 0040 00000000 		.4byte	.LFB62
 2820 0044 C8000000 		.4byte	.LFE62-.LFB62
 2821 0048 00000000 		.4byte	.LFB63
 2822 004c 3E000000 		.4byte	.LFE63-.LFB63
 2823 0050 00000000 		.4byte	.LFB64
 2824 0054 3C000000 		.4byte	.LFE64-.LFB64
 2825 0058 00000000 		.4byte	.LFB65
 2826 005c F8000000 		.4byte	.LFE65-.LFB65
 2827 0060 00000000 		.4byte	.LFB66
 2828 0064 AC070000 		.4byte	.LFE66-.LFB66
ARM GAS  C:\Users\makij\AppData\Local\Temp\ccllLF1a.s 			page 58


 2829 0068 00000000 		.4byte	.LFB67
 2830 006c 8C000000 		.4byte	.LFE67-.LFB67
 2831 0070 00000000 		.4byte	0
 2832 0074 00000000 		.4byte	0
 2833              		.section	.debug_ranges,"",%progbits
 2834              	.Ldebug_ranges0:
 2835 0000 00000000 		.4byte	.LFB56
 2836 0004 38000000 		.4byte	.LFE56
 2837 0008 00000000 		.4byte	.LFB57
 2838 000c 20000000 		.4byte	.LFE57
 2839 0010 00000000 		.4byte	.LFB58
 2840 0014 20000000 		.4byte	.LFE58
 2841 0018 00000000 		.4byte	.LFB59
 2842 001c 1C000000 		.4byte	.LFE59
 2843 0020 00000000 		.4byte	.LFB60
 2844 0024 1C000000 		.4byte	.LFE60
 2845 0028 00000000 		.4byte	.LFB61
 2846 002c 38000000 		.4byte	.LFE61
 2847 0030 00000000 		.4byte	.LFB62
 2848 0034 C8000000 		.4byte	.LFE62
 2849 0038 00000000 		.4byte	.LFB63
 2850 003c 3E000000 		.4byte	.LFE63
 2851 0040 00000000 		.4byte	.LFB64
 2852 0044 3C000000 		.4byte	.LFE64
 2853 0048 00000000 		.4byte	.LFB65
 2854 004c F8000000 		.4byte	.LFE65
 2855 0050 00000000 		.4byte	.LFB66
 2856 0054 AC070000 		.4byte	.LFE66
 2857 0058 00000000 		.4byte	.LFB67
 2858 005c 8C000000 		.4byte	.LFE67
 2859 0060 00000000 		.4byte	0
 2860 0064 00000000 		.4byte	0
 2861              		.section	.debug_line,"",%progbits
 2862              	.Ldebug_line0:
 2863 0000 5C030000 		.section	.debug_str,"MS",%progbits,1
 2863      02000501 
 2863      00000201 
 2863      FB0E0D00 
 2863      01010101 
 2864              	.LASF43:
 2865 0000 7061636B 		.ascii	"packetUSB\000"
 2865      65745553 
 2865      4200
 2866              	.LASF33:
 2867 000a 74656D70 		.ascii	"temp\000"
 2867      00
 2868              	.LASF2:
 2869 000f 73686F72 		.ascii	"short int\000"
 2869      7420696E 
 2869      7400
 2870              	.LASF15:
 2871 0019 73697A65 		.ascii	"sizetype\000"
 2871      74797065 
 2871      00
 2872              	.LASF44:
 2873 0022 7061636B 		.ascii	"packetMessage\000"
 2873      65744D65 
ARM GAS  C:\Users\makij\AppData\Local\Temp\ccllLF1a.s 			page 59


 2873      73736167 
 2873      6500
 2874              	.LASF37:
 2875 0030 6D61696E 		.ascii	"main\000"
 2875      00
 2876              	.LASF11:
 2877 0035 75696E74 		.ascii	"uint16\000"
 2877      313600
 2878              	.LASF51:
 2879 003c 6D657373 		.ascii	"messageBufferPosition\000"
 2879      61676542 
 2879      75666665 
 2879      72506F73 
 2879      6974696F 
 2880              	.LASF10:
 2881 0052 75696E74 		.ascii	"uint8\000"
 2881      3800
 2882              	.LASF20:
 2883 0058 49444C45 		.ascii	"IDLE\000"
 2883      00
 2884              	.LASF17:
 2885 005d 626F6F6C 		.ascii	"bool\000"
 2885      00
 2886              	.LASF50:
 2887 0062 695F7365 		.ascii	"i_send\000"
 2887      6E6400
 2888              	.LASF0:
 2889 0069 7369676E 		.ascii	"signed char\000"
 2889      65642063 
 2889      68617200 
 2890              	.LASF32:
 2891 0075 6C656E67 		.ascii	"length\000"
 2891      746800
 2892              	.LASF12:
 2893 007c 666C6F61 		.ascii	"float\000"
 2893      7400
 2894              	.LASF6:
 2895 0082 6C6F6E67 		.ascii	"long long int\000"
 2895      206C6F6E 
 2895      6720696E 
 2895      7400
 2896              	.LASF28:
 2897 0090 6973725F 		.ascii	"isr_sendingData\000"
 2897      73656E64 
 2897      696E6744 
 2897      61746100 
 2898              	.LASF35:
 2899 00a0 7072696E 		.ascii	"printStringAsBinary\000"
 2899      74537472 
 2899      696E6741 
 2899      7342696E 
 2899      61727900 
 2900              	.LASF23:
 2901 00b4 53746174 		.ascii	"State\000"
 2901      6500
 2902              	.LASF4:
 2903 00ba 6C6F6E67 		.ascii	"long int\000"
ARM GAS  C:\Users\makij\AppData\Local\Temp\ccllLF1a.s 			page 60


 2903      20696E74 
 2903      00
 2904              	.LASF22:
 2905 00c3 434F4C4C 		.ascii	"COLLISION\000"
 2905      4953494F 
 2905      4E00
 2906              	.LASF21:
 2907 00cd 42555359 		.ascii	"BUSY\000"
 2907      00
 2908              	.LASF16:
 2909 00d2 6C6F6E67 		.ascii	"long double\000"
 2909      20646F75 
 2909      626C6500 
 2910              	.LASF39:
 2911 00de 6D657373 		.ascii	"messageReady\000"
 2911      61676552 
 2911      65616479 
 2911      00
 2912              	.LASF1:
 2913 00eb 756E7369 		.ascii	"unsigned char\000"
 2913      676E6564 
 2913      20636861 
 2913      7200
 2914              	.LASF31:
 2915 00f9 636F756E 		.ascii	"counter\000"
 2915      74657200 
 2916              	.LASF25:
 2917 0101 6973725F 		.ascii	"isr_RisingEdgeDetected\000"
 2917      52697369 
 2917      6E674564 
 2917      67654465 
 2917      74656374 
 2918              	.LASF26:
 2919 0118 6973725F 		.ascii	"isr_BusyToIdle\000"
 2919      42757379 
 2919      546F4964 
 2919      6C6500
 2920              	.LASF7:
 2921 0127 6C6F6E67 		.ascii	"long long unsigned int\000"
 2921      206C6F6E 
 2921      6720756E 
 2921      7369676E 
 2921      65642069 
 2922              	.LASF45:
 2923 013e 7061636B 		.ascii	"packetHex\000"
 2923      65744865 
 2923      7800
 2924              	.LASF8:
 2925 0148 756E7369 		.ascii	"unsigned int\000"
 2925      676E6564 
 2925      20696E74 
 2925      00
 2926              	.LASF18:
 2927 0155 66616C73 		.ascii	"false\000"
 2927      6500
 2928              	.LASF46:
 2929 015b 7061636B 		.ascii	"packetBinary\000"
ARM GAS  C:\Users\makij\AppData\Local\Temp\ccllLF1a.s 			page 61


 2929      65744269 
 2929      6E617279 
 2929      00
 2930              	.LASF36:
 2931 0168 64656369 		.ascii	"decimal_hex\000"
 2931      6D616C5F 
 2931      68657800 
 2932              	.LASF40:
 2933 0174 666F724C 		.ascii	"forLoopCounter\000"
 2933      6F6F7043 
 2933      6F756E74 
 2933      657200
 2934              	.LASF29:
 2935 0183 7072696E 		.ascii	"printbinchar\000"
 2935      7462696E 
 2935      63686172 
 2935      00
 2936              	.LASF52:
 2937 0190 474E5520 		.ascii	"GNU C 4.7.3 20130312 (release) [ARM/embedded-4_7-br"
 2937      4320342E 
 2937      372E3320 
 2937      32303133 
 2937      30333132 
 2938 01c3 616E6368 		.ascii	"anch revision 196615]\000"
 2938      20726576 
 2938      6973696F 
 2938      6E203139 
 2938      36363135 
 2939              	.LASF3:
 2940 01d9 73686F72 		.ascii	"short unsigned int\000"
 2940      7420756E 
 2940      7369676E 
 2940      65642069 
 2940      6E7400
 2941              	.LASF34:
 2942 01ec 7072696E 		.ascii	"printCharAsBinary\000"
 2942      74436861 
 2942      72417342 
 2942      696E6172 
 2942      7900
 2943              	.LASF14:
 2944 01fe 63686172 		.ascii	"char\000"
 2944      00
 2945              	.LASF55:
 2946 0203 696E6974 		.ascii	"init\000"
 2946      00
 2947              	.LASF24:
 2948 0208 6973725F 		.ascii	"isr_FallingEdgeDetected\000"
 2948      46616C6C 
 2948      696E6745 
 2948      64676544 
 2948      65746563 
 2949              	.LASF9:
 2950 0220 696E7433 		.ascii	"int32_t\000"
 2950      325F7400 
 2951              	.LASF42:
 2952 0228 63757272 		.ascii	"currentState\000"
ARM GAS  C:\Users\makij\AppData\Local\Temp\ccllLF1a.s 			page 62


 2952      656E7453 
 2952      74617465 
 2952      00
 2953              	.LASF19:
 2954 0235 74727565 		.ascii	"true\000"
 2954      00
 2955              	.LASF49:
 2956 023a 64617461 		.ascii	"dataReady\000"
 2956      52656164 
 2956      7900
 2957              	.LASF27:
 2958 0244 6973725F 		.ascii	"isr_BusyToCollision\000"
 2958      42757379 
 2958      546F436F 
 2958      6C6C6973 
 2958      696F6E00 
 2959              	.LASF54:
 2960 0258 443A5C4D 		.ascii	"D:\\MSOE\\2014-2015\\Winter\\CE4950_021_Network\\la"
 2960      534F455C 
 2960      32303134 
 2960      2D323031 
 2960      355C5769 
 2961 0286 625C5072 		.ascii	"b\\Project\\ce4950Project\\Networking\\Networking P"
 2961      6F6A6563 
 2961      745C6365 
 2961      34393530 
 2961      50726F6A 
 2962 02b5 726F6A65 		.ascii	"roject\\Networking Project.cydsn\000"
 2962      63745C4E 
 2962      6574776F 
 2962      726B696E 
 2962      67205072 
 2963              	.LASF5:
 2964 02d5 6C6F6E67 		.ascii	"long unsigned int\000"
 2964      20756E73 
 2964      69676E65 
 2964      6420696E 
 2964      7400
 2965              	.LASF13:
 2966 02e7 646F7562 		.ascii	"double\000"
 2966      6C6500
 2967              	.LASF38:
 2968 02ee 636F756E 		.ascii	"count\000"
 2968      7400
 2969              	.LASF53:
 2970 02f4 2E5C6D61 		.ascii	".\\main.c\000"
 2970      696E2E63 
 2970      00
 2971              	.LASF47:
 2972 02fd 7061636B 		.ascii	"packetSend\000"
 2972      65745365 
 2972      6E6400
 2973              	.LASF48:
 2974 0308 666C6167 		.ascii	"flag\000"
 2974      00
 2975              	.LASF41:
 2976 030d 49544D5F 		.ascii	"ITM_RxBuffer\000"
ARM GAS  C:\Users\makij\AppData\Local\Temp\ccllLF1a.s 			page 63


 2976      52784275 
 2976      66666572 
 2976      00
 2977              	.LASF30:
 2978 031a 6D797374 		.ascii	"mystrrev\000"
 2978      72726576 
 2978      00
 2979              		.ident	"GCC: (GNU Tools for ARM Embedded Processors) 4.7.3 20130312 (release) [ARM/embedded-4_7-br
