ARM GAS  C:\Users\makij\AppData\Local\Temp\ccMehpYi.s 			page 1


   1              		.syntax unified
   2              		.cpu cortex-m3
   3              		.fpu softvfp
   4              		.eabi_attribute 20, 1
   5              		.eabi_attribute 21, 1
   6              		.eabi_attribute 23, 3
   7              		.eabi_attribute 24, 1
   8              		.eabi_attribute 25, 1
   9              		.eabi_attribute 26, 1
  10              		.eabi_attribute 30, 6
  11              		.eabi_attribute 34, 1
  12              		.eabi_attribute 18, 4
  13              		.thumb
  14              		.file	"main.c"
  15              		.text
  16              	.Ltext0:
  17              		.cfi_sections	.debug_frame
  18              		.global	currentState
  19              		.bss
  20              		.type	currentState, %object
  21              		.size	currentState, 1
  22              	currentState:
  23 0000 00       		.space	1
  24              		.comm	packetUSB,80,4
  25              		.comm	packetHex,160,4
  26              		.comm	packetBinary,4,4
  27              		.comm	packetSend,640,4
  28              		.comm	dec,1,1
  29              		.global	i_send
  30 0001 000000   		.align	2
  31              		.type	i_send, %object
  32              		.size	i_send, 4
  33              	i_send:
  34 0004 00000000 		.space	4
  35              		.section	.text.isr_FallingEdgeDetected,"ax",%progbits
  36              		.align	2
  37              		.global	isr_FallingEdgeDetected
  38              		.thumb
  39              		.thumb_func
  40              		.type	isr_FallingEdgeDetected, %function
  41              	isr_FallingEdgeDetected:
  42              	.LFB56:
  43              		.file 1 ".\\main.c"
   1:.\main.c      **** /* ========================================
   2:.\main.c      ****  *
   3:.\main.c      ****  * Copyright YOUR COMPANY, THE YEAR
   4:.\main.c      ****  * All Rights Reserved
   5:.\main.c      ****  * UNPUBLISHED, LICENSED SOFTWARE.
   6:.\main.c      ****  *
   7:.\main.c      ****  * CONFIDENTIAL AND PROPRIETARY INFORMATION
   8:.\main.c      ****  * WHICH IS THE PROPERTY OF your company.
   9:.\main.c      ****  *
  10:.\main.c      ****  * ========================================
  11:.\main.c      **** */
  12:.\main.c      **** #include <project.h>
  13:.\main.c      **** 
  14:.\main.c      **** #include <stdio.h>
ARM GAS  C:\Users\makij\AppData\Local\Temp\ccMehpYi.s 			page 2


  15:.\main.c      **** #include <stdlib.h>
  16:.\main.c      **** #include <math.h>
  17:.\main.c      **** 
  18:.\main.c      **** #include "main.h"
  19:.\main.c      **** 
  20:.\main.c      **** // the state variable
  21:.\main.c      **** State currentState = IDLE;
  22:.\main.c      **** 
  23:.\main.c      **** //usb and sending data
  24:.\main.c      **** uint8 packetUSB[80];
  25:.\main.c      **** uint8 packetHex[80*2];
  26:.\main.c      **** uint8 packetBinary[4];
  27:.\main.c      **** uint8 packetSend[80*8];
  28:.\main.c      **** uint8 dec;
  29:.\main.c      **** 
  30:.\main.c      **** int i_send = 0;
  31:.\main.c      **** 
  32:.\main.c      **** CY_ISR(isr_FallingEdgeDetected)
  33:.\main.c      **** {	
  44              		.loc 1 33 0
  45              		.cfi_startproc
  46              		@ args = 0, pretend = 0, frame = 0
  47              		@ frame_needed = 1, uses_anonymous_args = 0
  48 0000 80B5     		push	{r7, lr}
  49              	.LCFI0:
  50              		.cfi_def_cfa_offset 8
  51              		.cfi_offset 7, -8
  52              		.cfi_offset 14, -4
  53 0002 00AF     		add	r7, sp, #0
  54              	.LCFI1:
  55              		.cfi_def_cfa_register 7
  34:.\main.c      **** 	Timer_BusyToCollision_WriteCounter(11292);
  56              		.loc 1 34 0
  57 0004 42F61C40 		movw	r0, #11292
  58 0008 FFF7FEFF 		bl	Timer_BusyToCollision_WriteCounter
  35:.\main.c      **** 	currentState = BUSY;
  59              		.loc 1 35 0
  60 000c 40F20003 		movw	r3, #:lower16:currentState
  61 0010 C0F20003 		movt	r3, #:upper16:currentState
  62 0014 4FF00102 		mov	r2, #1
  63 0018 1A70     		strb	r2, [r3, #0]
  36:.\main.c      **** 	Timer_BusyToCollision_Start();
  64              		.loc 1 36 0
  65 001a FFF7FEFF 		bl	Timer_BusyToCollision_Start
  37:.\main.c      **** }
  66              		.loc 1 37 0
  67 001e 80BD     		pop	{r7, pc}
  68              		.cfi_endproc
  69              	.LFE56:
  70              		.size	isr_FallingEdgeDetected, .-isr_FallingEdgeDetected
  71              		.section	.text.isr_RisingEdgeDetected,"ax",%progbits
  72              		.align	2
  73              		.global	isr_RisingEdgeDetected
  74              		.thumb
  75              		.thumb_func
  76              		.type	isr_RisingEdgeDetected, %function
  77              	isr_RisingEdgeDetected:
ARM GAS  C:\Users\makij\AppData\Local\Temp\ccMehpYi.s 			page 3


  78              	.LFB57:
  38:.\main.c      **** 
  39:.\main.c      **** CY_ISR(isr_RisingEdgeDetected)
  40:.\main.c      **** {
  79              		.loc 1 40 0
  80              		.cfi_startproc
  81              		@ args = 0, pretend = 0, frame = 0
  82              		@ frame_needed = 1, uses_anonymous_args = 0
  83 0000 80B5     		push	{r7, lr}
  84              	.LCFI2:
  85              		.cfi_def_cfa_offset 8
  86              		.cfi_offset 7, -8
  87              		.cfi_offset 14, -4
  88 0002 00AF     		add	r7, sp, #0
  89              	.LCFI3:
  90              		.cfi_def_cfa_register 7
  41:.\main.c      **** 	Timer_BusyToIdle_WriteCounter(11292);
  91              		.loc 1 41 0
  92 0004 42F61C40 		movw	r0, #11292
  93 0008 FFF7FEFF 		bl	Timer_BusyToIdle_WriteCounter
  42:.\main.c      **** 	currentState = BUSY;
  94              		.loc 1 42 0
  95 000c 40F20003 		movw	r3, #:lower16:currentState
  96 0010 C0F20003 		movt	r3, #:upper16:currentState
  97 0014 4FF00102 		mov	r2, #1
  98 0018 1A70     		strb	r2, [r3, #0]
  43:.\main.c      **** 	Timer_BusyToIdle_Start();
  99              		.loc 1 43 0
 100 001a FFF7FEFF 		bl	Timer_BusyToIdle_Start
  44:.\main.c      **** }
 101              		.loc 1 44 0
 102 001e 80BD     		pop	{r7, pc}
 103              		.cfi_endproc
 104              	.LFE57:
 105              		.size	isr_RisingEdgeDetected, .-isr_RisingEdgeDetected
 106              		.section	.text.isr_BusyToIdle,"ax",%progbits
 107              		.align	2
 108              		.global	isr_BusyToIdle
 109              		.thumb
 110              		.thumb_func
 111              		.type	isr_BusyToIdle, %function
 112              	isr_BusyToIdle:
 113              	.LFB58:
  45:.\main.c      **** 
  46:.\main.c      **** // Fires when the line has been high too long, Back to Idle
  47:.\main.c      **** CY_ISR(isr_BusyToIdle)
  48:.\main.c      **** {
 114              		.loc 1 48 0
 115              		.cfi_startproc
 116              		@ args = 0, pretend = 0, frame = 0
 117              		@ frame_needed = 1, uses_anonymous_args = 0
 118 0000 80B5     		push	{r7, lr}
 119              	.LCFI4:
 120              		.cfi_def_cfa_offset 8
 121              		.cfi_offset 7, -8
 122              		.cfi_offset 14, -4
 123 0002 00AF     		add	r7, sp, #0
ARM GAS  C:\Users\makij\AppData\Local\Temp\ccMehpYi.s 			page 4


 124              	.LCFI5:
 125              		.cfi_def_cfa_register 7
  49:.\main.c      **** 	Timer_BusyToIdle_WriteCounter(11292);
 126              		.loc 1 49 0
 127 0004 42F61C40 		movw	r0, #11292
 128 0008 FFF7FEFF 		bl	Timer_BusyToIdle_WriteCounter
  50:.\main.c      **** 	currentState = IDLE;
 129              		.loc 1 50 0
 130 000c 40F20003 		movw	r3, #:lower16:currentState
 131 0010 C0F20003 		movt	r3, #:upper16:currentState
 132 0014 4FF00002 		mov	r2, #0
 133 0018 1A70     		strb	r2, [r3, #0]
  51:.\main.c      **** }
 134              		.loc 1 51 0
 135 001a 80BD     		pop	{r7, pc}
 136              		.cfi_endproc
 137              	.LFE58:
 138              		.size	isr_BusyToIdle, .-isr_BusyToIdle
 139              		.section	.text.isr_BusyToCollision,"ax",%progbits
 140              		.align	2
 141              		.global	isr_BusyToCollision
 142              		.thumb
 143              		.thumb_func
 144              		.type	isr_BusyToCollision, %function
 145              	isr_BusyToCollision:
 146              	.LFB59:
  52:.\main.c      **** 
  53:.\main.c      **** // Fires when the line has been low too long, Go to Collision
  54:.\main.c      **** CY_ISR(isr_BusyToCollision)
  55:.\main.c      **** {
 147              		.loc 1 55 0
 148              		.cfi_startproc
 149              		@ args = 0, pretend = 0, frame = 0
 150              		@ frame_needed = 1, uses_anonymous_args = 0
 151 0000 80B5     		push	{r7, lr}
 152              	.LCFI6:
 153              		.cfi_def_cfa_offset 8
 154              		.cfi_offset 7, -8
 155              		.cfi_offset 14, -4
 156 0002 00AF     		add	r7, sp, #0
 157              	.LCFI7:
 158              		.cfi_def_cfa_register 7
  56:.\main.c      **** 	Timer_BusyToCollision_WriteCounter(11292);
 159              		.loc 1 56 0
 160 0004 42F61C40 		movw	r0, #11292
 161 0008 FFF7FEFF 		bl	Timer_BusyToCollision_WriteCounter
  57:.\main.c      **** 	currentState = COLLISION;
 162              		.loc 1 57 0
 163 000c 40F20003 		movw	r3, #:lower16:currentState
 164 0010 C0F20003 		movt	r3, #:upper16:currentState
 165 0014 4FF00202 		mov	r2, #2
 166 0018 1A70     		strb	r2, [r3, #0]
  58:.\main.c      **** }
 167              		.loc 1 58 0
 168 001a 80BD     		pop	{r7, pc}
 169              		.cfi_endproc
 170              	.LFE59:
ARM GAS  C:\Users\makij\AppData\Local\Temp\ccMehpYi.s 			page 5


 171              		.size	isr_BusyToCollision, .-isr_BusyToCollision
 172              		.section	.rodata
 173              		.align	2
 174              	.LC0:
 175 0000 68657265 		.ascii	"here\000"
 175      00
 176 0005 000000   		.section	.text.isr_sendingData,"ax",%progbits
 177              		.align	2
 178              		.global	isr_sendingData
 179              		.thumb
 180              		.thumb_func
 181              		.type	isr_sendingData, %function
 182              	isr_sendingData:
 183              	.LFB60:
  59:.\main.c      **** 
  60:.\main.c      **** CY_ISR(isr_sendingData)
  61:.\main.c      **** {
 184              		.loc 1 61 0
 185              		.cfi_startproc
 186              		@ args = 0, pretend = 0, frame = 0
 187              		@ frame_needed = 1, uses_anonymous_args = 0
 188 0000 80B5     		push	{r7, lr}
 189              	.LCFI8:
 190              		.cfi_def_cfa_offset 8
 191              		.cfi_offset 7, -8
 192              		.cfi_offset 14, -4
 193 0002 00AF     		add	r7, sp, #0
 194              	.LCFI9:
 195              		.cfi_def_cfa_register 7
  62:.\main.c      **** 	LCD_PrintString("here");
 196              		.loc 1 62 0
 197 0004 40F20000 		movw	r0, #:lower16:.LC0
 198 0008 C0F20000 		movt	r0, #:upper16:.LC0
 199 000c FFF7FEFF 		bl	LCD_PrintString
  63:.\main.c      **** 	Transm_Output_Write(packetSend[i_send]);
 200              		.loc 1 63 0
 201 0010 40F20003 		movw	r3, #:lower16:i_send
 202 0014 C0F20003 		movt	r3, #:upper16:i_send
 203 0018 1A68     		ldr	r2, [r3, #0]
 204 001a 40F20003 		movw	r3, #:lower16:packetSend
 205 001e C0F20003 		movt	r3, #:upper16:packetSend
 206 0022 9B5C     		ldrb	r3, [r3, r2]	@ zero_extendqisi2
 207 0024 1846     		mov	r0, r3
 208 0026 FFF7FEFF 		bl	Transm_Output_Write
  64:.\main.c      **** 	i_send++;
 209              		.loc 1 64 0
 210 002a 40F20003 		movw	r3, #:lower16:i_send
 211 002e C0F20003 		movt	r3, #:upper16:i_send
 212 0032 1B68     		ldr	r3, [r3, #0]
 213 0034 03F10102 		add	r2, r3, #1
 214 0038 40F20003 		movw	r3, #:lower16:i_send
 215 003c C0F20003 		movt	r3, #:upper16:i_send
 216 0040 1A60     		str	r2, [r3, #0]
  65:.\main.c      **** }
 217              		.loc 1 65 0
 218 0042 80BD     		pop	{r7, pc}
 219              		.cfi_endproc
ARM GAS  C:\Users\makij\AppData\Local\Temp\ccMehpYi.s 			page 6


 220              	.LFE60:
 221              		.size	isr_sendingData, .-isr_sendingData
 222              		.section	.text.mystrrev,"ax",%progbits
 223              		.align	2
 224              		.global	mystrrev
 225              		.thumb
 226              		.thumb_func
 227              		.type	mystrrev, %function
 228              	mystrrev:
 229              	.LFB61:
  66:.\main.c      **** 
  67:.\main.c      **** void mystrrev(char hex[])
  68:.\main.c      **** {
 230              		.loc 1 68 0
 231              		.cfi_startproc
 232              		@ args = 0, pretend = 0, frame = 24
 233              		@ frame_needed = 1, uses_anonymous_args = 0
 234 0000 2DE9F043 		push	{r4, r5, r6, r7, r8, r9, lr}
 235              	.LCFI10:
 236              		.cfi_def_cfa_offset 28
 237              		.cfi_offset 4, -28
 238              		.cfi_offset 5, -24
 239              		.cfi_offset 6, -20
 240              		.cfi_offset 7, -16
 241              		.cfi_offset 8, -12
 242              		.cfi_offset 9, -8
 243              		.cfi_offset 14, -4
 244 0004 87B0     		sub	sp, sp, #28
 245              	.LCFI11:
 246              		.cfi_def_cfa_offset 56
 247 0006 00AF     		add	r7, sp, #0
 248              	.LCFI12:
 249              		.cfi_def_cfa_register 7
 250 0008 7860     		str	r0, [r7, #4]
  69:.\main.c      **** 	int length;
  70:.\main.c      **** 	for(length = 0; hex[length] != '\0'; ++length);
 251              		.loc 1 70 0
 252 000a 4FF00003 		mov	r3, #0
 253 000e 7B61     		str	r3, [r7, #20]
 254 0010 03E0     		b	.L7
 255              	.L8:
 256              		.loc 1 70 0 is_stmt 0 discriminator 2
 257 0012 7B69     		ldr	r3, [r7, #20]
 258 0014 03F10103 		add	r3, r3, #1
 259 0018 7B61     		str	r3, [r7, #20]
 260              	.L7:
 261              		.loc 1 70 0 discriminator 1
 262 001a 7B69     		ldr	r3, [r7, #20]
 263 001c 7A68     		ldr	r2, [r7, #4]
 264 001e D318     		adds	r3, r2, r3
 265 0020 1B78     		ldrb	r3, [r3, #0]	@ zero_extendqisi2
 266 0022 002B     		cmp	r3, #0
 267 0024 F5D1     		bne	.L8
  71:.\main.c      **** 	
  72:.\main.c      **** 	char temp[length];
 268              		.loc 1 72 0 is_stmt 1
 269 0026 7969     		ldr	r1, [r7, #20]
ARM GAS  C:\Users\makij\AppData\Local\Temp\ccMehpYi.s 			page 7


 270 0028 6B46     		mov	r3, sp
 271 002a 1E46     		mov	r6, r3
 272 002c 01F1FF33 		add	r3, r1, #-1
 273 0030 FB60     		str	r3, [r7, #12]
 274 0032 0846     		mov	r0, r1
 275 0034 0246     		mov	r2, r0
 276 0036 4FF00003 		mov	r3, #0
 277 003a 4FEA5270 		lsr	r0, r2, #29
 278 003e 4FEAC309 		lsl	r9, r3, #3
 279 0042 40EA0909 		orr	r9, r0, r9
 280 0046 4FEAC208 		lsl	r8, r2, #3
 281 004a 0846     		mov	r0, r1
 282 004c 0246     		mov	r2, r0
 283 004e 4FF00003 		mov	r3, #0
 284 0052 4FEA5270 		lsr	r0, r2, #29
 285 0056 4FEAC305 		lsl	r5, r3, #3
 286 005a 0543     		orrs	r5, r5, r0
 287 005c 4FEAC204 		lsl	r4, r2, #3
 288 0060 0B46     		mov	r3, r1
 289 0062 03F10703 		add	r3, r3, #7
 290 0066 4FEAD303 		lsr	r3, r3, #3
 291 006a 4FEAC303 		lsl	r3, r3, #3
 292 006e ADEB030D 		sub	sp, sp, r3
 293 0072 6B46     		mov	r3, sp
 294 0074 03F10003 		add	r3, r3, #0
 295 0078 BB60     		str	r3, [r7, #8]
  73:.\main.c      **** 	strcpy(temp, hex);
 296              		.loc 1 73 0
 297 007a BB68     		ldr	r3, [r7, #8]
 298 007c 1846     		mov	r0, r3
 299 007e 7968     		ldr	r1, [r7, #4]
 300 0080 FFF7FEFF 		bl	strcpy
  74:.\main.c      **** 	int i;
  75:.\main.c      **** 	for(i = 0; i <length; i++)
 301              		.loc 1 75 0
 302 0084 4FF00003 		mov	r3, #0
 303 0088 3B61     		str	r3, [r7, #16]
 304 008a 0FE0     		b	.L9
 305              	.L10:
  76:.\main.c      **** 	{
  77:.\main.c      **** 		hex[i] = temp[length];	
 306              		.loc 1 77 0 discriminator 2
 307 008c 3B69     		ldr	r3, [r7, #16]
 308 008e 7A68     		ldr	r2, [r7, #4]
 309 0090 D318     		adds	r3, r2, r3
 310 0092 B968     		ldr	r1, [r7, #8]
 311 0094 7A69     		ldr	r2, [r7, #20]
 312 0096 8A18     		adds	r2, r1, r2
 313 0098 1278     		ldrb	r2, [r2, #0]	@ zero_extendqisi2
 314 009a 1A70     		strb	r2, [r3, #0]
  78:.\main.c      **** 		length--;
 315              		.loc 1 78 0 discriminator 2
 316 009c 7B69     		ldr	r3, [r7, #20]
 317 009e 03F1FF33 		add	r3, r3, #-1
 318 00a2 7B61     		str	r3, [r7, #20]
  75:.\main.c      **** 	for(i = 0; i <length; i++)
 319              		.loc 1 75 0 discriminator 2
ARM GAS  C:\Users\makij\AppData\Local\Temp\ccMehpYi.s 			page 8


 320 00a4 3B69     		ldr	r3, [r7, #16]
 321 00a6 03F10103 		add	r3, r3, #1
 322 00aa 3B61     		str	r3, [r7, #16]
 323              	.L9:
  75:.\main.c      **** 	for(i = 0; i <length; i++)
 324              		.loc 1 75 0 is_stmt 0 discriminator 1
 325 00ac 3A69     		ldr	r2, [r7, #16]
 326 00ae 7B69     		ldr	r3, [r7, #20]
 327 00b0 9A42     		cmp	r2, r3
 328 00b2 EBDB     		blt	.L10
 329 00b4 B546     		mov	sp, r6
  79:.\main.c      **** 	}
  80:.\main.c      **** }
 330              		.loc 1 80 0 is_stmt 1
 331 00b6 07F11C07 		add	r7, r7, #28
 332 00ba BD46     		mov	sp, r7
 333 00bc BDE8F083 		pop	{r4, r5, r6, r7, r8, r9, pc}
 334              		.cfi_endproc
 335              	.LFE61:
 336              		.size	mystrrev, .-mystrrev
 337              		.section	.text.decimal_hex,"ax",%progbits
 338              		.align	2
 339              		.global	decimal_hex
 340              		.thumb
 341              		.thumb_func
 342              		.type	decimal_hex, %function
 343              	decimal_hex:
 344              	.LFB62:
  81:.\main.c      **** 
  82:.\main.c      **** void decimal_hex(int n, uint8 hex[]) /* Function to convert decimal to hexadecimal. */
  83:.\main.c      **** {
 345              		.loc 1 83 0
 346              		.cfi_startproc
 347              		@ args = 0, pretend = 0, frame = 16
 348              		@ frame_needed = 1, uses_anonymous_args = 0
 349 0000 80B5     		push	{r7, lr}
 350              	.LCFI13:
 351              		.cfi_def_cfa_offset 8
 352              		.cfi_offset 7, -8
 353              		.cfi_offset 14, -4
 354 0002 84B0     		sub	sp, sp, #16
 355              	.LCFI14:
 356              		.cfi_def_cfa_offset 24
 357 0004 00AF     		add	r7, sp, #0
 358              	.LCFI15:
 359              		.cfi_def_cfa_register 7
 360 0006 7860     		str	r0, [r7, #4]
 361 0008 3960     		str	r1, [r7, #0]
  84:.\main.c      ****     int i=0,rem;
 362              		.loc 1 84 0
 363 000a 4FF00003 		mov	r3, #0
 364 000e FB60     		str	r3, [r7, #12]
  85:.\main.c      ****     while (n!=0)
 365              		.loc 1 85 0
 366 0010 62E0     		b	.L12
 367              	.L24:
  86:.\main.c      ****     {
ARM GAS  C:\Users\makij\AppData\Local\Temp\ccMehpYi.s 			page 9


  87:.\main.c      ****         rem=n%16;
 368              		.loc 1 87 0
 369 0012 7A68     		ldr	r2, [r7, #4]
 370 0014 4FF00F03 		mov	r3, #15
 371 0018 C8F20003 		movt	r3, 32768
 372 001c 1340     		ands	r3, r3, r2
 373 001e 002B     		cmp	r3, #0
 374 0020 05DA     		bge	.L13
 375 0022 03F1FF33 		add	r3, r3, #-1
 376 0026 63F00F03 		orn	r3, r3, #15
 377 002a 03F10103 		add	r3, r3, #1
 378              	.L13:
 379 002e BB60     		str	r3, [r7, #8]
  88:.\main.c      ****         switch(rem)
 380              		.loc 1 88 0
 381 0030 BB68     		ldr	r3, [r7, #8]
 382 0032 A3F10A03 		sub	r3, r3, #10
 383 0036 052B     		cmp	r3, #5
 384 0038 38D8     		bhi	.L14
 385 003a 01A2     		adr	r2, .L21
 386 003c 52F823F0 		ldr	pc, [r2, r3, lsl #2]
 387              		.align	2
 388              	.L21:
 389 0040 59000000 		.word	.L15+1
 390 0044 67000000 		.word	.L16+1
 391 0048 75000000 		.word	.L17+1
 392 004c 83000000 		.word	.L18+1
 393 0050 91000000 		.word	.L19+1
 394 0054 9F000000 		.word	.L20+1
 395              	.L15:
  89:.\main.c      ****         {
  90:.\main.c      ****             case 10:
  91:.\main.c      ****               hex[i]='A';
 396              		.loc 1 91 0
 397 0058 FB68     		ldr	r3, [r7, #12]
 398 005a 3A68     		ldr	r2, [r7, #0]
 399 005c D318     		adds	r3, r2, r3
 400 005e 4FF04102 		mov	r2, #65
 401 0062 1A70     		strb	r2, [r3, #0]
  92:.\main.c      ****               break;
 402              		.loc 1 92 0
 403 0064 2CE0     		b	.L22
 404              	.L16:
  93:.\main.c      ****             case 11:
  94:.\main.c      ****               hex[i]='B';
 405              		.loc 1 94 0
 406 0066 FB68     		ldr	r3, [r7, #12]
 407 0068 3A68     		ldr	r2, [r7, #0]
 408 006a D318     		adds	r3, r2, r3
 409 006c 4FF04202 		mov	r2, #66
 410 0070 1A70     		strb	r2, [r3, #0]
  95:.\main.c      ****               break;
 411              		.loc 1 95 0
 412 0072 25E0     		b	.L22
 413              	.L17:
  96:.\main.c      ****             case 12:
  97:.\main.c      ****               hex[i]='C';
ARM GAS  C:\Users\makij\AppData\Local\Temp\ccMehpYi.s 			page 10


 414              		.loc 1 97 0
 415 0074 FB68     		ldr	r3, [r7, #12]
 416 0076 3A68     		ldr	r2, [r7, #0]
 417 0078 D318     		adds	r3, r2, r3
 418 007a 4FF04302 		mov	r2, #67
 419 007e 1A70     		strb	r2, [r3, #0]
  98:.\main.c      ****               break;
 420              		.loc 1 98 0
 421 0080 1EE0     		b	.L22
 422              	.L18:
  99:.\main.c      ****             case 13:
 100:.\main.c      ****               hex[i]='D';
 423              		.loc 1 100 0
 424 0082 FB68     		ldr	r3, [r7, #12]
 425 0084 3A68     		ldr	r2, [r7, #0]
 426 0086 D318     		adds	r3, r2, r3
 427 0088 4FF04402 		mov	r2, #68
 428 008c 1A70     		strb	r2, [r3, #0]
 101:.\main.c      ****               break;
 429              		.loc 1 101 0
 430 008e 17E0     		b	.L22
 431              	.L19:
 102:.\main.c      ****             case 14:
 103:.\main.c      ****               hex[i]='E';
 432              		.loc 1 103 0
 433 0090 FB68     		ldr	r3, [r7, #12]
 434 0092 3A68     		ldr	r2, [r7, #0]
 435 0094 D318     		adds	r3, r2, r3
 436 0096 4FF04502 		mov	r2, #69
 437 009a 1A70     		strb	r2, [r3, #0]
 104:.\main.c      ****               break;
 438              		.loc 1 104 0
 439 009c 10E0     		b	.L22
 440              	.L20:
 105:.\main.c      ****             case 15:
 106:.\main.c      ****               hex[i]='F';
 441              		.loc 1 106 0
 442 009e FB68     		ldr	r3, [r7, #12]
 443 00a0 3A68     		ldr	r2, [r7, #0]
 444 00a2 D318     		adds	r3, r2, r3
 445 00a4 4FF04602 		mov	r2, #70
 446 00a8 1A70     		strb	r2, [r3, #0]
 107:.\main.c      ****               break;
 447              		.loc 1 107 0
 448 00aa 09E0     		b	.L22
 449              	.L14:
 108:.\main.c      ****             default:
 109:.\main.c      ****               hex[i]=rem+'0';
 450              		.loc 1 109 0
 451 00ac FB68     		ldr	r3, [r7, #12]
 452 00ae 3A68     		ldr	r2, [r7, #0]
 453 00b0 D318     		adds	r3, r2, r3
 454 00b2 BA68     		ldr	r2, [r7, #8]
 455 00b4 D2B2     		uxtb	r2, r2
 456 00b6 02F13002 		add	r2, r2, #48
 457 00ba D2B2     		uxtb	r2, r2
 458 00bc 1A70     		strb	r2, [r3, #0]
ARM GAS  C:\Users\makij\AppData\Local\Temp\ccMehpYi.s 			page 11


 110:.\main.c      ****               break;
 459              		.loc 1 110 0
 460 00be 00BF     		nop
 461              	.L22:
 111:.\main.c      ****         }
 112:.\main.c      ****         ++i;
 462              		.loc 1 112 0
 463 00c0 FB68     		ldr	r3, [r7, #12]
 464 00c2 03F10103 		add	r3, r3, #1
 465 00c6 FB60     		str	r3, [r7, #12]
 113:.\main.c      ****         n/=16;
 466              		.loc 1 113 0
 467 00c8 7B68     		ldr	r3, [r7, #4]
 468 00ca 002B     		cmp	r3, #0
 469 00cc 01DA     		bge	.L23
 470 00ce 03F10F03 		add	r3, r3, #15
 471              	.L23:
 472 00d2 4FEA2313 		asr	r3, r3, #4
 473 00d6 7B60     		str	r3, [r7, #4]
 474              	.L12:
  85:.\main.c      ****     while (n!=0)
 475              		.loc 1 85 0 discriminator 1
 476 00d8 7B68     		ldr	r3, [r7, #4]
 477 00da 002B     		cmp	r3, #0
 478 00dc 99D1     		bne	.L24
 114:.\main.c      ****     }
 115:.\main.c      ****     hex[i]='\0';
 479              		.loc 1 115 0
 480 00de FB68     		ldr	r3, [r7, #12]
 481 00e0 3A68     		ldr	r2, [r7, #0]
 482 00e2 D318     		adds	r3, r2, r3
 483 00e4 4FF00002 		mov	r2, #0
 484 00e8 1A70     		strb	r2, [r3, #0]
 116:.\main.c      ****     mystrrev(hex);   /* Reverse string */
 485              		.loc 1 116 0
 486 00ea 3868     		ldr	r0, [r7, #0]
 487 00ec FFF7FEFF 		bl	mystrrev
 117:.\main.c      **** }
 488              		.loc 1 117 0
 489 00f0 07F11007 		add	r7, r7, #16
 490 00f4 BD46     		mov	sp, r7
 491 00f6 80BD     		pop	{r7, pc}
 492              		.cfi_endproc
 493              	.LFE62:
 494              		.size	decimal_hex, .-decimal_hex
 495              		.section	.text.main,"ax",%progbits
 496              		.align	2
 497              		.global	main
 498              		.thumb
 499              		.thumb_func
 500              		.type	main, %function
 501              	main:
 502              	.LFB63:
 118:.\main.c      **** 
 119:.\main.c      **** 
 120:.\main.c      **** 
 121:.\main.c      **** int main()
ARM GAS  C:\Users\makij\AppData\Local\Temp\ccMehpYi.s 			page 12


 122:.\main.c      **** {
 503              		.loc 1 122 0
 504              		.cfi_startproc
 505              		@ args = 0, pretend = 0, frame = 16
 506              		@ frame_needed = 1, uses_anonymous_args = 0
 507 0000 80B5     		push	{r7, lr}
 508              	.LCFI16:
 509              		.cfi_def_cfa_offset 8
 510              		.cfi_offset 7, -8
 511              		.cfi_offset 14, -4
 512 0002 84B0     		sub	sp, sp, #16
 513              	.LCFI17:
 514              		.cfi_def_cfa_offset 24
 515 0004 00AF     		add	r7, sp, #0
 516              	.LCFI18:
 517              		.cfi_def_cfa_register 7
 123:.\main.c      **** 	// Initialize all components
 124:.\main.c      **** 	init();
 518              		.loc 1 124 0
 519 0006 FFF7FEFF 		bl	init
 520              	.L56:
 125:.\main.c      **** 	uint16 count;
 126:.\main.c      **** 	// main program loop
 127:.\main.c      **** 	for(;;)
 128:.\main.c      ****     {
 129:.\main.c      **** 		// these states are switched in the various ISR's
 130:.\main.c      **** 		switch(currentState)
 521              		.loc 1 130 0
 522 000a 40F20003 		movw	r3, #:lower16:currentState
 523 000e C0F20003 		movt	r3, #:upper16:currentState
 524 0012 1B78     		ldrb	r3, [r3, #0]	@ zero_extendqisi2
 525 0014 012B     		cmp	r3, #1
 526 0016 00F01283 		beq	.L28
 527 001a 022B     		cmp	r3, #2
 528 001c 00F01C83 		beq	.L29
 529 0020 002B     		cmp	r3, #0
 530 0022 40F02983 		bne	.L26
 531              	.L27:
 131:.\main.c      **** 		{
 132:.\main.c      **** 			case IDLE:				
 133:.\main.c      **** 				Timer_sendData_Stop();
 532              		.loc 1 133 0
 533 0026 FFF7FEFF 		bl	Timer_sendData_Stop
 134:.\main.c      **** 				memset(packetSend,  0, (80*8));
 534              		.loc 1 134 0
 535 002a 40F20000 		movw	r0, #:lower16:packetSend
 536 002e C0F20000 		movt	r0, #:upper16:packetSend
 537 0032 4FF00001 		mov	r1, #0
 538 0036 4FF42072 		mov	r2, #640
 539 003a FFF7FEFF 		bl	memset
 135:.\main.c      **** 				Pin_LEDBusy_Write(0);			
 540              		.loc 1 135 0
 541 003e 4FF00000 		mov	r0, #0
 542 0042 FFF7FEFF 		bl	Pin_LEDBusy_Write
 136:.\main.c      **** 				Pin_LEDIdle_Write(1);
 543              		.loc 1 136 0
 544 0046 4FF00100 		mov	r0, #1
ARM GAS  C:\Users\makij\AppData\Local\Temp\ccMehpYi.s 			page 13


 545 004a FFF7FEFF 		bl	Pin_LEDIdle_Write
 137:.\main.c      **** 				Pin_LEDCollision_Write(0);
 546              		.loc 1 137 0
 547 004e 4FF00000 		mov	r0, #0
 548 0052 FFF7FEFF 		bl	Pin_LEDCollision_Write
 138:.\main.c      **** 				
 139:.\main.c      **** 				//check message from usb
 140:.\main.c      **** 				if(USB_DataIsReady() != 0u)               /* Check for input data from PC */
 549              		.loc 1 140 0
 550 0056 FFF7FEFF 		bl	USB_DataIsReady
 551 005a 0346     		mov	r3, r0
 552 005c 002B     		cmp	r3, #0
 553 005e 00F00A83 		beq	.L57
 554              	.LBB2:
 141:.\main.c      **** 	        	{   
 142:.\main.c      **** 		            count = USB_GetAll(packetUSB);           /* Read received data and re-enable OUT endp
 555              		.loc 1 142 0
 556 0062 40F20000 		movw	r0, #:lower16:packetUSB
 557 0066 C0F20000 		movt	r0, #:upper16:packetUSB
 558 006a FFF7FEFF 		bl	USB_GetAll
 559 006e 0346     		mov	r3, r0
 560 0070 7B80     		strh	r3, [r7, #2]	@ movhi
 143:.\main.c      **** 		            if(count != 0u)
 561              		.loc 1 143 0
 562 0072 7B88     		ldrh	r3, [r7, #2]
 563 0074 002B     		cmp	r3, #0
 564 0076 1CD0     		beq	.L31
 144:.\main.c      **** 		            {
 145:.\main.c      **** 		                while(USB_CDCIsReady() == 0u);    /* Wait till component is ready to send more da
 565              		.loc 1 145 0
 566 0078 00BF     		nop
 567              	.L32:
 568              		.loc 1 145 0 is_stmt 0 discriminator 1
 569 007a FFF7FEFF 		bl	USB_CDCIsReady
 570 007e 0346     		mov	r3, r0
 571 0080 002B     		cmp	r3, #0
 572 0082 FAD0     		beq	.L32
 146:.\main.c      **** 						 USB_PutData(packetUSB, count); 
 573              		.loc 1 146 0 is_stmt 1
 574 0084 7B88     		ldrh	r3, [r7, #2]
 575 0086 40F20000 		movw	r0, #:lower16:packetUSB
 576 008a C0F20000 		movt	r0, #:upper16:packetUSB
 577 008e 1946     		mov	r1, r3
 578 0090 FFF7FEFF 		bl	USB_PutData
 147:.\main.c      **** 		                /* If the last sent packet is exactly maximum packet size, 
 148:.\main.c      **** 		                *  it shall be followed by a zero-length packet to assure the
 149:.\main.c      **** 		                *  end of segment is properly identified by the terminal.
 150:.\main.c      **** 		                */
 151:.\main.c      **** 		                if(count == 80)
 579              		.loc 1 151 0
 580 0094 7B88     		ldrh	r3, [r7, #2]
 581 0096 502B     		cmp	r3, #80
 582 0098 0BD1     		bne	.L31
 152:.\main.c      **** 		                {
 153:.\main.c      **** 		                    while(USB_CDCIsReady() == 0u); /* Wait till component is ready to send more d
 583              		.loc 1 153 0
 584 009a 00BF     		nop
ARM GAS  C:\Users\makij\AppData\Local\Temp\ccMehpYi.s 			page 14


 585              	.L33:
 586              		.loc 1 153 0 is_stmt 0 discriminator 1
 587 009c FFF7FEFF 		bl	USB_CDCIsReady
 588 00a0 0346     		mov	r3, r0
 589 00a2 002B     		cmp	r3, #0
 590 00a4 FAD0     		beq	.L33
 154:.\main.c      **** 		                    USB_PutData(NULL, 0u);         /* Send zero-length packet to PC */
 591              		.loc 1 154 0 is_stmt 1
 592 00a6 4FF00000 		mov	r0, #0
 593 00aa 4FF00001 		mov	r1, #0
 594 00ae FFF7FEFF 		bl	USB_PutData
 595              	.L31:
 155:.\main.c      **** 		                }
 156:.\main.c      **** 		            }
 157:.\main.c      **** 					//generate packet and send packet
 158:.\main.c      **** 					i_send = 0;
 596              		.loc 1 158 0
 597 00b2 40F20003 		movw	r3, #:lower16:i_send
 598 00b6 C0F20003 		movt	r3, #:upper16:i_send
 599 00ba 4FF00002 		mov	r2, #0
 600 00be 1A60     		str	r2, [r3, #0]
 159:.\main.c      **** 					
 160:.\main.c      **** 					int l, l2;
 161:.\main.c      **** 					for(l = 0; packetUSB[l] != '\0'; l++)
 601              		.loc 1 161 0
 602 00c0 4FF00003 		mov	r3, #0
 603 00c4 FB60     		str	r3, [r7, #12]
 604 00c6 ADE2     		b	.L34
 605              	.L55:
 162:.\main.c      **** 					{
 163:.\main.c      **** 						dec = (unsigned int) packetUSB[l];
 606              		.loc 1 163 0
 607 00c8 40F20003 		movw	r3, #:lower16:packetUSB
 608 00cc C0F20003 		movt	r3, #:upper16:packetUSB
 609 00d0 FA68     		ldr	r2, [r7, #12]
 610 00d2 9B18     		adds	r3, r3, r2
 611 00d4 1A78     		ldrb	r2, [r3, #0]	@ zero_extendqisi2
 612 00d6 40F20003 		movw	r3, #:lower16:dec
 613 00da C0F20003 		movt	r3, #:upper16:dec
 614 00de 1A70     		strb	r2, [r3, #0]
 164:.\main.c      **** 						decimal_hex(dec, packetHex);
 615              		.loc 1 164 0
 616 00e0 40F20003 		movw	r3, #:lower16:dec
 617 00e4 C0F20003 		movt	r3, #:upper16:dec
 618 00e8 1B78     		ldrb	r3, [r3, #0]	@ zero_extendqisi2
 619 00ea 1846     		mov	r0, r3
 620 00ec 40F20001 		movw	r1, #:lower16:packetHex
 621 00f0 C0F20001 		movt	r1, #:upper16:packetHex
 622 00f4 FFF7FEFF 		bl	decimal_hex
 165:.\main.c      **** 						
 166:.\main.c      **** 						for(l2 = 0; packetHex[l2] != '\0'; l2++)
 623              		.loc 1 166 0
 624 00f8 4FF00003 		mov	r3, #0
 625 00fc BB60     		str	r3, [r7, #8]
 626 00fe 83E2     		b	.L35
 627              	.L54:
 628              	.LBB3:
ARM GAS  C:\Users\makij\AppData\Local\Temp\ccMehpYi.s 			page 15


 167:.\main.c      **** 						{
 168:.\main.c      **** 							if(packetHex[l2] == '0'){
 629              		.loc 1 168 0
 630 0100 40F20003 		movw	r3, #:lower16:packetHex
 631 0104 C0F20003 		movt	r3, #:upper16:packetHex
 632 0108 BA68     		ldr	r2, [r7, #8]
 633 010a 9B18     		adds	r3, r3, r2
 634 010c 1B78     		ldrb	r3, [r3, #0]	@ zero_extendqisi2
 635 010e 302B     		cmp	r3, #48
 636 0110 1CD1     		bne	.L36
 169:.\main.c      **** 								packetBinary[0] = 0;
 637              		.loc 1 169 0
 638 0112 40F20003 		movw	r3, #:lower16:packetBinary
 639 0116 C0F20003 		movt	r3, #:upper16:packetBinary
 640 011a 4FF00002 		mov	r2, #0
 641 011e 1A70     		strb	r2, [r3, #0]
 170:.\main.c      **** 								packetBinary[1] = 0;
 642              		.loc 1 170 0
 643 0120 40F20003 		movw	r3, #:lower16:packetBinary
 644 0124 C0F20003 		movt	r3, #:upper16:packetBinary
 645 0128 4FF00002 		mov	r2, #0
 646 012c 5A70     		strb	r2, [r3, #1]
 171:.\main.c      **** 								packetBinary[2] = 0;
 647              		.loc 1 171 0
 648 012e 40F20003 		movw	r3, #:lower16:packetBinary
 649 0132 C0F20003 		movt	r3, #:upper16:packetBinary
 650 0136 4FF00002 		mov	r2, #0
 651 013a 9A70     		strb	r2, [r3, #2]
 172:.\main.c      **** 								packetBinary[3] = 0;
 652              		.loc 1 172 0
 653 013c 40F20003 		movw	r3, #:lower16:packetBinary
 654 0140 C0F20003 		movt	r3, #:upper16:packetBinary
 655 0144 4FF00002 		mov	r2, #0
 656 0148 DA70     		strb	r2, [r3, #3]
 657 014a 2FE2     		b	.L37
 658              	.L36:
 173:.\main.c      **** 							}else if(packetHex[l2] == '1'){
 659              		.loc 1 173 0
 660 014c 40F20003 		movw	r3, #:lower16:packetHex
 661 0150 C0F20003 		movt	r3, #:upper16:packetHex
 662 0154 BA68     		ldr	r2, [r7, #8]
 663 0156 9B18     		adds	r3, r3, r2
 664 0158 1B78     		ldrb	r3, [r3, #0]	@ zero_extendqisi2
 665 015a 312B     		cmp	r3, #49
 666 015c 1CD1     		bne	.L38
 174:.\main.c      **** 								packetBinary[0] = 0;
 667              		.loc 1 174 0
 668 015e 40F20003 		movw	r3, #:lower16:packetBinary
 669 0162 C0F20003 		movt	r3, #:upper16:packetBinary
 670 0166 4FF00002 		mov	r2, #0
 671 016a 1A70     		strb	r2, [r3, #0]
 175:.\main.c      **** 								packetBinary[1] = 0;
 672              		.loc 1 175 0
 673 016c 40F20003 		movw	r3, #:lower16:packetBinary
 674 0170 C0F20003 		movt	r3, #:upper16:packetBinary
 675 0174 4FF00002 		mov	r2, #0
 676 0178 5A70     		strb	r2, [r3, #1]
ARM GAS  C:\Users\makij\AppData\Local\Temp\ccMehpYi.s 			page 16


 176:.\main.c      **** 								packetBinary[2] = 0;
 677              		.loc 1 176 0
 678 017a 40F20003 		movw	r3, #:lower16:packetBinary
 679 017e C0F20003 		movt	r3, #:upper16:packetBinary
 680 0182 4FF00002 		mov	r2, #0
 681 0186 9A70     		strb	r2, [r3, #2]
 177:.\main.c      **** 								packetBinary[3] = 1;
 682              		.loc 1 177 0
 683 0188 40F20003 		movw	r3, #:lower16:packetBinary
 684 018c C0F20003 		movt	r3, #:upper16:packetBinary
 685 0190 4FF00102 		mov	r2, #1
 686 0194 DA70     		strb	r2, [r3, #3]
 687 0196 09E2     		b	.L37
 688              	.L38:
 178:.\main.c      **** 							}else if(packetHex[l2] == '2'){
 689              		.loc 1 178 0
 690 0198 40F20003 		movw	r3, #:lower16:packetHex
 691 019c C0F20003 		movt	r3, #:upper16:packetHex
 692 01a0 BA68     		ldr	r2, [r7, #8]
 693 01a2 9B18     		adds	r3, r3, r2
 694 01a4 1B78     		ldrb	r3, [r3, #0]	@ zero_extendqisi2
 695 01a6 322B     		cmp	r3, #50
 696 01a8 1CD1     		bne	.L39
 179:.\main.c      **** 								packetBinary[0] = 0;
 697              		.loc 1 179 0
 698 01aa 40F20003 		movw	r3, #:lower16:packetBinary
 699 01ae C0F20003 		movt	r3, #:upper16:packetBinary
 700 01b2 4FF00002 		mov	r2, #0
 701 01b6 1A70     		strb	r2, [r3, #0]
 180:.\main.c      **** 								packetBinary[1] = 0;
 702              		.loc 1 180 0
 703 01b8 40F20003 		movw	r3, #:lower16:packetBinary
 704 01bc C0F20003 		movt	r3, #:upper16:packetBinary
 705 01c0 4FF00002 		mov	r2, #0
 706 01c4 5A70     		strb	r2, [r3, #1]
 181:.\main.c      **** 								packetBinary[2] = 1;
 707              		.loc 1 181 0
 708 01c6 40F20003 		movw	r3, #:lower16:packetBinary
 709 01ca C0F20003 		movt	r3, #:upper16:packetBinary
 710 01ce 4FF00102 		mov	r2, #1
 711 01d2 9A70     		strb	r2, [r3, #2]
 182:.\main.c      **** 								packetBinary[3] = 0;
 712              		.loc 1 182 0
 713 01d4 40F20003 		movw	r3, #:lower16:packetBinary
 714 01d8 C0F20003 		movt	r3, #:upper16:packetBinary
 715 01dc 4FF00002 		mov	r2, #0
 716 01e0 DA70     		strb	r2, [r3, #3]
 717 01e2 E3E1     		b	.L37
 718              	.L39:
 183:.\main.c      **** 							}else if(packetHex[l2] == '3'){
 719              		.loc 1 183 0
 720 01e4 40F20003 		movw	r3, #:lower16:packetHex
 721 01e8 C0F20003 		movt	r3, #:upper16:packetHex
 722 01ec BA68     		ldr	r2, [r7, #8]
 723 01ee 9B18     		adds	r3, r3, r2
 724 01f0 1B78     		ldrb	r3, [r3, #0]	@ zero_extendqisi2
 725 01f2 332B     		cmp	r3, #51
ARM GAS  C:\Users\makij\AppData\Local\Temp\ccMehpYi.s 			page 17


 726 01f4 1CD1     		bne	.L40
 184:.\main.c      **** 								packetBinary[0] = 0;
 727              		.loc 1 184 0
 728 01f6 40F20003 		movw	r3, #:lower16:packetBinary
 729 01fa C0F20003 		movt	r3, #:upper16:packetBinary
 730 01fe 4FF00002 		mov	r2, #0
 731 0202 1A70     		strb	r2, [r3, #0]
 185:.\main.c      **** 								packetBinary[1] = 0;
 732              		.loc 1 185 0
 733 0204 40F20003 		movw	r3, #:lower16:packetBinary
 734 0208 C0F20003 		movt	r3, #:upper16:packetBinary
 735 020c 4FF00002 		mov	r2, #0
 736 0210 5A70     		strb	r2, [r3, #1]
 186:.\main.c      **** 								packetBinary[2] = 1;
 737              		.loc 1 186 0
 738 0212 40F20003 		movw	r3, #:lower16:packetBinary
 739 0216 C0F20003 		movt	r3, #:upper16:packetBinary
 740 021a 4FF00102 		mov	r2, #1
 741 021e 9A70     		strb	r2, [r3, #2]
 187:.\main.c      **** 								packetBinary[3] = 1;
 742              		.loc 1 187 0
 743 0220 40F20003 		movw	r3, #:lower16:packetBinary
 744 0224 C0F20003 		movt	r3, #:upper16:packetBinary
 745 0228 4FF00102 		mov	r2, #1
 746 022c DA70     		strb	r2, [r3, #3]
 747 022e BDE1     		b	.L37
 748              	.L40:
 188:.\main.c      **** 							}else if(packetHex[l2] == '4'){
 749              		.loc 1 188 0
 750 0230 40F20003 		movw	r3, #:lower16:packetHex
 751 0234 C0F20003 		movt	r3, #:upper16:packetHex
 752 0238 BA68     		ldr	r2, [r7, #8]
 753 023a 9B18     		adds	r3, r3, r2
 754 023c 1B78     		ldrb	r3, [r3, #0]	@ zero_extendqisi2
 755 023e 342B     		cmp	r3, #52
 756 0240 1CD1     		bne	.L41
 189:.\main.c      **** 								packetBinary[0] = 0;
 757              		.loc 1 189 0
 758 0242 40F20003 		movw	r3, #:lower16:packetBinary
 759 0246 C0F20003 		movt	r3, #:upper16:packetBinary
 760 024a 4FF00002 		mov	r2, #0
 761 024e 1A70     		strb	r2, [r3, #0]
 190:.\main.c      **** 								packetBinary[1] = 1;
 762              		.loc 1 190 0
 763 0250 40F20003 		movw	r3, #:lower16:packetBinary
 764 0254 C0F20003 		movt	r3, #:upper16:packetBinary
 765 0258 4FF00102 		mov	r2, #1
 766 025c 5A70     		strb	r2, [r3, #1]
 191:.\main.c      **** 								packetBinary[2] = 0;
 767              		.loc 1 191 0
 768 025e 40F20003 		movw	r3, #:lower16:packetBinary
 769 0262 C0F20003 		movt	r3, #:upper16:packetBinary
 770 0266 4FF00002 		mov	r2, #0
 771 026a 9A70     		strb	r2, [r3, #2]
 192:.\main.c      **** 								packetBinary[3] = 0;
 772              		.loc 1 192 0
 773 026c 40F20003 		movw	r3, #:lower16:packetBinary
ARM GAS  C:\Users\makij\AppData\Local\Temp\ccMehpYi.s 			page 18


 774 0270 C0F20003 		movt	r3, #:upper16:packetBinary
 775 0274 4FF00002 		mov	r2, #0
 776 0278 DA70     		strb	r2, [r3, #3]
 777 027a 97E1     		b	.L37
 778              	.L41:
 193:.\main.c      **** 							}else if(packetHex[l2] == '5'){
 779              		.loc 1 193 0
 780 027c 40F20003 		movw	r3, #:lower16:packetHex
 781 0280 C0F20003 		movt	r3, #:upper16:packetHex
 782 0284 BA68     		ldr	r2, [r7, #8]
 783 0286 9B18     		adds	r3, r3, r2
 784 0288 1B78     		ldrb	r3, [r3, #0]	@ zero_extendqisi2
 785 028a 352B     		cmp	r3, #53
 786 028c 1CD1     		bne	.L42
 194:.\main.c      **** 								packetBinary[0] = 0;
 787              		.loc 1 194 0
 788 028e 40F20003 		movw	r3, #:lower16:packetBinary
 789 0292 C0F20003 		movt	r3, #:upper16:packetBinary
 790 0296 4FF00002 		mov	r2, #0
 791 029a 1A70     		strb	r2, [r3, #0]
 195:.\main.c      **** 								packetBinary[1] = 1;
 792              		.loc 1 195 0
 793 029c 40F20003 		movw	r3, #:lower16:packetBinary
 794 02a0 C0F20003 		movt	r3, #:upper16:packetBinary
 795 02a4 4FF00102 		mov	r2, #1
 796 02a8 5A70     		strb	r2, [r3, #1]
 196:.\main.c      **** 								packetBinary[2] = 0;
 797              		.loc 1 196 0
 798 02aa 40F20003 		movw	r3, #:lower16:packetBinary
 799 02ae C0F20003 		movt	r3, #:upper16:packetBinary
 800 02b2 4FF00002 		mov	r2, #0
 801 02b6 9A70     		strb	r2, [r3, #2]
 197:.\main.c      **** 								packetBinary[3] = 1;
 802              		.loc 1 197 0
 803 02b8 40F20003 		movw	r3, #:lower16:packetBinary
 804 02bc C0F20003 		movt	r3, #:upper16:packetBinary
 805 02c0 4FF00102 		mov	r2, #1
 806 02c4 DA70     		strb	r2, [r3, #3]
 807 02c6 71E1     		b	.L37
 808              	.L42:
 198:.\main.c      **** 							}else if(packetHex[l2] == '6'){
 809              		.loc 1 198 0
 810 02c8 40F20003 		movw	r3, #:lower16:packetHex
 811 02cc C0F20003 		movt	r3, #:upper16:packetHex
 812 02d0 BA68     		ldr	r2, [r7, #8]
 813 02d2 9B18     		adds	r3, r3, r2
 814 02d4 1B78     		ldrb	r3, [r3, #0]	@ zero_extendqisi2
 815 02d6 362B     		cmp	r3, #54
 816 02d8 1CD1     		bne	.L43
 199:.\main.c      **** 								packetBinary[0] = 0;
 817              		.loc 1 199 0
 818 02da 40F20003 		movw	r3, #:lower16:packetBinary
 819 02de C0F20003 		movt	r3, #:upper16:packetBinary
 820 02e2 4FF00002 		mov	r2, #0
 821 02e6 1A70     		strb	r2, [r3, #0]
 200:.\main.c      **** 								packetBinary[1] = 1;
 822              		.loc 1 200 0
ARM GAS  C:\Users\makij\AppData\Local\Temp\ccMehpYi.s 			page 19


 823 02e8 40F20003 		movw	r3, #:lower16:packetBinary
 824 02ec C0F20003 		movt	r3, #:upper16:packetBinary
 825 02f0 4FF00102 		mov	r2, #1
 826 02f4 5A70     		strb	r2, [r3, #1]
 201:.\main.c      **** 								packetBinary[2] = 1;
 827              		.loc 1 201 0
 828 02f6 40F20003 		movw	r3, #:lower16:packetBinary
 829 02fa C0F20003 		movt	r3, #:upper16:packetBinary
 830 02fe 4FF00102 		mov	r2, #1
 831 0302 9A70     		strb	r2, [r3, #2]
 202:.\main.c      **** 								packetBinary[3] = 0;
 832              		.loc 1 202 0
 833 0304 40F20003 		movw	r3, #:lower16:packetBinary
 834 0308 C0F20003 		movt	r3, #:upper16:packetBinary
 835 030c 4FF00002 		mov	r2, #0
 836 0310 DA70     		strb	r2, [r3, #3]
 837 0312 4BE1     		b	.L37
 838              	.L43:
 203:.\main.c      **** 							}else if(packetHex[l2] == '7'){
 839              		.loc 1 203 0
 840 0314 40F20003 		movw	r3, #:lower16:packetHex
 841 0318 C0F20003 		movt	r3, #:upper16:packetHex
 842 031c BA68     		ldr	r2, [r7, #8]
 843 031e 9B18     		adds	r3, r3, r2
 844 0320 1B78     		ldrb	r3, [r3, #0]	@ zero_extendqisi2
 845 0322 372B     		cmp	r3, #55
 846 0324 1CD1     		bne	.L44
 204:.\main.c      **** 								packetBinary[0] = 0;
 847              		.loc 1 204 0
 848 0326 40F20003 		movw	r3, #:lower16:packetBinary
 849 032a C0F20003 		movt	r3, #:upper16:packetBinary
 850 032e 4FF00002 		mov	r2, #0
 851 0332 1A70     		strb	r2, [r3, #0]
 205:.\main.c      **** 								packetBinary[1] = 1;
 852              		.loc 1 205 0
 853 0334 40F20003 		movw	r3, #:lower16:packetBinary
 854 0338 C0F20003 		movt	r3, #:upper16:packetBinary
 855 033c 4FF00102 		mov	r2, #1
 856 0340 5A70     		strb	r2, [r3, #1]
 206:.\main.c      **** 								packetBinary[2] = 1;
 857              		.loc 1 206 0
 858 0342 40F20003 		movw	r3, #:lower16:packetBinary
 859 0346 C0F20003 		movt	r3, #:upper16:packetBinary
 860 034a 4FF00102 		mov	r2, #1
 861 034e 9A70     		strb	r2, [r3, #2]
 207:.\main.c      **** 								packetBinary[3] = 1;
 862              		.loc 1 207 0
 863 0350 40F20003 		movw	r3, #:lower16:packetBinary
 864 0354 C0F20003 		movt	r3, #:upper16:packetBinary
 865 0358 4FF00102 		mov	r2, #1
 866 035c DA70     		strb	r2, [r3, #3]
 867 035e 25E1     		b	.L37
 868              	.L44:
 208:.\main.c      **** 							}else if(packetHex[l2] == '8'){
 869              		.loc 1 208 0
 870 0360 40F20003 		movw	r3, #:lower16:packetHex
 871 0364 C0F20003 		movt	r3, #:upper16:packetHex
ARM GAS  C:\Users\makij\AppData\Local\Temp\ccMehpYi.s 			page 20


 872 0368 BA68     		ldr	r2, [r7, #8]
 873 036a 9B18     		adds	r3, r3, r2
 874 036c 1B78     		ldrb	r3, [r3, #0]	@ zero_extendqisi2
 875 036e 382B     		cmp	r3, #56
 876 0370 1CD1     		bne	.L45
 209:.\main.c      **** 								packetBinary[0] = 1;
 877              		.loc 1 209 0
 878 0372 40F20003 		movw	r3, #:lower16:packetBinary
 879 0376 C0F20003 		movt	r3, #:upper16:packetBinary
 880 037a 4FF00102 		mov	r2, #1
 881 037e 1A70     		strb	r2, [r3, #0]
 210:.\main.c      **** 								packetBinary[1] = 0;
 882              		.loc 1 210 0
 883 0380 40F20003 		movw	r3, #:lower16:packetBinary
 884 0384 C0F20003 		movt	r3, #:upper16:packetBinary
 885 0388 4FF00002 		mov	r2, #0
 886 038c 5A70     		strb	r2, [r3, #1]
 211:.\main.c      **** 								packetBinary[2] = 0;
 887              		.loc 1 211 0
 888 038e 40F20003 		movw	r3, #:lower16:packetBinary
 889 0392 C0F20003 		movt	r3, #:upper16:packetBinary
 890 0396 4FF00002 		mov	r2, #0
 891 039a 9A70     		strb	r2, [r3, #2]
 212:.\main.c      **** 								packetBinary[3] = 0;
 892              		.loc 1 212 0
 893 039c 40F20003 		movw	r3, #:lower16:packetBinary
 894 03a0 C0F20003 		movt	r3, #:upper16:packetBinary
 895 03a4 4FF00002 		mov	r2, #0
 896 03a8 DA70     		strb	r2, [r3, #3]
 897 03aa FFE0     		b	.L37
 898              	.L45:
 213:.\main.c      **** 							}else if(packetHex[l2] == '9'){
 899              		.loc 1 213 0
 900 03ac 40F20003 		movw	r3, #:lower16:packetHex
 901 03b0 C0F20003 		movt	r3, #:upper16:packetHex
 902 03b4 BA68     		ldr	r2, [r7, #8]
 903 03b6 9B18     		adds	r3, r3, r2
 904 03b8 1B78     		ldrb	r3, [r3, #0]	@ zero_extendqisi2
 905 03ba 392B     		cmp	r3, #57
 906 03bc 1CD1     		bne	.L46
 214:.\main.c      **** 								packetBinary[0] = 1;
 907              		.loc 1 214 0
 908 03be 40F20003 		movw	r3, #:lower16:packetBinary
 909 03c2 C0F20003 		movt	r3, #:upper16:packetBinary
 910 03c6 4FF00102 		mov	r2, #1
 911 03ca 1A70     		strb	r2, [r3, #0]
 215:.\main.c      **** 								packetBinary[1] = 0;
 912              		.loc 1 215 0
 913 03cc 40F20003 		movw	r3, #:lower16:packetBinary
 914 03d0 C0F20003 		movt	r3, #:upper16:packetBinary
 915 03d4 4FF00002 		mov	r2, #0
 916 03d8 5A70     		strb	r2, [r3, #1]
 216:.\main.c      **** 								packetBinary[2] = 0;
 917              		.loc 1 216 0
 918 03da 40F20003 		movw	r3, #:lower16:packetBinary
 919 03de C0F20003 		movt	r3, #:upper16:packetBinary
 920 03e2 4FF00002 		mov	r2, #0
ARM GAS  C:\Users\makij\AppData\Local\Temp\ccMehpYi.s 			page 21


 921 03e6 9A70     		strb	r2, [r3, #2]
 217:.\main.c      **** 								packetBinary[3] = 1;
 922              		.loc 1 217 0
 923 03e8 40F20003 		movw	r3, #:lower16:packetBinary
 924 03ec C0F20003 		movt	r3, #:upper16:packetBinary
 925 03f0 4FF00102 		mov	r2, #1
 926 03f4 DA70     		strb	r2, [r3, #3]
 927 03f6 D9E0     		b	.L37
 928              	.L46:
 218:.\main.c      **** 							}else if(packetHex[l2] == 'A'){
 929              		.loc 1 218 0
 930 03f8 40F20003 		movw	r3, #:lower16:packetHex
 931 03fc C0F20003 		movt	r3, #:upper16:packetHex
 932 0400 BA68     		ldr	r2, [r7, #8]
 933 0402 9B18     		adds	r3, r3, r2
 934 0404 1B78     		ldrb	r3, [r3, #0]	@ zero_extendqisi2
 935 0406 412B     		cmp	r3, #65
 936 0408 1CD1     		bne	.L47
 219:.\main.c      **** 								packetBinary[0] = 1;
 937              		.loc 1 219 0
 938 040a 40F20003 		movw	r3, #:lower16:packetBinary
 939 040e C0F20003 		movt	r3, #:upper16:packetBinary
 940 0412 4FF00102 		mov	r2, #1
 941 0416 1A70     		strb	r2, [r3, #0]
 220:.\main.c      **** 								packetBinary[1] = 0;
 942              		.loc 1 220 0
 943 0418 40F20003 		movw	r3, #:lower16:packetBinary
 944 041c C0F20003 		movt	r3, #:upper16:packetBinary
 945 0420 4FF00002 		mov	r2, #0
 946 0424 5A70     		strb	r2, [r3, #1]
 221:.\main.c      **** 								packetBinary[2] = 1;
 947              		.loc 1 221 0
 948 0426 40F20003 		movw	r3, #:lower16:packetBinary
 949 042a C0F20003 		movt	r3, #:upper16:packetBinary
 950 042e 4FF00102 		mov	r2, #1
 951 0432 9A70     		strb	r2, [r3, #2]
 222:.\main.c      **** 								packetBinary[3] = 0;
 952              		.loc 1 222 0
 953 0434 40F20003 		movw	r3, #:lower16:packetBinary
 954 0438 C0F20003 		movt	r3, #:upper16:packetBinary
 955 043c 4FF00002 		mov	r2, #0
 956 0440 DA70     		strb	r2, [r3, #3]
 957 0442 B3E0     		b	.L37
 958              	.L47:
 223:.\main.c      **** 							}else if(packetHex[l2] == 'B'){
 959              		.loc 1 223 0
 960 0444 40F20003 		movw	r3, #:lower16:packetHex
 961 0448 C0F20003 		movt	r3, #:upper16:packetHex
 962 044c BA68     		ldr	r2, [r7, #8]
 963 044e 9B18     		adds	r3, r3, r2
 964 0450 1B78     		ldrb	r3, [r3, #0]	@ zero_extendqisi2
 965 0452 422B     		cmp	r3, #66
 966 0454 1CD1     		bne	.L48
 224:.\main.c      **** 								packetBinary[0] = 1;
 967              		.loc 1 224 0
 968 0456 40F20003 		movw	r3, #:lower16:packetBinary
 969 045a C0F20003 		movt	r3, #:upper16:packetBinary
ARM GAS  C:\Users\makij\AppData\Local\Temp\ccMehpYi.s 			page 22


 970 045e 4FF00102 		mov	r2, #1
 971 0462 1A70     		strb	r2, [r3, #0]
 225:.\main.c      **** 								packetBinary[1] = 0;
 972              		.loc 1 225 0
 973 0464 40F20003 		movw	r3, #:lower16:packetBinary
 974 0468 C0F20003 		movt	r3, #:upper16:packetBinary
 975 046c 4FF00002 		mov	r2, #0
 976 0470 5A70     		strb	r2, [r3, #1]
 226:.\main.c      **** 								packetBinary[2] = 1;
 977              		.loc 1 226 0
 978 0472 40F20003 		movw	r3, #:lower16:packetBinary
 979 0476 C0F20003 		movt	r3, #:upper16:packetBinary
 980 047a 4FF00102 		mov	r2, #1
 981 047e 9A70     		strb	r2, [r3, #2]
 227:.\main.c      **** 								packetBinary[3] = 1;
 982              		.loc 1 227 0
 983 0480 40F20003 		movw	r3, #:lower16:packetBinary
 984 0484 C0F20003 		movt	r3, #:upper16:packetBinary
 985 0488 4FF00102 		mov	r2, #1
 986 048c DA70     		strb	r2, [r3, #3]
 987 048e 8DE0     		b	.L37
 988              	.L48:
 228:.\main.c      **** 							}else if(packetHex[l2] == 'C'){
 989              		.loc 1 228 0
 990 0490 40F20003 		movw	r3, #:lower16:packetHex
 991 0494 C0F20003 		movt	r3, #:upper16:packetHex
 992 0498 BA68     		ldr	r2, [r7, #8]
 993 049a 9B18     		adds	r3, r3, r2
 994 049c 1B78     		ldrb	r3, [r3, #0]	@ zero_extendqisi2
 995 049e 432B     		cmp	r3, #67
 996 04a0 1CD1     		bne	.L49
 229:.\main.c      **** 								packetBinary[0] = 1;
 997              		.loc 1 229 0
 998 04a2 40F20003 		movw	r3, #:lower16:packetBinary
 999 04a6 C0F20003 		movt	r3, #:upper16:packetBinary
 1000 04aa 4FF00102 		mov	r2, #1
 1001 04ae 1A70     		strb	r2, [r3, #0]
 230:.\main.c      **** 								packetBinary[1] = 1;
 1002              		.loc 1 230 0
 1003 04b0 40F20003 		movw	r3, #:lower16:packetBinary
 1004 04b4 C0F20003 		movt	r3, #:upper16:packetBinary
 1005 04b8 4FF00102 		mov	r2, #1
 1006 04bc 5A70     		strb	r2, [r3, #1]
 231:.\main.c      **** 								packetBinary[2] = 0;
 1007              		.loc 1 231 0
 1008 04be 40F20003 		movw	r3, #:lower16:packetBinary
 1009 04c2 C0F20003 		movt	r3, #:upper16:packetBinary
 1010 04c6 4FF00002 		mov	r2, #0
 1011 04ca 9A70     		strb	r2, [r3, #2]
 232:.\main.c      **** 								packetBinary[3] = 0;
 1012              		.loc 1 232 0
 1013 04cc 40F20003 		movw	r3, #:lower16:packetBinary
 1014 04d0 C0F20003 		movt	r3, #:upper16:packetBinary
 1015 04d4 4FF00002 		mov	r2, #0
 1016 04d8 DA70     		strb	r2, [r3, #3]
 1017 04da 67E0     		b	.L37
 1018              	.L49:
ARM GAS  C:\Users\makij\AppData\Local\Temp\ccMehpYi.s 			page 23


 233:.\main.c      **** 							}else if(packetHex[l2] =='D'){
 1019              		.loc 1 233 0
 1020 04dc 40F20003 		movw	r3, #:lower16:packetHex
 1021 04e0 C0F20003 		movt	r3, #:upper16:packetHex
 1022 04e4 BA68     		ldr	r2, [r7, #8]
 1023 04e6 9B18     		adds	r3, r3, r2
 1024 04e8 1B78     		ldrb	r3, [r3, #0]	@ zero_extendqisi2
 1025 04ea 442B     		cmp	r3, #68
 1026 04ec 1CD1     		bne	.L50
 234:.\main.c      **** 								packetBinary[0] = 1;
 1027              		.loc 1 234 0
 1028 04ee 40F20003 		movw	r3, #:lower16:packetBinary
 1029 04f2 C0F20003 		movt	r3, #:upper16:packetBinary
 1030 04f6 4FF00102 		mov	r2, #1
 1031 04fa 1A70     		strb	r2, [r3, #0]
 235:.\main.c      **** 								packetBinary[1] = 1;
 1032              		.loc 1 235 0
 1033 04fc 40F20003 		movw	r3, #:lower16:packetBinary
 1034 0500 C0F20003 		movt	r3, #:upper16:packetBinary
 1035 0504 4FF00102 		mov	r2, #1
 1036 0508 5A70     		strb	r2, [r3, #1]
 236:.\main.c      **** 								packetBinary[2] = 0;
 1037              		.loc 1 236 0
 1038 050a 40F20003 		movw	r3, #:lower16:packetBinary
 1039 050e C0F20003 		movt	r3, #:upper16:packetBinary
 1040 0512 4FF00002 		mov	r2, #0
 1041 0516 9A70     		strb	r2, [r3, #2]
 237:.\main.c      **** 								packetBinary[3] = 1;
 1042              		.loc 1 237 0
 1043 0518 40F20003 		movw	r3, #:lower16:packetBinary
 1044 051c C0F20003 		movt	r3, #:upper16:packetBinary
 1045 0520 4FF00102 		mov	r2, #1
 1046 0524 DA70     		strb	r2, [r3, #3]
 1047 0526 41E0     		b	.L37
 1048              	.L50:
 238:.\main.c      **** 							}else if(packetHex[l2] == 'E'){
 1049              		.loc 1 238 0
 1050 0528 40F20003 		movw	r3, #:lower16:packetHex
 1051 052c C0F20003 		movt	r3, #:upper16:packetHex
 1052 0530 BA68     		ldr	r2, [r7, #8]
 1053 0532 9B18     		adds	r3, r3, r2
 1054 0534 1B78     		ldrb	r3, [r3, #0]	@ zero_extendqisi2
 1055 0536 452B     		cmp	r3, #69
 1056 0538 1CD1     		bne	.L51
 239:.\main.c      **** 								packetBinary[0] = 1;
 1057              		.loc 1 239 0
 1058 053a 40F20003 		movw	r3, #:lower16:packetBinary
 1059 053e C0F20003 		movt	r3, #:upper16:packetBinary
 1060 0542 4FF00102 		mov	r2, #1
 1061 0546 1A70     		strb	r2, [r3, #0]
 240:.\main.c      **** 								packetBinary[1] = 1;
 1062              		.loc 1 240 0
 1063 0548 40F20003 		movw	r3, #:lower16:packetBinary
 1064 054c C0F20003 		movt	r3, #:upper16:packetBinary
 1065 0550 4FF00102 		mov	r2, #1
 1066 0554 5A70     		strb	r2, [r3, #1]
 241:.\main.c      **** 								packetBinary[2] = 1;
ARM GAS  C:\Users\makij\AppData\Local\Temp\ccMehpYi.s 			page 24


 1067              		.loc 1 241 0
 1068 0556 40F20003 		movw	r3, #:lower16:packetBinary
 1069 055a C0F20003 		movt	r3, #:upper16:packetBinary
 1070 055e 4FF00102 		mov	r2, #1
 1071 0562 9A70     		strb	r2, [r3, #2]
 242:.\main.c      **** 								packetBinary[3] = 0;
 1072              		.loc 1 242 0
 1073 0564 40F20003 		movw	r3, #:lower16:packetBinary
 1074 0568 C0F20003 		movt	r3, #:upper16:packetBinary
 1075 056c 4FF00002 		mov	r2, #0
 1076 0570 DA70     		strb	r2, [r3, #3]
 1077 0572 1BE0     		b	.L37
 1078              	.L51:
 243:.\main.c      **** 							}else {
 244:.\main.c      **** 								packetBinary[0] = 1;
 1079              		.loc 1 244 0
 1080 0574 40F20003 		movw	r3, #:lower16:packetBinary
 1081 0578 C0F20003 		movt	r3, #:upper16:packetBinary
 1082 057c 4FF00102 		mov	r2, #1
 1083 0580 1A70     		strb	r2, [r3, #0]
 245:.\main.c      **** 								packetBinary[1] = 1;
 1084              		.loc 1 245 0
 1085 0582 40F20003 		movw	r3, #:lower16:packetBinary
 1086 0586 C0F20003 		movt	r3, #:upper16:packetBinary
 1087 058a 4FF00102 		mov	r2, #1
 1088 058e 5A70     		strb	r2, [r3, #1]
 246:.\main.c      **** 								packetBinary[2] = 1;
 1089              		.loc 1 246 0
 1090 0590 40F20003 		movw	r3, #:lower16:packetBinary
 1091 0594 C0F20003 		movt	r3, #:upper16:packetBinary
 1092 0598 4FF00102 		mov	r2, #1
 1093 059c 9A70     		strb	r2, [r3, #2]
 247:.\main.c      **** 								packetBinary[3] = 1;
 1094              		.loc 1 247 0
 1095 059e 40F20003 		movw	r3, #:lower16:packetBinary
 1096 05a2 C0F20003 		movt	r3, #:upper16:packetBinary
 1097 05a6 4FF00102 		mov	r2, #1
 1098 05aa DA70     		strb	r2, [r3, #3]
 1099              	.L37:
 248:.\main.c      **** 							}
 249:.\main.c      **** 			
 250:.\main.c      **** 							int l3;
 251:.\main.c      **** 							for(l3 = 0; l3 <4; l3++)
 1100              		.loc 1 251 0
 1101 05ac 4FF00003 		mov	r3, #0
 1102 05b0 7B60     		str	r3, [r7, #4]
 1103 05b2 16E0     		b	.L52
 1104              	.L53:
 252:.\main.c      **** 							{
 253:.\main.c      **** 								packetSend[i_send + l2] = packetBinary[l2]; 	
 1105              		.loc 1 253 0 discriminator 2
 1106 05b4 40F20003 		movw	r3, #:lower16:i_send
 1107 05b8 C0F20003 		movt	r3, #:upper16:i_send
 1108 05bc 1A68     		ldr	r2, [r3, #0]
 1109 05be BB68     		ldr	r3, [r7, #8]
 1110 05c0 D218     		adds	r2, r2, r3
 1111 05c2 40F20003 		movw	r3, #:lower16:packetBinary
ARM GAS  C:\Users\makij\AppData\Local\Temp\ccMehpYi.s 			page 25


 1112 05c6 C0F20003 		movt	r3, #:upper16:packetBinary
 1113 05ca B968     		ldr	r1, [r7, #8]
 1114 05cc 5B18     		adds	r3, r3, r1
 1115 05ce 1978     		ldrb	r1, [r3, #0]	@ zero_extendqisi2
 1116 05d0 40F20003 		movw	r3, #:lower16:packetSend
 1117 05d4 C0F20003 		movt	r3, #:upper16:packetSend
 1118 05d8 9954     		strb	r1, [r3, r2]
 251:.\main.c      **** 							for(l3 = 0; l3 <4; l3++)
 1119              		.loc 1 251 0 discriminator 2
 1120 05da 7B68     		ldr	r3, [r7, #4]
 1121 05dc 03F10103 		add	r3, r3, #1
 1122 05e0 7B60     		str	r3, [r7, #4]
 1123              	.L52:
 251:.\main.c      **** 							for(l3 = 0; l3 <4; l3++)
 1124              		.loc 1 251 0 is_stmt 0 discriminator 1
 1125 05e2 7B68     		ldr	r3, [r7, #4]
 1126 05e4 032B     		cmp	r3, #3
 1127 05e6 E5DD     		ble	.L53
 254:.\main.c      **** 				
 255:.\main.c      **** 							}//generates binary values
 256:.\main.c      **** 							i_send++;
 1128              		.loc 1 256 0 is_stmt 1
 1129 05e8 40F20003 		movw	r3, #:lower16:i_send
 1130 05ec C0F20003 		movt	r3, #:upper16:i_send
 1131 05f0 1B68     		ldr	r3, [r3, #0]
 1132 05f2 03F10102 		add	r2, r3, #1
 1133 05f6 40F20003 		movw	r3, #:lower16:i_send
 1134 05fa C0F20003 		movt	r3, #:upper16:i_send
 1135 05fe 1A60     		str	r2, [r3, #0]
 1136              	.LBE3:
 166:.\main.c      **** 						for(l2 = 0; packetHex[l2] != '\0'; l2++)
 1137              		.loc 1 166 0
 1138 0600 BB68     		ldr	r3, [r7, #8]
 1139 0602 03F10103 		add	r3, r3, #1
 1140 0606 BB60     		str	r3, [r7, #8]
 1141              	.L35:
 166:.\main.c      **** 						for(l2 = 0; packetHex[l2] != '\0'; l2++)
 1142              		.loc 1 166 0 is_stmt 0 discriminator 1
 1143 0608 40F20003 		movw	r3, #:lower16:packetHex
 1144 060c C0F20003 		movt	r3, #:upper16:packetHex
 1145 0610 BA68     		ldr	r2, [r7, #8]
 1146 0612 9B18     		adds	r3, r3, r2
 1147 0614 1B78     		ldrb	r3, [r3, #0]	@ zero_extendqisi2
 1148 0616 002B     		cmp	r3, #0
 1149 0618 7FF472AD 		bne	.L54
 161:.\main.c      **** 					for(l = 0; packetUSB[l] != '\0'; l++)
 1150              		.loc 1 161 0 is_stmt 1
 1151 061c FB68     		ldr	r3, [r7, #12]
 1152 061e 03F10103 		add	r3, r3, #1
 1153 0622 FB60     		str	r3, [r7, #12]
 1154              	.L34:
 161:.\main.c      **** 					for(l = 0; packetUSB[l] != '\0'; l++)
 1155              		.loc 1 161 0 is_stmt 0 discriminator 1
 1156 0624 40F20003 		movw	r3, #:lower16:packetUSB
 1157 0628 C0F20003 		movt	r3, #:upper16:packetUSB
 1158 062c FA68     		ldr	r2, [r7, #12]
 1159 062e 9B18     		adds	r3, r3, r2
ARM GAS  C:\Users\makij\AppData\Local\Temp\ccMehpYi.s 			page 26


 1160 0630 1B78     		ldrb	r3, [r3, #0]	@ zero_extendqisi2
 1161 0632 002B     		cmp	r3, #0
 1162 0634 7FF448AD 		bne	.L55
 257:.\main.c      **** 						}
 258:.\main.c      **** 					}
 259:.\main.c      **** 					
 260:.\main.c      **** 					Timer_sendData_Start();
 1163              		.loc 1 260 0 is_stmt 1
 1164 0638 FFF7FEFF 		bl	Timer_sendData_Start
 1165              	.LBE2:
 261:.\main.c      **** 	        	}
 262:.\main.c      **** 				
 263:.\main.c      **** 				
 264:.\main.c      **** 				break;
 1166              		.loc 1 264 0
 1167 063c 1BE0     		b	.L57
 1168              	.L28:
 265:.\main.c      **** 				
 266:.\main.c      **** 			case BUSY:
 267:.\main.c      **** 				Pin_LEDBusy_Write(1);			
 1169              		.loc 1 267 0
 1170 063e 4FF00100 		mov	r0, #1
 1171 0642 FFF7FEFF 		bl	Pin_LEDBusy_Write
 268:.\main.c      **** 				Pin_LEDIdle_Write(0);
 1172              		.loc 1 268 0
 1173 0646 4FF00000 		mov	r0, #0
 1174 064a FFF7FEFF 		bl	Pin_LEDIdle_Write
 269:.\main.c      **** 				Pin_LEDCollision_Write(0);
 1175              		.loc 1 269 0
 1176 064e 4FF00000 		mov	r0, #0
 1177 0652 FFF7FEFF 		bl	Pin_LEDCollision_Write
 270:.\main.c      **** 				break;
 1178              		.loc 1 270 0
 1179 0656 0FE0     		b	.L26
 1180              	.L29:
 271:.\main.c      **** 
 272:.\main.c      **** 			case COLLISION:	
 273:.\main.c      **** 				Timer_sendData_Stop();
 1181              		.loc 1 273 0
 1182 0658 FFF7FEFF 		bl	Timer_sendData_Stop
 274:.\main.c      **** 				Pin_LEDBusy_Write(0);			
 1183              		.loc 1 274 0
 1184 065c 4FF00000 		mov	r0, #0
 1185 0660 FFF7FEFF 		bl	Pin_LEDBusy_Write
 275:.\main.c      **** 				Pin_LEDIdle_Write(0);
 1186              		.loc 1 275 0
 1187 0664 4FF00000 		mov	r0, #0
 1188 0668 FFF7FEFF 		bl	Pin_LEDIdle_Write
 276:.\main.c      **** 				Pin_LEDCollision_Write(1);
 1189              		.loc 1 276 0
 1190 066c 4FF00100 		mov	r0, #1
 1191 0670 FFF7FEFF 		bl	Pin_LEDCollision_Write
 277:.\main.c      **** 				break;
 1192              		.loc 1 277 0
 1193 0674 00E0     		b	.L26
 1194              	.L57:
 264:.\main.c      **** 				break;
ARM GAS  C:\Users\makij\AppData\Local\Temp\ccMehpYi.s 			page 27


 1195              		.loc 1 264 0
 1196 0676 00BF     		nop
 1197              	.L26:
 278:.\main.c      **** 		}
 279:.\main.c      **** 	}
 1198              		.loc 1 279 0
 1199 0678 C7E4     		b	.L56
 1200              		.cfi_endproc
 1201              	.LFE63:
 1202              		.size	main, .-main
 1203 067a 00BF     		.section	.text.init,"ax",%progbits
 1204              		.align	2
 1205              		.global	init
 1206              		.thumb
 1207              		.thumb_func
 1208              		.type	init, %function
 1209              	init:
 1210              	.LFB64:
 280:.\main.c      **** }
 281:.\main.c      **** 
 282:.\main.c      **** void init()
 283:.\main.c      **** {	
 1211              		.loc 1 283 0
 1212              		.cfi_startproc
 1213              		@ args = 0, pretend = 0, frame = 0
 1214              		@ frame_needed = 1, uses_anonymous_args = 0
 1215 0000 80B5     		push	{r7, lr}
 1216              	.LCFI19:
 1217              		.cfi_def_cfa_offset 8
 1218              		.cfi_offset 7, -8
 1219              		.cfi_offset 14, -4
 1220 0002 00AF     		add	r7, sp, #0
 1221              	.LCFI20:
 1222              		.cfi_def_cfa_register 7
 284:.\main.c      **** 	
 285:.\main.c      **** 	//Enable Global Interrupts
 286:.\main.c      **** 	CYGlobalIntEnable;
 1223              		.loc 1 286 0
 1224              	@ 286 ".\main.c" 1
 1225 0004 62B6     		CPSIE   i
 1226              	@ 0 "" 2
 287:.\main.c      **** 	
 288:.\main.c      **** 	//Init isr
 289:.\main.c      **** 	isr_BusyToCollision_StartEx(isr_BusyToCollision);
 1227              		.loc 1 289 0
 1228              		.thumb
 1229 0006 40F20000 		movw	r0, #:lower16:isr_BusyToCollision
 1230 000a C0F20000 		movt	r0, #:upper16:isr_BusyToCollision
 1231 000e FFF7FEFF 		bl	isr_BusyToCollision_StartEx
 290:.\main.c      **** 	isr_BusyToIdle_StartEx(isr_BusyToIdle);
 1232              		.loc 1 290 0
 1233 0012 40F20000 		movw	r0, #:lower16:isr_BusyToIdle
 1234 0016 C0F20000 		movt	r0, #:upper16:isr_BusyToIdle
 1235 001a FFF7FEFF 		bl	isr_BusyToIdle_StartEx
 291:.\main.c      **** 	
 292:.\main.c      **** 	isr_RisingEdge_StartEx(isr_RisingEdgeDetected);
 1236              		.loc 1 292 0
ARM GAS  C:\Users\makij\AppData\Local\Temp\ccMehpYi.s 			page 28


 1237 001e 40F20000 		movw	r0, #:lower16:isr_RisingEdgeDetected
 1238 0022 C0F20000 		movt	r0, #:upper16:isr_RisingEdgeDetected
 1239 0026 FFF7FEFF 		bl	isr_RisingEdge_StartEx
 293:.\main.c      **** 	isr_FallingEdge_StartEx(isr_FallingEdgeDetected);
 1240              		.loc 1 293 0
 1241 002a 40F20000 		movw	r0, #:lower16:isr_FallingEdgeDetected
 1242 002e C0F20000 		movt	r0, #:upper16:isr_FallingEdgeDetected
 1243 0032 FFF7FEFF 		bl	isr_FallingEdge_StartEx
 294:.\main.c      **** 	
 295:.\main.c      **** 	
 296:.\main.c      **** 	
 297:.\main.c      **** 	
 298:.\main.c      **** 	isr_sendData_StartEx(isr_sendingData);
 1244              		.loc 1 298 0
 1245 0036 40F20000 		movw	r0, #:lower16:isr_sendingData
 1246 003a C0F20000 		movt	r0, #:upper16:isr_sendingData
 1247 003e FFF7FEFF 		bl	isr_sendData_StartEx
 299:.\main.c      **** 	
 300:.\main.c      **** 	    /* Start USBFS Operation with 3V operation */
 301:.\main.c      ****     USB_Start(0u, USB_3V_OPERATION);
 1248              		.loc 1 301 0
 1249 0042 4FF00000 		mov	r0, #0
 1250 0046 4FF00001 		mov	r1, #0
 1251 004a FFF7FEFF 		bl	USB_Start
 302:.\main.c      **** 	 /* Wait for Device to enumerate */
 303:.\main.c      ****     while(!USB_GetConfiguration());
 1252              		.loc 1 303 0
 1253 004e 00BF     		nop
 1254              	.L59:
 1255              		.loc 1 303 0 is_stmt 0 discriminator 1
 1256 0050 FFF7FEFF 		bl	USB_GetConfiguration
 1257 0054 0346     		mov	r3, r0
 1258 0056 002B     		cmp	r3, #0
 1259 0058 FAD0     		beq	.L59
 304:.\main.c      **** 
 305:.\main.c      ****     /* Enumeration is done, enable OUT endpoint for receive data from Host */
 306:.\main.c      ****     USB_CDC_Init();
 1260              		.loc 1 306 0 is_stmt 1
 1261 005a FFF7FEFF 		bl	USB_CDC_Init
 307:.\main.c      **** 	
 308:.\main.c      **** 	//Init Components
 309:.\main.c      **** 	//Timer_BusyToCollision_Start();
 310:.\main.c      **** 	//Timer_BusyToIdle_Start();
 311:.\main.c      **** 	
 312:.\main.c      **** 		
 313:.\main.c      **** }...
 1262              		.loc 1 313 0
 1263 005e 80BD     		pop	{r7, pc}
 1264              		.cfi_endproc
 1265              	.LFE64:
 1266              		.size	init, .-init
 1267              		.text
 1268              	.Letext0:
 1269              		.file 2 "c:\\program files (x86)\\cypress\\psoc creator\\3.0\\psoc creator\\import\\gnu_cs\\arm\\4
 1270              		.file 3 "./Generated_Source/PSoC5/cytypes.h"
 1271              		.file 4 ".\\main.h"
 1272              		.file 5 "./Generated_Source/PSoC5/core_cm3.h"
ARM GAS  C:\Users\makij\AppData\Local\Temp\ccMehpYi.s 			page 29


 1273              		.section	.debug_info,"",%progbits
 1274              	.Ldebug_info0:
 1275 0000 66030000 		.4byte	0x366
 1276 0004 0200     		.2byte	0x2
 1277 0006 00000000 		.4byte	.Ldebug_abbrev0
 1278 000a 04       		.byte	0x4
 1279 000b 01       		.uleb128 0x1
 1280 000c 10020000 		.4byte	.LASF39
 1281 0010 01       		.byte	0x1
 1282 0011 61000000 		.4byte	.LASF40
 1283 0015 A2000000 		.4byte	.LASF41
 1284 0019 00000000 		.4byte	.Ldebug_ranges0+0
 1285 001d 00000000 		.4byte	0
 1286 0021 00000000 		.4byte	0
 1287 0025 00000000 		.4byte	.Ldebug_line0
 1288 0029 02       		.uleb128 0x2
 1289 002a 01       		.byte	0x1
 1290 002b 06       		.byte	0x6
 1291 002c 86020000 		.4byte	.LASF0
 1292 0030 02       		.uleb128 0x2
 1293 0031 01       		.byte	0x1
 1294 0032 08       		.byte	0x8
 1295 0033 70000000 		.4byte	.LASF1
 1296 0037 02       		.uleb128 0x2
 1297 0038 02       		.byte	0x2
 1298 0039 05       		.byte	0x5
 1299 003a 00020000 		.4byte	.LASF2
 1300 003e 02       		.uleb128 0x2
 1301 003f 02       		.byte	0x2
 1302 0040 07       		.byte	0x7
 1303 0041 3B000000 		.4byte	.LASF3
 1304 0045 03       		.uleb128 0x3
 1305 0046 BB010000 		.4byte	.LASF9
 1306 004a 02       		.byte	0x2
 1307 004b 4F       		.byte	0x4f
 1308 004c 50000000 		.4byte	0x50
 1309 0050 02       		.uleb128 0x2
 1310 0051 04       		.byte	0x4
 1311 0052 05       		.byte	0x5
 1312 0053 64020000 		.4byte	.LASF4
 1313 0057 02       		.uleb128 0x2
 1314 0058 04       		.byte	0x4
 1315 0059 07       		.byte	0x7
 1316 005a 8B000000 		.4byte	.LASF5
 1317 005e 02       		.uleb128 0x2
 1318 005f 08       		.byte	0x8
 1319 0060 05       		.byte	0x5
 1320 0061 00000000 		.4byte	.LASF6
 1321 0065 02       		.uleb128 0x2
 1322 0066 08       		.byte	0x8
 1323 0067 07       		.byte	0x7
 1324 0068 A4010000 		.4byte	.LASF7
 1325 006c 04       		.uleb128 0x4
 1326 006d 04       		.byte	0x4
 1327 006e 05       		.byte	0x5
 1328 006f 696E7400 		.ascii	"int\000"
 1329 0073 02       		.uleb128 0x2
ARM GAS  C:\Users\makij\AppData\Local\Temp\ccMehpYi.s 			page 30


 1330 0074 04       		.byte	0x4
 1331 0075 07       		.byte	0x7
 1332 0076 97010000 		.4byte	.LASF8
 1333 007a 03       		.uleb128 0x3
 1334 007b 0A020000 		.4byte	.LASF10
 1335 007f 03       		.byte	0x3
 1336 0080 5B       		.byte	0x5b
 1337 0081 30000000 		.4byte	0x30
 1338 0085 03       		.uleb128 0x3
 1339 0086 74010000 		.4byte	.LASF11
 1340 008a 03       		.byte	0x3
 1341 008b 5C       		.byte	0x5c
 1342 008c 3E000000 		.4byte	0x3e
 1343 0090 02       		.uleb128 0x2
 1344 0091 04       		.byte	0x4
 1345 0092 04       		.byte	0x4
 1346 0093 6A000000 		.4byte	.LASF12
 1347 0097 02       		.uleb128 0x2
 1348 0098 08       		.byte	0x8
 1349 0099 04       		.byte	0x4
 1350 009a 4D010000 		.4byte	.LASF13
 1351 009e 02       		.uleb128 0x2
 1352 009f 01       		.byte	0x1
 1353 00a0 08       		.byte	0x8
 1354 00a1 DD010000 		.4byte	.LASF14
 1355 00a5 02       		.uleb128 0x2
 1356 00a6 04       		.byte	0x4
 1357 00a7 07       		.byte	0x7
 1358 00a8 C3010000 		.4byte	.LASF15
 1359 00ac 05       		.uleb128 0x5
 1360 00ad 04       		.byte	0x4
 1361 00ae 9E000000 		.4byte	0x9e
 1362 00b2 06       		.uleb128 0x6
 1363 00b3 7A000000 		.4byte	0x7a
 1364 00b7 C2000000 		.4byte	0xc2
 1365 00bb 07       		.uleb128 0x7
 1366 00bc A5000000 		.4byte	0xa5
 1367 00c0 03       		.byte	0x3
 1368 00c1 00       		.byte	0
 1369 00c2 02       		.uleb128 0x2
 1370 00c3 08       		.byte	0x8
 1371 00c4 04       		.byte	0x4
 1372 00c5 6D020000 		.4byte	.LASF16
 1373 00c9 08       		.uleb128 0x8
 1374 00ca 01       		.byte	0x1
 1375 00cb 04       		.byte	0x4
 1376 00cc 20       		.byte	0x20
 1377 00cd E4000000 		.4byte	0xe4
 1378 00d1 09       		.uleb128 0x9
 1379 00d2 57000000 		.4byte	.LASF17
 1380 00d6 00       		.sleb128 0
 1381 00d7 09       		.uleb128 0x9
 1382 00d8 3C010000 		.4byte	.LASF18
 1383 00dc 01       		.sleb128 1
 1384 00dd 09       		.uleb128 0x9
 1385 00de CC010000 		.4byte	.LASF19
 1386 00e2 02       		.sleb128 2
ARM GAS  C:\Users\makij\AppData\Local\Temp\ccMehpYi.s 			page 31


 1387 00e3 00       		.byte	0
 1388 00e4 03       		.uleb128 0x3
 1389 00e5 29010000 		.4byte	.LASF20
 1390 00e9 04       		.byte	0x4
 1391 00ea 20       		.byte	0x20
 1392 00eb C9000000 		.4byte	0xc9
 1393 00ef 0A       		.uleb128 0xa
 1394 00f0 01       		.byte	0x1
 1395 00f1 0E000000 		.4byte	.LASF21
 1396 00f5 01       		.byte	0x1
 1397 00f6 20       		.byte	0x20
 1398 00f7 01       		.byte	0x1
 1399 00f8 00000000 		.4byte	.LFB56
 1400 00fc 20000000 		.4byte	.LFE56
 1401 0100 00000000 		.4byte	.LLST0
 1402 0104 01       		.byte	0x1
 1403 0105 0A       		.uleb128 0xa
 1404 0106 01       		.byte	0x1
 1405 0107 7B010000 		.4byte	.LASF22
 1406 010b 01       		.byte	0x1
 1407 010c 27       		.byte	0x27
 1408 010d 01       		.byte	0x1
 1409 010e 00000000 		.4byte	.LFB57
 1410 0112 20000000 		.4byte	.LFE57
 1411 0116 2C000000 		.4byte	.LLST1
 1412 011a 01       		.byte	0x1
 1413 011b 0A       		.uleb128 0xa
 1414 011c 01       		.byte	0x1
 1415 011d 26000000 		.4byte	.LASF23
 1416 0121 01       		.byte	0x1
 1417 0122 2F       		.byte	0x2f
 1418 0123 01       		.byte	0x1
 1419 0124 00000000 		.4byte	.LFB58
 1420 0128 1C000000 		.4byte	.LFE58
 1421 012c 58000000 		.4byte	.LLST2
 1422 0130 01       		.byte	0x1
 1423 0131 0A       		.uleb128 0xa
 1424 0132 01       		.byte	0x1
 1425 0133 E2010000 		.4byte	.LASF24
 1426 0137 01       		.byte	0x1
 1427 0138 36       		.byte	0x36
 1428 0139 01       		.byte	0x1
 1429 013a 00000000 		.4byte	.LFB59
 1430 013e 1C000000 		.4byte	.LFE59
 1431 0142 84000000 		.4byte	.LLST3
 1432 0146 01       		.byte	0x1
 1433 0147 0B       		.uleb128 0xb
 1434 0148 01       		.byte	0x1
 1435 0149 54010000 		.4byte	.LASF25
 1436 014d 01       		.byte	0x1
 1437 014e 3C       		.byte	0x3c
 1438 014f 01       		.byte	0x1
 1439 0150 00000000 		.4byte	.LFB60
 1440 0154 44000000 		.4byte	.LFE60
 1441 0158 B0000000 		.4byte	.LLST4
 1442 015c 01       		.byte	0x1
 1443 015d 71010000 		.4byte	0x171
ARM GAS  C:\Users\makij\AppData\Local\Temp\ccMehpYi.s 			page 32


 1444 0161 0C       		.uleb128 0xc
 1445 0162 01       		.byte	0x1
 1446 0163 64010000 		.4byte	.LASF42
 1447 0167 01       		.byte	0x1
 1448 0168 3E       		.byte	0x3e
 1449 0169 6C000000 		.4byte	0x6c
 1450 016d 01       		.byte	0x1
 1451 016e 0D       		.uleb128 0xd
 1452 016f 00       		.byte	0
 1453 0170 00       		.byte	0
 1454 0171 0B       		.uleb128 0xb
 1455 0172 01       		.byte	0x1
 1456 0173 4E000000 		.4byte	.LASF26
 1457 0177 01       		.byte	0x1
 1458 0178 43       		.byte	0x43
 1459 0179 01       		.byte	0x1
 1460 017a 00000000 		.4byte	.LFB61
 1461 017e C0000000 		.4byte	.LFE61
 1462 0182 DC000000 		.4byte	.LLST5
 1463 0186 01       		.byte	0x1
 1464 0187 C3010000 		.4byte	0x1c3
 1465 018b 0E       		.uleb128 0xe
 1466 018c 68657800 		.ascii	"hex\000"
 1467 0190 01       		.byte	0x1
 1468 0191 43       		.byte	0x43
 1469 0192 AC000000 		.4byte	0xac
 1470 0196 02       		.byte	0x2
 1471 0197 91       		.byte	0x91
 1472 0198 4C       		.sleb128 -52
 1473 0199 0F       		.uleb128 0xf
 1474 019a 92020000 		.4byte	.LASF27
 1475 019e 01       		.byte	0x1
 1476 019f 45       		.byte	0x45
 1477 01a0 6C000000 		.4byte	0x6c
 1478 01a4 02       		.byte	0x2
 1479 01a5 91       		.byte	0x91
 1480 01a6 5C       		.sleb128 -36
 1481 01a7 0F       		.uleb128 0xf
 1482 01a8 9D000000 		.4byte	.LASF28
 1483 01ac 01       		.byte	0x1
 1484 01ad 48       		.byte	0x48
 1485 01ae C3010000 		.4byte	0x1c3
 1486 01b2 03       		.byte	0x3
 1487 01b3 91       		.byte	0x91
 1488 01b4 50       		.sleb128 -48
 1489 01b5 06       		.byte	0x6
 1490 01b6 10       		.uleb128 0x10
 1491 01b7 6900     		.ascii	"i\000"
 1492 01b9 01       		.byte	0x1
 1493 01ba 4A       		.byte	0x4a
 1494 01bb 6C000000 		.4byte	0x6c
 1495 01bf 02       		.byte	0x2
 1496 01c0 91       		.byte	0x91
 1497 01c1 58       		.sleb128 -40
 1498 01c2 00       		.byte	0
 1499 01c3 06       		.uleb128 0x6
 1500 01c4 9E000000 		.4byte	0x9e
ARM GAS  C:\Users\makij\AppData\Local\Temp\ccMehpYi.s 			page 33


 1501 01c8 D6010000 		.4byte	0x1d6
 1502 01cc 11       		.uleb128 0x11
 1503 01cd A5000000 		.4byte	0xa5
 1504 01d1 03       		.byte	0x3
 1505 01d2 91       		.byte	0x91
 1506 01d3 54       		.sleb128 -44
 1507 01d4 06       		.byte	0x6
 1508 01d5 00       		.byte	0
 1509 01d6 0B       		.uleb128 0xb
 1510 01d7 01       		.byte	0x1
 1511 01d8 41010000 		.4byte	.LASF29
 1512 01dc 01       		.byte	0x1
 1513 01dd 52       		.byte	0x52
 1514 01de 01       		.byte	0x1
 1515 01df 00000000 		.4byte	.LFB62
 1516 01e3 F8000000 		.4byte	.LFE62
 1517 01e7 14010000 		.4byte	.LLST6
 1518 01eb 01       		.byte	0x1
 1519 01ec 25020000 		.4byte	0x225
 1520 01f0 0E       		.uleb128 0xe
 1521 01f1 6E00     		.ascii	"n\000"
 1522 01f3 01       		.byte	0x1
 1523 01f4 52       		.byte	0x52
 1524 01f5 6C000000 		.4byte	0x6c
 1525 01f9 02       		.byte	0x2
 1526 01fa 91       		.byte	0x91
 1527 01fb 6C       		.sleb128 -20
 1528 01fc 0E       		.uleb128 0xe
 1529 01fd 68657800 		.ascii	"hex\000"
 1530 0201 01       		.byte	0x1
 1531 0202 52       		.byte	0x52
 1532 0203 25020000 		.4byte	0x225
 1533 0207 02       		.byte	0x2
 1534 0208 91       		.byte	0x91
 1535 0209 68       		.sleb128 -24
 1536 020a 10       		.uleb128 0x10
 1537 020b 6900     		.ascii	"i\000"
 1538 020d 01       		.byte	0x1
 1539 020e 54       		.byte	0x54
 1540 020f 6C000000 		.4byte	0x6c
 1541 0213 02       		.byte	0x2
 1542 0214 91       		.byte	0x91
 1543 0215 74       		.sleb128 -12
 1544 0216 10       		.uleb128 0x10
 1545 0217 72656D00 		.ascii	"rem\000"
 1546 021b 01       		.byte	0x1
 1547 021c 54       		.byte	0x54
 1548 021d 6C000000 		.4byte	0x6c
 1549 0221 02       		.byte	0x2
 1550 0222 91       		.byte	0x91
 1551 0223 70       		.sleb128 -16
 1552 0224 00       		.byte	0
 1553 0225 05       		.uleb128 0x5
 1554 0226 04       		.byte	0x4
 1555 0227 7A000000 		.4byte	0x7a
 1556 022b 12       		.uleb128 0x12
 1557 022c 01       		.byte	0x1
ARM GAS  C:\Users\makij\AppData\Local\Temp\ccMehpYi.s 			page 34


 1558 022d 92010000 		.4byte	.LASF30
 1559 0231 01       		.byte	0x1
 1560 0232 79       		.byte	0x79
 1561 0233 6C000000 		.4byte	0x6c
 1562 0237 00000000 		.4byte	.LFB63
 1563 023b 7A060000 		.4byte	.LFE63
 1564 023f 4C010000 		.4byte	.LLST7
 1565 0243 01       		.byte	0x1
 1566 0244 91020000 		.4byte	0x291
 1567 0248 0F       		.uleb128 0xf
 1568 0249 35000000 		.4byte	.LASF31
 1569 024d 01       		.byte	0x1
 1570 024e 7D       		.byte	0x7d
 1571 024f 85000000 		.4byte	0x85
 1572 0253 02       		.byte	0x2
 1573 0254 91       		.byte	0x91
 1574 0255 6A       		.sleb128 -22
 1575 0256 13       		.uleb128 0x13
 1576 0257 62000000 		.4byte	.LBB2
 1577 025b 3C060000 		.4byte	.LBE2
 1578 025f 10       		.uleb128 0x10
 1579 0260 6C00     		.ascii	"l\000"
 1580 0262 01       		.byte	0x1
 1581 0263 A0       		.byte	0xa0
 1582 0264 6C000000 		.4byte	0x6c
 1583 0268 02       		.byte	0x2
 1584 0269 91       		.byte	0x91
 1585 026a 74       		.sleb128 -12
 1586 026b 10       		.uleb128 0x10
 1587 026c 6C3200   		.ascii	"l2\000"
 1588 026f 01       		.byte	0x1
 1589 0270 A0       		.byte	0xa0
 1590 0271 6C000000 		.4byte	0x6c
 1591 0275 02       		.byte	0x2
 1592 0276 91       		.byte	0x91
 1593 0277 70       		.sleb128 -16
 1594 0278 13       		.uleb128 0x13
 1595 0279 00010000 		.4byte	.LBB3
 1596 027d 00060000 		.4byte	.LBE3
 1597 0281 10       		.uleb128 0x10
 1598 0282 6C3300   		.ascii	"l3\000"
 1599 0285 01       		.byte	0x1
 1600 0286 FA       		.byte	0xfa
 1601 0287 6C000000 		.4byte	0x6c
 1602 028b 02       		.byte	0x2
 1603 028c 91       		.byte	0x91
 1604 028d 6C       		.sleb128 -20
 1605 028e 00       		.byte	0
 1606 028f 00       		.byte	0
 1607 0290 00       		.byte	0
 1608 0291 14       		.uleb128 0x14
 1609 0292 01       		.byte	0x1
 1610 0293 5C000000 		.4byte	.LASF43
 1611 0297 01       		.byte	0x1
 1612 0298 1A01     		.2byte	0x11a
 1613 029a 00000000 		.4byte	.LFB64
 1614 029e 60000000 		.4byte	.LFE64
ARM GAS  C:\Users\makij\AppData\Local\Temp\ccMehpYi.s 			page 35


 1615 02a2 84010000 		.4byte	.LLST8
 1616 02a6 01       		.byte	0x1
 1617 02a7 15       		.uleb128 0x15
 1618 02a8 2F010000 		.4byte	.LASF32
 1619 02ac 05       		.byte	0x5
 1620 02ad 1606     		.2byte	0x616
 1621 02af B5020000 		.4byte	0x2b5
 1622 02b3 01       		.byte	0x1
 1623 02b4 01       		.byte	0x1
 1624 02b5 16       		.uleb128 0x16
 1625 02b6 45000000 		.4byte	0x45
 1626 02ba 17       		.uleb128 0x17
 1627 02bb 79020000 		.4byte	.LASF33
 1628 02bf 01       		.byte	0x1
 1629 02c0 15       		.byte	0x15
 1630 02c1 E4000000 		.4byte	0xe4
 1631 02c5 01       		.byte	0x1
 1632 02c6 05       		.byte	0x5
 1633 02c7 03       		.byte	0x3
 1634 02c8 00000000 		.4byte	currentState
 1635 02cc 06       		.uleb128 0x6
 1636 02cd 7A000000 		.4byte	0x7a
 1637 02d1 DC020000 		.4byte	0x2dc
 1638 02d5 07       		.uleb128 0x7
 1639 02d6 A5000000 		.4byte	0xa5
 1640 02da 4F       		.byte	0x4f
 1641 02db 00       		.byte	0
 1642 02dc 17       		.uleb128 0x17
 1643 02dd 1F010000 		.4byte	.LASF34
 1644 02e1 01       		.byte	0x1
 1645 02e2 18       		.byte	0x18
 1646 02e3 CC020000 		.4byte	0x2cc
 1647 02e7 01       		.byte	0x1
 1648 02e8 05       		.byte	0x5
 1649 02e9 03       		.byte	0x3
 1650 02ea 00000000 		.4byte	packetUSB
 1651 02ee 06       		.uleb128 0x6
 1652 02ef 7A000000 		.4byte	0x7a
 1653 02f3 FE020000 		.4byte	0x2fe
 1654 02f7 07       		.uleb128 0x7
 1655 02f8 A5000000 		.4byte	0xa5
 1656 02fc 9F       		.byte	0x9f
 1657 02fd 00       		.byte	0
 1658 02fe 17       		.uleb128 0x17
 1659 02ff F6010000 		.4byte	.LASF35
 1660 0303 01       		.byte	0x1
 1661 0304 19       		.byte	0x19
 1662 0305 EE020000 		.4byte	0x2ee
 1663 0309 01       		.byte	0x1
 1664 030a 05       		.byte	0x5
 1665 030b 03       		.byte	0x3
 1666 030c 00000000 		.4byte	packetHex
 1667 0310 17       		.uleb128 0x17
 1668 0311 7E000000 		.4byte	.LASF36
 1669 0315 01       		.byte	0x1
 1670 0316 1A       		.byte	0x1a
 1671 0317 B2000000 		.4byte	0xb2
ARM GAS  C:\Users\makij\AppData\Local\Temp\ccMehpYi.s 			page 36


 1672 031b 01       		.byte	0x1
 1673 031c 05       		.byte	0x5
 1674 031d 03       		.byte	0x3
 1675 031e 00000000 		.4byte	packetBinary
 1676 0322 06       		.uleb128 0x6
 1677 0323 7A000000 		.4byte	0x7a
 1678 0327 33030000 		.4byte	0x333
 1679 032b 18       		.uleb128 0x18
 1680 032c A5000000 		.4byte	0xa5
 1681 0330 7F02     		.2byte	0x27f
 1682 0332 00       		.byte	0
 1683 0333 17       		.uleb128 0x17
 1684 0334 59020000 		.4byte	.LASF37
 1685 0338 01       		.byte	0x1
 1686 0339 1B       		.byte	0x1b
 1687 033a 22030000 		.4byte	0x322
 1688 033e 01       		.byte	0x1
 1689 033f 05       		.byte	0x5
 1690 0340 03       		.byte	0x3
 1691 0341 00000000 		.4byte	packetSend
 1692 0345 19       		.uleb128 0x19
 1693 0346 64656300 		.ascii	"dec\000"
 1694 034a 01       		.byte	0x1
 1695 034b 1C       		.byte	0x1c
 1696 034c 7A000000 		.4byte	0x7a
 1697 0350 01       		.byte	0x1
 1698 0351 05       		.byte	0x5
 1699 0352 03       		.byte	0x3
 1700 0353 00000000 		.4byte	dec
 1701 0357 17       		.uleb128 0x17
 1702 0358 D6010000 		.4byte	.LASF38
 1703 035c 01       		.byte	0x1
 1704 035d 1E       		.byte	0x1e
 1705 035e 6C000000 		.4byte	0x6c
 1706 0362 01       		.byte	0x1
 1707 0363 05       		.byte	0x5
 1708 0364 03       		.byte	0x3
 1709 0365 00000000 		.4byte	i_send
 1710 0369 00       		.byte	0
 1711              		.section	.debug_abbrev,"",%progbits
 1712              	.Ldebug_abbrev0:
 1713 0000 01       		.uleb128 0x1
 1714 0001 11       		.uleb128 0x11
 1715 0002 01       		.byte	0x1
 1716 0003 25       		.uleb128 0x25
 1717 0004 0E       		.uleb128 0xe
 1718 0005 13       		.uleb128 0x13
 1719 0006 0B       		.uleb128 0xb
 1720 0007 03       		.uleb128 0x3
 1721 0008 0E       		.uleb128 0xe
 1722 0009 1B       		.uleb128 0x1b
 1723 000a 0E       		.uleb128 0xe
 1724 000b 55       		.uleb128 0x55
 1725 000c 06       		.uleb128 0x6
 1726 000d 11       		.uleb128 0x11
 1727 000e 01       		.uleb128 0x1
 1728 000f 52       		.uleb128 0x52
ARM GAS  C:\Users\makij\AppData\Local\Temp\ccMehpYi.s 			page 37


 1729 0010 01       		.uleb128 0x1
 1730 0011 10       		.uleb128 0x10
 1731 0012 06       		.uleb128 0x6
 1732 0013 00       		.byte	0
 1733 0014 00       		.byte	0
 1734 0015 02       		.uleb128 0x2
 1735 0016 24       		.uleb128 0x24
 1736 0017 00       		.byte	0
 1737 0018 0B       		.uleb128 0xb
 1738 0019 0B       		.uleb128 0xb
 1739 001a 3E       		.uleb128 0x3e
 1740 001b 0B       		.uleb128 0xb
 1741 001c 03       		.uleb128 0x3
 1742 001d 0E       		.uleb128 0xe
 1743 001e 00       		.byte	0
 1744 001f 00       		.byte	0
 1745 0020 03       		.uleb128 0x3
 1746 0021 16       		.uleb128 0x16
 1747 0022 00       		.byte	0
 1748 0023 03       		.uleb128 0x3
 1749 0024 0E       		.uleb128 0xe
 1750 0025 3A       		.uleb128 0x3a
 1751 0026 0B       		.uleb128 0xb
 1752 0027 3B       		.uleb128 0x3b
 1753 0028 0B       		.uleb128 0xb
 1754 0029 49       		.uleb128 0x49
 1755 002a 13       		.uleb128 0x13
 1756 002b 00       		.byte	0
 1757 002c 00       		.byte	0
 1758 002d 04       		.uleb128 0x4
 1759 002e 24       		.uleb128 0x24
 1760 002f 00       		.byte	0
 1761 0030 0B       		.uleb128 0xb
 1762 0031 0B       		.uleb128 0xb
 1763 0032 3E       		.uleb128 0x3e
 1764 0033 0B       		.uleb128 0xb
 1765 0034 03       		.uleb128 0x3
 1766 0035 08       		.uleb128 0x8
 1767 0036 00       		.byte	0
 1768 0037 00       		.byte	0
 1769 0038 05       		.uleb128 0x5
 1770 0039 0F       		.uleb128 0xf
 1771 003a 00       		.byte	0
 1772 003b 0B       		.uleb128 0xb
 1773 003c 0B       		.uleb128 0xb
 1774 003d 49       		.uleb128 0x49
 1775 003e 13       		.uleb128 0x13
 1776 003f 00       		.byte	0
 1777 0040 00       		.byte	0
 1778 0041 06       		.uleb128 0x6
 1779 0042 01       		.uleb128 0x1
 1780 0043 01       		.byte	0x1
 1781 0044 49       		.uleb128 0x49
 1782 0045 13       		.uleb128 0x13
 1783 0046 01       		.uleb128 0x1
 1784 0047 13       		.uleb128 0x13
 1785 0048 00       		.byte	0
ARM GAS  C:\Users\makij\AppData\Local\Temp\ccMehpYi.s 			page 38


 1786 0049 00       		.byte	0
 1787 004a 07       		.uleb128 0x7
 1788 004b 21       		.uleb128 0x21
 1789 004c 00       		.byte	0
 1790 004d 49       		.uleb128 0x49
 1791 004e 13       		.uleb128 0x13
 1792 004f 2F       		.uleb128 0x2f
 1793 0050 0B       		.uleb128 0xb
 1794 0051 00       		.byte	0
 1795 0052 00       		.byte	0
 1796 0053 08       		.uleb128 0x8
 1797 0054 04       		.uleb128 0x4
 1798 0055 01       		.byte	0x1
 1799 0056 0B       		.uleb128 0xb
 1800 0057 0B       		.uleb128 0xb
 1801 0058 3A       		.uleb128 0x3a
 1802 0059 0B       		.uleb128 0xb
 1803 005a 3B       		.uleb128 0x3b
 1804 005b 0B       		.uleb128 0xb
 1805 005c 01       		.uleb128 0x1
 1806 005d 13       		.uleb128 0x13
 1807 005e 00       		.byte	0
 1808 005f 00       		.byte	0
 1809 0060 09       		.uleb128 0x9
 1810 0061 28       		.uleb128 0x28
 1811 0062 00       		.byte	0
 1812 0063 03       		.uleb128 0x3
 1813 0064 0E       		.uleb128 0xe
 1814 0065 1C       		.uleb128 0x1c
 1815 0066 0D       		.uleb128 0xd
 1816 0067 00       		.byte	0
 1817 0068 00       		.byte	0
 1818 0069 0A       		.uleb128 0xa
 1819 006a 2E       		.uleb128 0x2e
 1820 006b 00       		.byte	0
 1821 006c 3F       		.uleb128 0x3f
 1822 006d 0C       		.uleb128 0xc
 1823 006e 03       		.uleb128 0x3
 1824 006f 0E       		.uleb128 0xe
 1825 0070 3A       		.uleb128 0x3a
 1826 0071 0B       		.uleb128 0xb
 1827 0072 3B       		.uleb128 0x3b
 1828 0073 0B       		.uleb128 0xb
 1829 0074 27       		.uleb128 0x27
 1830 0075 0C       		.uleb128 0xc
 1831 0076 11       		.uleb128 0x11
 1832 0077 01       		.uleb128 0x1
 1833 0078 12       		.uleb128 0x12
 1834 0079 01       		.uleb128 0x1
 1835 007a 40       		.uleb128 0x40
 1836 007b 06       		.uleb128 0x6
 1837 007c 9642     		.uleb128 0x2116
 1838 007e 0C       		.uleb128 0xc
 1839 007f 00       		.byte	0
 1840 0080 00       		.byte	0
 1841 0081 0B       		.uleb128 0xb
 1842 0082 2E       		.uleb128 0x2e
ARM GAS  C:\Users\makij\AppData\Local\Temp\ccMehpYi.s 			page 39


 1843 0083 01       		.byte	0x1
 1844 0084 3F       		.uleb128 0x3f
 1845 0085 0C       		.uleb128 0xc
 1846 0086 03       		.uleb128 0x3
 1847 0087 0E       		.uleb128 0xe
 1848 0088 3A       		.uleb128 0x3a
 1849 0089 0B       		.uleb128 0xb
 1850 008a 3B       		.uleb128 0x3b
 1851 008b 0B       		.uleb128 0xb
 1852 008c 27       		.uleb128 0x27
 1853 008d 0C       		.uleb128 0xc
 1854 008e 11       		.uleb128 0x11
 1855 008f 01       		.uleb128 0x1
 1856 0090 12       		.uleb128 0x12
 1857 0091 01       		.uleb128 0x1
 1858 0092 40       		.uleb128 0x40
 1859 0093 06       		.uleb128 0x6
 1860 0094 9642     		.uleb128 0x2116
 1861 0096 0C       		.uleb128 0xc
 1862 0097 01       		.uleb128 0x1
 1863 0098 13       		.uleb128 0x13
 1864 0099 00       		.byte	0
 1865 009a 00       		.byte	0
 1866 009b 0C       		.uleb128 0xc
 1867 009c 2E       		.uleb128 0x2e
 1868 009d 01       		.byte	0x1
 1869 009e 3F       		.uleb128 0x3f
 1870 009f 0C       		.uleb128 0xc
 1871 00a0 03       		.uleb128 0x3
 1872 00a1 0E       		.uleb128 0xe
 1873 00a2 3A       		.uleb128 0x3a
 1874 00a3 0B       		.uleb128 0xb
 1875 00a4 3B       		.uleb128 0x3b
 1876 00a5 0B       		.uleb128 0xb
 1877 00a6 49       		.uleb128 0x49
 1878 00a7 13       		.uleb128 0x13
 1879 00a8 3C       		.uleb128 0x3c
 1880 00a9 0C       		.uleb128 0xc
 1881 00aa 00       		.byte	0
 1882 00ab 00       		.byte	0
 1883 00ac 0D       		.uleb128 0xd
 1884 00ad 18       		.uleb128 0x18
 1885 00ae 00       		.byte	0
 1886 00af 00       		.byte	0
 1887 00b0 00       		.byte	0
 1888 00b1 0E       		.uleb128 0xe
 1889 00b2 05       		.uleb128 0x5
 1890 00b3 00       		.byte	0
 1891 00b4 03       		.uleb128 0x3
 1892 00b5 08       		.uleb128 0x8
 1893 00b6 3A       		.uleb128 0x3a
 1894 00b7 0B       		.uleb128 0xb
 1895 00b8 3B       		.uleb128 0x3b
 1896 00b9 0B       		.uleb128 0xb
 1897 00ba 49       		.uleb128 0x49
 1898 00bb 13       		.uleb128 0x13
 1899 00bc 02       		.uleb128 0x2
ARM GAS  C:\Users\makij\AppData\Local\Temp\ccMehpYi.s 			page 40


 1900 00bd 0A       		.uleb128 0xa
 1901 00be 00       		.byte	0
 1902 00bf 00       		.byte	0
 1903 00c0 0F       		.uleb128 0xf
 1904 00c1 34       		.uleb128 0x34
 1905 00c2 00       		.byte	0
 1906 00c3 03       		.uleb128 0x3
 1907 00c4 0E       		.uleb128 0xe
 1908 00c5 3A       		.uleb128 0x3a
 1909 00c6 0B       		.uleb128 0xb
 1910 00c7 3B       		.uleb128 0x3b
 1911 00c8 0B       		.uleb128 0xb
 1912 00c9 49       		.uleb128 0x49
 1913 00ca 13       		.uleb128 0x13
 1914 00cb 02       		.uleb128 0x2
 1915 00cc 0A       		.uleb128 0xa
 1916 00cd 00       		.byte	0
 1917 00ce 00       		.byte	0
 1918 00cf 10       		.uleb128 0x10
 1919 00d0 34       		.uleb128 0x34
 1920 00d1 00       		.byte	0
 1921 00d2 03       		.uleb128 0x3
 1922 00d3 08       		.uleb128 0x8
 1923 00d4 3A       		.uleb128 0x3a
 1924 00d5 0B       		.uleb128 0xb
 1925 00d6 3B       		.uleb128 0x3b
 1926 00d7 0B       		.uleb128 0xb
 1927 00d8 49       		.uleb128 0x49
 1928 00d9 13       		.uleb128 0x13
 1929 00da 02       		.uleb128 0x2
 1930 00db 0A       		.uleb128 0xa
 1931 00dc 00       		.byte	0
 1932 00dd 00       		.byte	0
 1933 00de 11       		.uleb128 0x11
 1934 00df 21       		.uleb128 0x21
 1935 00e0 00       		.byte	0
 1936 00e1 49       		.uleb128 0x49
 1937 00e2 13       		.uleb128 0x13
 1938 00e3 2F       		.uleb128 0x2f
 1939 00e4 0A       		.uleb128 0xa
 1940 00e5 00       		.byte	0
 1941 00e6 00       		.byte	0
 1942 00e7 12       		.uleb128 0x12
 1943 00e8 2E       		.uleb128 0x2e
 1944 00e9 01       		.byte	0x1
 1945 00ea 3F       		.uleb128 0x3f
 1946 00eb 0C       		.uleb128 0xc
 1947 00ec 03       		.uleb128 0x3
 1948 00ed 0E       		.uleb128 0xe
 1949 00ee 3A       		.uleb128 0x3a
 1950 00ef 0B       		.uleb128 0xb
 1951 00f0 3B       		.uleb128 0x3b
 1952 00f1 0B       		.uleb128 0xb
 1953 00f2 49       		.uleb128 0x49
 1954 00f3 13       		.uleb128 0x13
 1955 00f4 11       		.uleb128 0x11
 1956 00f5 01       		.uleb128 0x1
ARM GAS  C:\Users\makij\AppData\Local\Temp\ccMehpYi.s 			page 41


 1957 00f6 12       		.uleb128 0x12
 1958 00f7 01       		.uleb128 0x1
 1959 00f8 40       		.uleb128 0x40
 1960 00f9 06       		.uleb128 0x6
 1961 00fa 9642     		.uleb128 0x2116
 1962 00fc 0C       		.uleb128 0xc
 1963 00fd 01       		.uleb128 0x1
 1964 00fe 13       		.uleb128 0x13
 1965 00ff 00       		.byte	0
 1966 0100 00       		.byte	0
 1967 0101 13       		.uleb128 0x13
 1968 0102 0B       		.uleb128 0xb
 1969 0103 01       		.byte	0x1
 1970 0104 11       		.uleb128 0x11
 1971 0105 01       		.uleb128 0x1
 1972 0106 12       		.uleb128 0x12
 1973 0107 01       		.uleb128 0x1
 1974 0108 00       		.byte	0
 1975 0109 00       		.byte	0
 1976 010a 14       		.uleb128 0x14
 1977 010b 2E       		.uleb128 0x2e
 1978 010c 00       		.byte	0
 1979 010d 3F       		.uleb128 0x3f
 1980 010e 0C       		.uleb128 0xc
 1981 010f 03       		.uleb128 0x3
 1982 0110 0E       		.uleb128 0xe
 1983 0111 3A       		.uleb128 0x3a
 1984 0112 0B       		.uleb128 0xb
 1985 0113 3B       		.uleb128 0x3b
 1986 0114 05       		.uleb128 0x5
 1987 0115 11       		.uleb128 0x11
 1988 0116 01       		.uleb128 0x1
 1989 0117 12       		.uleb128 0x12
 1990 0118 01       		.uleb128 0x1
 1991 0119 40       		.uleb128 0x40
 1992 011a 06       		.uleb128 0x6
 1993 011b 9642     		.uleb128 0x2116
 1994 011d 0C       		.uleb128 0xc
 1995 011e 00       		.byte	0
 1996 011f 00       		.byte	0
 1997 0120 15       		.uleb128 0x15
 1998 0121 34       		.uleb128 0x34
 1999 0122 00       		.byte	0
 2000 0123 03       		.uleb128 0x3
 2001 0124 0E       		.uleb128 0xe
 2002 0125 3A       		.uleb128 0x3a
 2003 0126 0B       		.uleb128 0xb
 2004 0127 3B       		.uleb128 0x3b
 2005 0128 05       		.uleb128 0x5
 2006 0129 49       		.uleb128 0x49
 2007 012a 13       		.uleb128 0x13
 2008 012b 3F       		.uleb128 0x3f
 2009 012c 0C       		.uleb128 0xc
 2010 012d 3C       		.uleb128 0x3c
 2011 012e 0C       		.uleb128 0xc
 2012 012f 00       		.byte	0
 2013 0130 00       		.byte	0
ARM GAS  C:\Users\makij\AppData\Local\Temp\ccMehpYi.s 			page 42


 2014 0131 16       		.uleb128 0x16
 2015 0132 35       		.uleb128 0x35
 2016 0133 00       		.byte	0
 2017 0134 49       		.uleb128 0x49
 2018 0135 13       		.uleb128 0x13
 2019 0136 00       		.byte	0
 2020 0137 00       		.byte	0
 2021 0138 17       		.uleb128 0x17
 2022 0139 34       		.uleb128 0x34
 2023 013a 00       		.byte	0
 2024 013b 03       		.uleb128 0x3
 2025 013c 0E       		.uleb128 0xe
 2026 013d 3A       		.uleb128 0x3a
 2027 013e 0B       		.uleb128 0xb
 2028 013f 3B       		.uleb128 0x3b
 2029 0140 0B       		.uleb128 0xb
 2030 0141 49       		.uleb128 0x49
 2031 0142 13       		.uleb128 0x13
 2032 0143 3F       		.uleb128 0x3f
 2033 0144 0C       		.uleb128 0xc
 2034 0145 02       		.uleb128 0x2
 2035 0146 0A       		.uleb128 0xa
 2036 0147 00       		.byte	0
 2037 0148 00       		.byte	0
 2038 0149 18       		.uleb128 0x18
 2039 014a 21       		.uleb128 0x21
 2040 014b 00       		.byte	0
 2041 014c 49       		.uleb128 0x49
 2042 014d 13       		.uleb128 0x13
 2043 014e 2F       		.uleb128 0x2f
 2044 014f 05       		.uleb128 0x5
 2045 0150 00       		.byte	0
 2046 0151 00       		.byte	0
 2047 0152 19       		.uleb128 0x19
 2048 0153 34       		.uleb128 0x34
 2049 0154 00       		.byte	0
 2050 0155 03       		.uleb128 0x3
 2051 0156 08       		.uleb128 0x8
 2052 0157 3A       		.uleb128 0x3a
 2053 0158 0B       		.uleb128 0xb
 2054 0159 3B       		.uleb128 0x3b
 2055 015a 0B       		.uleb128 0xb
 2056 015b 49       		.uleb128 0x49
 2057 015c 13       		.uleb128 0x13
 2058 015d 3F       		.uleb128 0x3f
 2059 015e 0C       		.uleb128 0xc
 2060 015f 02       		.uleb128 0x2
 2061 0160 0A       		.uleb128 0xa
 2062 0161 00       		.byte	0
 2063 0162 00       		.byte	0
 2064 0163 00       		.byte	0
 2065              		.section	.debug_loc,"",%progbits
 2066              	.Ldebug_loc0:
 2067              	.LLST0:
 2068 0000 00000000 		.4byte	.LFB56
 2069 0004 02000000 		.4byte	.LCFI0
 2070 0008 0200     		.2byte	0x2
ARM GAS  C:\Users\makij\AppData\Local\Temp\ccMehpYi.s 			page 43


 2071 000a 7D       		.byte	0x7d
 2072 000b 00       		.sleb128 0
 2073 000c 02000000 		.4byte	.LCFI0
 2074 0010 04000000 		.4byte	.LCFI1
 2075 0014 0200     		.2byte	0x2
 2076 0016 7D       		.byte	0x7d
 2077 0017 08       		.sleb128 8
 2078 0018 04000000 		.4byte	.LCFI1
 2079 001c 20000000 		.4byte	.LFE56
 2080 0020 0200     		.2byte	0x2
 2081 0022 77       		.byte	0x77
 2082 0023 08       		.sleb128 8
 2083 0024 00000000 		.4byte	0
 2084 0028 00000000 		.4byte	0
 2085              	.LLST1:
 2086 002c 00000000 		.4byte	.LFB57
 2087 0030 02000000 		.4byte	.LCFI2
 2088 0034 0200     		.2byte	0x2
 2089 0036 7D       		.byte	0x7d
 2090 0037 00       		.sleb128 0
 2091 0038 02000000 		.4byte	.LCFI2
 2092 003c 04000000 		.4byte	.LCFI3
 2093 0040 0200     		.2byte	0x2
 2094 0042 7D       		.byte	0x7d
 2095 0043 08       		.sleb128 8
 2096 0044 04000000 		.4byte	.LCFI3
 2097 0048 20000000 		.4byte	.LFE57
 2098 004c 0200     		.2byte	0x2
 2099 004e 77       		.byte	0x77
 2100 004f 08       		.sleb128 8
 2101 0050 00000000 		.4byte	0
 2102 0054 00000000 		.4byte	0
 2103              	.LLST2:
 2104 0058 00000000 		.4byte	.LFB58
 2105 005c 02000000 		.4byte	.LCFI4
 2106 0060 0200     		.2byte	0x2
 2107 0062 7D       		.byte	0x7d
 2108 0063 00       		.sleb128 0
 2109 0064 02000000 		.4byte	.LCFI4
 2110 0068 04000000 		.4byte	.LCFI5
 2111 006c 0200     		.2byte	0x2
 2112 006e 7D       		.byte	0x7d
 2113 006f 08       		.sleb128 8
 2114 0070 04000000 		.4byte	.LCFI5
 2115 0074 1C000000 		.4byte	.LFE58
 2116 0078 0200     		.2byte	0x2
 2117 007a 77       		.byte	0x77
 2118 007b 08       		.sleb128 8
 2119 007c 00000000 		.4byte	0
 2120 0080 00000000 		.4byte	0
 2121              	.LLST3:
 2122 0084 00000000 		.4byte	.LFB59
 2123 0088 02000000 		.4byte	.LCFI6
 2124 008c 0200     		.2byte	0x2
 2125 008e 7D       		.byte	0x7d
 2126 008f 00       		.sleb128 0
 2127 0090 02000000 		.4byte	.LCFI6
ARM GAS  C:\Users\makij\AppData\Local\Temp\ccMehpYi.s 			page 44


 2128 0094 04000000 		.4byte	.LCFI7
 2129 0098 0200     		.2byte	0x2
 2130 009a 7D       		.byte	0x7d
 2131 009b 08       		.sleb128 8
 2132 009c 04000000 		.4byte	.LCFI7
 2133 00a0 1C000000 		.4byte	.LFE59
 2134 00a4 0200     		.2byte	0x2
 2135 00a6 77       		.byte	0x77
 2136 00a7 08       		.sleb128 8
 2137 00a8 00000000 		.4byte	0
 2138 00ac 00000000 		.4byte	0
 2139              	.LLST4:
 2140 00b0 00000000 		.4byte	.LFB60
 2141 00b4 02000000 		.4byte	.LCFI8
 2142 00b8 0200     		.2byte	0x2
 2143 00ba 7D       		.byte	0x7d
 2144 00bb 00       		.sleb128 0
 2145 00bc 02000000 		.4byte	.LCFI8
 2146 00c0 04000000 		.4byte	.LCFI9
 2147 00c4 0200     		.2byte	0x2
 2148 00c6 7D       		.byte	0x7d
 2149 00c7 08       		.sleb128 8
 2150 00c8 04000000 		.4byte	.LCFI9
 2151 00cc 44000000 		.4byte	.LFE60
 2152 00d0 0200     		.2byte	0x2
 2153 00d2 77       		.byte	0x77
 2154 00d3 08       		.sleb128 8
 2155 00d4 00000000 		.4byte	0
 2156 00d8 00000000 		.4byte	0
 2157              	.LLST5:
 2158 00dc 00000000 		.4byte	.LFB61
 2159 00e0 04000000 		.4byte	.LCFI10
 2160 00e4 0200     		.2byte	0x2
 2161 00e6 7D       		.byte	0x7d
 2162 00e7 00       		.sleb128 0
 2163 00e8 04000000 		.4byte	.LCFI10
 2164 00ec 06000000 		.4byte	.LCFI11
 2165 00f0 0200     		.2byte	0x2
 2166 00f2 7D       		.byte	0x7d
 2167 00f3 1C       		.sleb128 28
 2168 00f4 06000000 		.4byte	.LCFI11
 2169 00f8 08000000 		.4byte	.LCFI12
 2170 00fc 0200     		.2byte	0x2
 2171 00fe 7D       		.byte	0x7d
 2172 00ff 38       		.sleb128 56
 2173 0100 08000000 		.4byte	.LCFI12
 2174 0104 C0000000 		.4byte	.LFE61
 2175 0108 0200     		.2byte	0x2
 2176 010a 77       		.byte	0x77
 2177 010b 38       		.sleb128 56
 2178 010c 00000000 		.4byte	0
 2179 0110 00000000 		.4byte	0
 2180              	.LLST6:
 2181 0114 00000000 		.4byte	.LFB62
 2182 0118 02000000 		.4byte	.LCFI13
 2183 011c 0200     		.2byte	0x2
 2184 011e 7D       		.byte	0x7d
ARM GAS  C:\Users\makij\AppData\Local\Temp\ccMehpYi.s 			page 45


 2185 011f 00       		.sleb128 0
 2186 0120 02000000 		.4byte	.LCFI13
 2187 0124 04000000 		.4byte	.LCFI14
 2188 0128 0200     		.2byte	0x2
 2189 012a 7D       		.byte	0x7d
 2190 012b 08       		.sleb128 8
 2191 012c 04000000 		.4byte	.LCFI14
 2192 0130 06000000 		.4byte	.LCFI15
 2193 0134 0200     		.2byte	0x2
 2194 0136 7D       		.byte	0x7d
 2195 0137 18       		.sleb128 24
 2196 0138 06000000 		.4byte	.LCFI15
 2197 013c F8000000 		.4byte	.LFE62
 2198 0140 0200     		.2byte	0x2
 2199 0142 77       		.byte	0x77
 2200 0143 18       		.sleb128 24
 2201 0144 00000000 		.4byte	0
 2202 0148 00000000 		.4byte	0
 2203              	.LLST7:
 2204 014c 00000000 		.4byte	.LFB63
 2205 0150 02000000 		.4byte	.LCFI16
 2206 0154 0200     		.2byte	0x2
 2207 0156 7D       		.byte	0x7d
 2208 0157 00       		.sleb128 0
 2209 0158 02000000 		.4byte	.LCFI16
 2210 015c 04000000 		.4byte	.LCFI17
 2211 0160 0200     		.2byte	0x2
 2212 0162 7D       		.byte	0x7d
 2213 0163 08       		.sleb128 8
 2214 0164 04000000 		.4byte	.LCFI17
 2215 0168 06000000 		.4byte	.LCFI18
 2216 016c 0200     		.2byte	0x2
 2217 016e 7D       		.byte	0x7d
 2218 016f 18       		.sleb128 24
 2219 0170 06000000 		.4byte	.LCFI18
 2220 0174 7A060000 		.4byte	.LFE63
 2221 0178 0200     		.2byte	0x2
 2222 017a 77       		.byte	0x77
 2223 017b 18       		.sleb128 24
 2224 017c 00000000 		.4byte	0
 2225 0180 00000000 		.4byte	0
 2226              	.LLST8:
 2227 0184 00000000 		.4byte	.LFB64
 2228 0188 02000000 		.4byte	.LCFI19
 2229 018c 0200     		.2byte	0x2
 2230 018e 7D       		.byte	0x7d
 2231 018f 00       		.sleb128 0
 2232 0190 02000000 		.4byte	.LCFI19
 2233 0194 04000000 		.4byte	.LCFI20
 2234 0198 0200     		.2byte	0x2
 2235 019a 7D       		.byte	0x7d
 2236 019b 08       		.sleb128 8
 2237 019c 04000000 		.4byte	.LCFI20
 2238 01a0 60000000 		.4byte	.LFE64
 2239 01a4 0200     		.2byte	0x2
 2240 01a6 77       		.byte	0x77
 2241 01a7 08       		.sleb128 8
ARM GAS  C:\Users\makij\AppData\Local\Temp\ccMehpYi.s 			page 46


 2242 01a8 00000000 		.4byte	0
 2243 01ac 00000000 		.4byte	0
 2244              		.section	.debug_aranges,"",%progbits
 2245 0000 5C000000 		.4byte	0x5c
 2246 0004 0200     		.2byte	0x2
 2247 0006 00000000 		.4byte	.Ldebug_info0
 2248 000a 04       		.byte	0x4
 2249 000b 00       		.byte	0
 2250 000c 0000     		.2byte	0
 2251 000e 0000     		.2byte	0
 2252 0010 00000000 		.4byte	.LFB56
 2253 0014 20000000 		.4byte	.LFE56-.LFB56
 2254 0018 00000000 		.4byte	.LFB57
 2255 001c 20000000 		.4byte	.LFE57-.LFB57
 2256 0020 00000000 		.4byte	.LFB58
 2257 0024 1C000000 		.4byte	.LFE58-.LFB58
 2258 0028 00000000 		.4byte	.LFB59
 2259 002c 1C000000 		.4byte	.LFE59-.LFB59
 2260 0030 00000000 		.4byte	.LFB60
 2261 0034 44000000 		.4byte	.LFE60-.LFB60
 2262 0038 00000000 		.4byte	.LFB61
 2263 003c C0000000 		.4byte	.LFE61-.LFB61
 2264 0040 00000000 		.4byte	.LFB62
 2265 0044 F8000000 		.4byte	.LFE62-.LFB62
 2266 0048 00000000 		.4byte	.LFB63
 2267 004c 7A060000 		.4byte	.LFE63-.LFB63
 2268 0050 00000000 		.4byte	.LFB64
 2269 0054 60000000 		.4byte	.LFE64-.LFB64
 2270 0058 00000000 		.4byte	0
 2271 005c 00000000 		.4byte	0
 2272              		.section	.debug_ranges,"",%progbits
 2273              	.Ldebug_ranges0:
 2274 0000 00000000 		.4byte	.LFB56
 2275 0004 20000000 		.4byte	.LFE56
 2276 0008 00000000 		.4byte	.LFB57
 2277 000c 20000000 		.4byte	.LFE57
 2278 0010 00000000 		.4byte	.LFB58
 2279 0014 1C000000 		.4byte	.LFE58
 2280 0018 00000000 		.4byte	.LFB59
 2281 001c 1C000000 		.4byte	.LFE59
 2282 0020 00000000 		.4byte	.LFB60
 2283 0024 44000000 		.4byte	.LFE60
 2284 0028 00000000 		.4byte	.LFB61
 2285 002c C0000000 		.4byte	.LFE61
 2286 0030 00000000 		.4byte	.LFB62
 2287 0034 F8000000 		.4byte	.LFE62
 2288 0038 00000000 		.4byte	.LFB63
 2289 003c 7A060000 		.4byte	.LFE63
 2290 0040 00000000 		.4byte	.LFB64
 2291 0044 60000000 		.4byte	.LFE64
 2292 0048 00000000 		.4byte	0
 2293 004c 00000000 		.4byte	0
 2294              		.section	.debug_line,"",%progbits
 2295              	.Ldebug_line0:
 2296 0000 AF020000 		.section	.debug_str,"MS",%progbits,1
 2296      02000501 
 2296      00000201 
ARM GAS  C:\Users\makij\AppData\Local\Temp\ccMehpYi.s 			page 47


 2296      FB0E0D00 
 2296      01010101 
 2297              	.LASF6:
 2298 0000 6C6F6E67 		.ascii	"long long int\000"
 2298      206C6F6E 
 2298      6720696E 
 2298      7400
 2299              	.LASF21:
 2300 000e 6973725F 		.ascii	"isr_FallingEdgeDetected\000"
 2300      46616C6C 
 2300      696E6745 
 2300      64676544 
 2300      65746563 
 2301              	.LASF23:
 2302 0026 6973725F 		.ascii	"isr_BusyToIdle\000"
 2302      42757379 
 2302      546F4964 
 2302      6C6500
 2303              	.LASF31:
 2304 0035 636F756E 		.ascii	"count\000"
 2304      7400
 2305              	.LASF3:
 2306 003b 73686F72 		.ascii	"short unsigned int\000"
 2306      7420756E 
 2306      7369676E 
 2306      65642069 
 2306      6E7400
 2307              	.LASF26:
 2308 004e 6D797374 		.ascii	"mystrrev\000"
 2308      72726576 
 2308      00
 2309              	.LASF17:
 2310 0057 49444C45 		.ascii	"IDLE\000"
 2310      00
 2311              	.LASF43:
 2312 005c 696E6974 		.ascii	"init\000"
 2312      00
 2313              	.LASF40:
 2314 0061 2E5C6D61 		.ascii	".\\main.c\000"
 2314      696E2E63 
 2314      00
 2315              	.LASF12:
 2316 006a 666C6F61 		.ascii	"float\000"
 2316      7400
 2317              	.LASF1:
 2318 0070 756E7369 		.ascii	"unsigned char\000"
 2318      676E6564 
 2318      20636861 
 2318      7200
 2319              	.LASF36:
 2320 007e 7061636B 		.ascii	"packetBinary\000"
 2320      65744269 
 2320      6E617279 
 2320      00
 2321              	.LASF5:
 2322 008b 6C6F6E67 		.ascii	"long unsigned int\000"
 2322      20756E73 
ARM GAS  C:\Users\makij\AppData\Local\Temp\ccMehpYi.s 			page 48


 2322      69676E65 
 2322      6420696E 
 2322      7400
 2323              	.LASF28:
 2324 009d 74656D70 		.ascii	"temp\000"
 2324      00
 2325              	.LASF41:
 2326 00a2 443A5C4D 		.ascii	"D:\\MSOE\\2014-2015\\Winter\\CE4950_021_Network\\la"
 2326      534F455C 
 2326      32303134 
 2326      2D323031 
 2326      355C5769 
 2327 00d0 625C5072 		.ascii	"b\\Project\\ce4950Project\\Networking\\Networking P"
 2327      6F6A6563 
 2327      745C6365 
 2327      34393530 
 2327      50726F6A 
 2328 00ff 726F6A65 		.ascii	"roject\\Networking Project.cydsn\000"
 2328      63745C4E 
 2328      6574776F 
 2328      726B696E 
 2328      67205072 
 2329              	.LASF34:
 2330 011f 7061636B 		.ascii	"packetUSB\000"
 2330      65745553 
 2330      4200
 2331              	.LASF20:
 2332 0129 53746174 		.ascii	"State\000"
 2332      6500
 2333              	.LASF32:
 2334 012f 49544D5F 		.ascii	"ITM_RxBuffer\000"
 2334      52784275 
 2334      66666572 
 2334      00
 2335              	.LASF18:
 2336 013c 42555359 		.ascii	"BUSY\000"
 2336      00
 2337              	.LASF29:
 2338 0141 64656369 		.ascii	"decimal_hex\000"
 2338      6D616C5F 
 2338      68657800 
 2339              	.LASF13:
 2340 014d 646F7562 		.ascii	"double\000"
 2340      6C6500
 2341              	.LASF25:
 2342 0154 6973725F 		.ascii	"isr_sendingData\000"
 2342      73656E64 
 2342      696E6744 
 2342      61746100 
 2343              	.LASF42:
 2344 0164 4C43445F 		.ascii	"LCD_PrintString\000"
 2344      5072696E 
 2344      74537472 
 2344      696E6700 
 2345              	.LASF11:
 2346 0174 75696E74 		.ascii	"uint16\000"
 2346      313600
ARM GAS  C:\Users\makij\AppData\Local\Temp\ccMehpYi.s 			page 49


 2347              	.LASF22:
 2348 017b 6973725F 		.ascii	"isr_RisingEdgeDetected\000"
 2348      52697369 
 2348      6E674564 
 2348      67654465 
 2348      74656374 
 2349              	.LASF30:
 2350 0192 6D61696E 		.ascii	"main\000"
 2350      00
 2351              	.LASF8:
 2352 0197 756E7369 		.ascii	"unsigned int\000"
 2352      676E6564 
 2352      20696E74 
 2352      00
 2353              	.LASF7:
 2354 01a4 6C6F6E67 		.ascii	"long long unsigned int\000"
 2354      206C6F6E 
 2354      6720756E 
 2354      7369676E 
 2354      65642069 
 2355              	.LASF9:
 2356 01bb 696E7433 		.ascii	"int32_t\000"
 2356      325F7400 
 2357              	.LASF15:
 2358 01c3 73697A65 		.ascii	"sizetype\000"
 2358      74797065 
 2358      00
 2359              	.LASF19:
 2360 01cc 434F4C4C 		.ascii	"COLLISION\000"
 2360      4953494F 
 2360      4E00
 2361              	.LASF38:
 2362 01d6 695F7365 		.ascii	"i_send\000"
 2362      6E6400
 2363              	.LASF14:
 2364 01dd 63686172 		.ascii	"char\000"
 2364      00
 2365              	.LASF24:
 2366 01e2 6973725F 		.ascii	"isr_BusyToCollision\000"
 2366      42757379 
 2366      546F436F 
 2366      6C6C6973 
 2366      696F6E00 
 2367              	.LASF35:
 2368 01f6 7061636B 		.ascii	"packetHex\000"
 2368      65744865 
 2368      7800
 2369              	.LASF2:
 2370 0200 73686F72 		.ascii	"short int\000"
 2370      7420696E 
 2370      7400
 2371              	.LASF10:
 2372 020a 75696E74 		.ascii	"uint8\000"
 2372      3800
 2373              	.LASF39:
 2374 0210 474E5520 		.ascii	"GNU C 4.7.3 20130312 (release) [ARM/embedded-4_7-br"
 2374      4320342E 
ARM GAS  C:\Users\makij\AppData\Local\Temp\ccMehpYi.s 			page 50


 2374      372E3320 
 2374      32303133 
 2374      30333132 
 2375 0243 616E6368 		.ascii	"anch revision 196615]\000"
 2375      20726576 
 2375      6973696F 
 2375      6E203139 
 2375      36363135 
 2376              	.LASF37:
 2377 0259 7061636B 		.ascii	"packetSend\000"
 2377      65745365 
 2377      6E6400
 2378              	.LASF4:
 2379 0264 6C6F6E67 		.ascii	"long int\000"
 2379      20696E74 
 2379      00
 2380              	.LASF16:
 2381 026d 6C6F6E67 		.ascii	"long double\000"
 2381      20646F75 
 2381      626C6500 
 2382              	.LASF33:
 2383 0279 63757272 		.ascii	"currentState\000"
 2383      656E7453 
 2383      74617465 
 2383      00
 2384              	.LASF0:
 2385 0286 7369676E 		.ascii	"signed char\000"
 2385      65642063 
 2385      68617200 
 2386              	.LASF27:
 2387 0292 6C656E67 		.ascii	"length\000"
 2387      746800
 2388              		.ident	"GCC: (GNU Tools for ARM Embedded Processors) 4.7.3 20130312 (release) [ARM/embedded-4_7-br
