ARM GAS  C:\Users\makij\AppData\Local\Temp\cclyfLhl.s 			page 1


   1              		.syntax unified
   2              		.cpu cortex-m3
   3              		.fpu softvfp
   4              		.eabi_attribute 20, 1
   5              		.eabi_attribute 21, 1
   6              		.eabi_attribute 23, 3
   7              		.eabi_attribute 24, 1
   8              		.eabi_attribute 25, 1
   9              		.eabi_attribute 26, 1
  10              		.eabi_attribute 30, 6
  11              		.eabi_attribute 34, 1
  12              		.eabi_attribute 18, 4
  13              		.thumb
  14              		.file	"main.c"
  15              		.text
  16              	.Ltext0:
  17              		.cfi_sections	.debug_frame
  18              		.comm	buffer,1,4
  19              		.comm	usb,80,4
  20              		.comm	hex,160,4
  21              		.comm	packetBin,4,4
  22              		.comm	packetSend,640,4
  23              		.comm	dec,4,4
  24              		.global	messageSize
  25              		.bss
  26              		.align	2
  27              		.type	messageSize, %object
  28              		.size	messageSize, 4
  29              	messageSize:
  30 0000 00000000 		.space	4
  31              		.global	returnFound
  32              		.type	returnFound, %object
  33              		.size	returnFound, 1
  34              	returnFound:
  35 0004 00       		.space	1
  36              		.comm	messageReady,1,1
  37              		.global	signal
  38              		.data
  39              		.align	2
  40              		.type	signal, %object
  41              		.size	signal, 4
  42              	signal:
  43 0000 01000000 		.word	1
  44              		.comm	packetUSB,80,4
  45              		.comm	packetMessage,80,4
  46              		.comm	packetHex,160,4
  47              		.comm	packetBinary,4,4
  48              		.global	dataReady
  49              		.bss
  50              		.type	dataReady, %object
  51              		.size	dataReady, 1
  52              	dataReady:
  53 0005 00       		.space	1
  54              		.global	i_send
  55 0006 0000     		.align	2
  56              		.type	i_send, %object
  57              		.size	i_send, 4
ARM GAS  C:\Users\makij\AppData\Local\Temp\cclyfLhl.s 			page 2


  58              	i_send:
  59 0008 00000000 		.space	4
  60              		.global	messageBufferPosition
  61              		.type	messageBufferPosition, %object
  62              		.size	messageBufferPosition, 1
  63              	messageBufferPosition:
  64 000c 00       		.space	1
  65              		.global	currentState
  66              		.type	currentState, %object
  67              		.size	currentState, 1
  68              	currentState:
  69 000d 00       		.space	1
  70 000e 0000     		.section	.text.printbinchar,"ax",%progbits
  71              		.align	2
  72              		.global	printbinchar
  73              		.thumb
  74              		.thumb_func
  75              		.type	printbinchar, %function
  76              	printbinchar:
  77              	.LFB56:
  78              		.file 1 ".\\main.c"
   1:.\main.c      **** /* ========================================
   2:.\main.c      ****  *
   3:.\main.c      ****  * Copyright YOUR COMPANY, THE YEAR
   4:.\main.c      ****  * All Rights Reserved
   5:.\main.c      ****  * UNPUBLISHED, LICENSED SOFTWARE.
   6:.\main.c      ****  *
   7:.\main.c      ****  * CONFIDENTIAL AND PROPRIETARY INFORMATION
   8:.\main.c      ****  * WHICH IS THE PROPERTY OF your company.
   9:.\main.c      ****  *
  10:.\main.c      ****  * ========================================
  11:.\main.c      **** */
  12:.\main.c      **** #include <project.h>
  13:.\main.c      **** 
  14:.\main.c      **** #include <stdio.h>
  15:.\main.c      **** #include <stdlib.h>
  16:.\main.c      **** #include <math.h>
  17:.\main.c      **** #include <stdbool.h>
  18:.\main.c      **** 
  19:.\main.c      **** #include "main.h"
  20:.\main.c      **** 
  21:.\main.c      **** 
  22:.\main.c      **** 
  23:.\main.c      **** //usb and sending data
  24:.\main.c      **** char buffer[];
  25:.\main.c      **** char usb[80];
  26:.\main.c      **** char hex[80*2];
  27:.\main.c      **** uint8 packetBin[4];
  28:.\main.c      **** uint8 packetSend[80*8];
  29:.\main.c      **** unsigned int dec;
  30:.\main.c      **** int messageSize = 0;
  31:.\main.c      **** bool returnFound = false;
  32:.\main.c      **** bool messageReady;
  33:.\main.c      **** 
  34:.\main.c      **** int signal = 1;
  35:.\main.c      **** 
  36:.\main.c      **** char packetUSB[80];
ARM GAS  C:\Users\makij\AppData\Local\Temp\cclyfLhl.s 			page 3


  37:.\main.c      **** char packetMessage[80];
  38:.\main.c      **** char packetHex[80*2];
  39:.\main.c      **** uint8 packetBinary[4];
  40:.\main.c      **** bool dataReady = false;
  41:.\main.c      **** int i_send = 0;
  42:.\main.c      **** uint8 messageBufferPosition = 0;
  43:.\main.c      **** 
  44:.\main.c      **** 	// the state variable
  45:.\main.c      **** State currentState = IDLE;
  46:.\main.c      **** 
  47:.\main.c      **** void printbinchar(char c)
  48:.\main.c      **** {
  79              		.loc 1 48 0
  80              		.cfi_startproc
  81              		@ args = 0, pretend = 0, frame = 16
  82              		@ frame_needed = 1, uses_anonymous_args = 0
  83 0000 80B5     		push	{r7, lr}
  84              	.LCFI0:
  85              		.cfi_def_cfa_offset 8
  86              		.cfi_offset 7, -8
  87              		.cfi_offset 14, -4
  88 0002 84B0     		sub	sp, sp, #16
  89              	.LCFI1:
  90              		.cfi_def_cfa_offset 24
  91 0004 00AF     		add	r7, sp, #0
  92              	.LCFI2:
  93              		.cfi_def_cfa_register 7
  94 0006 0346     		mov	r3, r0
  95 0008 FB71     		strb	r3, [r7, #7]
  49:.\main.c      **** 	int counter;
  50:.\main.c      **** 	for(counter = 7; counter >= 0; --counter)
  96              		.loc 1 50 0
  97 000a 4FF00703 		mov	r3, #7
  98 000e FB60     		str	r3, [r7, #12]
  99 0010 03E0     		b	.L2
 100              	.L3:
 101              		.loc 1 50 0 is_stmt 0 discriminator 2
 102 0012 FB68     		ldr	r3, [r7, #12]
 103 0014 03F1FF33 		add	r3, r3, #-1
 104 0018 FB60     		str	r3, [r7, #12]
 105              	.L2:
 106              		.loc 1 50 0 discriminator 1
 107 001a FB68     		ldr	r3, [r7, #12]
 108 001c 002B     		cmp	r3, #0
 109 001e F8DA     		bge	.L3
  51:.\main.c      **** 	{
  52:.\main.c      **** 		//USB_PutChar( (c & (1 << counter)) ? '1' : '0' );	
  53:.\main.c      **** 	}
  54:.\main.c      **** 	USB_PutChar('\r');
 110              		.loc 1 54 0 is_stmt 1
 111 0020 4FF00D00 		mov	r0, #13
 112 0024 FFF7FEFF 		bl	USB_PutChar
  55:.\main.c      **** }
 113              		.loc 1 55 0
 114 0028 07F11007 		add	r7, r7, #16
 115 002c BD46     		mov	sp, r7
 116 002e 80BD     		pop	{r7, pc}
ARM GAS  C:\Users\makij\AppData\Local\Temp\cclyfLhl.s 			page 4


 117              		.cfi_endproc
 118              	.LFE56:
 119              		.size	printbinchar, .-printbinchar
 120              		.section	.text.isr_FallingEdgeDetected,"ax",%progbits
 121              		.align	2
 122              		.global	isr_FallingEdgeDetected
 123              		.thumb
 124              		.thumb_func
 125              		.type	isr_FallingEdgeDetected, %function
 126              	isr_FallingEdgeDetected:
 127              	.LFB57:
  56:.\main.c      **** 
  57:.\main.c      **** CY_ISR(isr_FallingEdgeDetected)
  58:.\main.c      **** {	
 128              		.loc 1 58 0
 129              		.cfi_startproc
 130              		@ args = 0, pretend = 0, frame = 0
 131              		@ frame_needed = 1, uses_anonymous_args = 0
 132 0000 80B5     		push	{r7, lr}
 133              	.LCFI3:
 134              		.cfi_def_cfa_offset 8
 135              		.cfi_offset 7, -8
 136              		.cfi_offset 14, -4
 137 0002 00AF     		add	r7, sp, #0
 138              	.LCFI4:
 139              		.cfi_def_cfa_register 7
  59:.\main.c      **** 	Timer_BusyToCollision_WriteCounter(11292);
 140              		.loc 1 59 0
 141 0004 42F61C40 		movw	r0, #11292
 142 0008 FFF7FEFF 		bl	Timer_BusyToCollision_WriteCounter
  60:.\main.c      **** 	currentState = BUSY;
 143              		.loc 1 60 0
 144 000c 40F20003 		movw	r3, #:lower16:currentState
 145 0010 C0F20003 		movt	r3, #:upper16:currentState
 146 0014 4FF00102 		mov	r2, #1
 147 0018 1A70     		strb	r2, [r3, #0]
  61:.\main.c      **** 	Timer_BusyToCollision_Start();
 148              		.loc 1 61 0
 149 001a FFF7FEFF 		bl	Timer_BusyToCollision_Start
  62:.\main.c      **** }
 150              		.loc 1 62 0
 151 001e 80BD     		pop	{r7, pc}
 152              		.cfi_endproc
 153              	.LFE57:
 154              		.size	isr_FallingEdgeDetected, .-isr_FallingEdgeDetected
 155              		.section	.text.isr_RisingEdgeDetected,"ax",%progbits
 156              		.align	2
 157              		.global	isr_RisingEdgeDetected
 158              		.thumb
 159              		.thumb_func
 160              		.type	isr_RisingEdgeDetected, %function
 161              	isr_RisingEdgeDetected:
 162              	.LFB58:
  63:.\main.c      **** 
  64:.\main.c      **** CY_ISR(isr_RisingEdgeDetected)
  65:.\main.c      **** {
 163              		.loc 1 65 0
ARM GAS  C:\Users\makij\AppData\Local\Temp\cclyfLhl.s 			page 5


 164              		.cfi_startproc
 165              		@ args = 0, pretend = 0, frame = 0
 166              		@ frame_needed = 1, uses_anonymous_args = 0
 167 0000 80B5     		push	{r7, lr}
 168              	.LCFI5:
 169              		.cfi_def_cfa_offset 8
 170              		.cfi_offset 7, -8
 171              		.cfi_offset 14, -4
 172 0002 00AF     		add	r7, sp, #0
 173              	.LCFI6:
 174              		.cfi_def_cfa_register 7
  66:.\main.c      **** 	Timer_BusyToIdle_WriteCounter(11292);
 175              		.loc 1 66 0
 176 0004 42F61C40 		movw	r0, #11292
 177 0008 FFF7FEFF 		bl	Timer_BusyToIdle_WriteCounter
  67:.\main.c      **** 	currentState = BUSY;
 178              		.loc 1 67 0
 179 000c 40F20003 		movw	r3, #:lower16:currentState
 180 0010 C0F20003 		movt	r3, #:upper16:currentState
 181 0014 4FF00102 		mov	r2, #1
 182 0018 1A70     		strb	r2, [r3, #0]
  68:.\main.c      **** 	Timer_BusyToIdle_Start();
 183              		.loc 1 68 0
 184 001a FFF7FEFF 		bl	Timer_BusyToIdle_Start
  69:.\main.c      **** }
 185              		.loc 1 69 0
 186 001e 80BD     		pop	{r7, pc}
 187              		.cfi_endproc
 188              	.LFE58:
 189              		.size	isr_RisingEdgeDetected, .-isr_RisingEdgeDetected
 190              		.section	.text.isr_BusyToIdle,"ax",%progbits
 191              		.align	2
 192              		.global	isr_BusyToIdle
 193              		.thumb
 194              		.thumb_func
 195              		.type	isr_BusyToIdle, %function
 196              	isr_BusyToIdle:
 197              	.LFB59:
  70:.\main.c      **** 
  71:.\main.c      **** // Fires when the line has been high too long, Back to Idle
  72:.\main.c      **** CY_ISR(isr_BusyToIdle)
  73:.\main.c      **** {
 198              		.loc 1 73 0
 199              		.cfi_startproc
 200              		@ args = 0, pretend = 0, frame = 0
 201              		@ frame_needed = 1, uses_anonymous_args = 0
 202 0000 80B5     		push	{r7, lr}
 203              	.LCFI7:
 204              		.cfi_def_cfa_offset 8
 205              		.cfi_offset 7, -8
 206              		.cfi_offset 14, -4
 207 0002 00AF     		add	r7, sp, #0
 208              	.LCFI8:
 209              		.cfi_def_cfa_register 7
  74:.\main.c      **** 	Timer_BusyToIdle_WriteCounter(11292);
 210              		.loc 1 74 0
 211 0004 42F61C40 		movw	r0, #11292
ARM GAS  C:\Users\makij\AppData\Local\Temp\cclyfLhl.s 			page 6


 212 0008 FFF7FEFF 		bl	Timer_BusyToIdle_WriteCounter
  75:.\main.c      **** 	currentState = IDLE;
 213              		.loc 1 75 0
 214 000c 40F20003 		movw	r3, #:lower16:currentState
 215 0010 C0F20003 		movt	r3, #:upper16:currentState
 216 0014 4FF00002 		mov	r2, #0
 217 0018 1A70     		strb	r2, [r3, #0]
  76:.\main.c      **** }
 218              		.loc 1 76 0
 219 001a 80BD     		pop	{r7, pc}
 220              		.cfi_endproc
 221              	.LFE59:
 222              		.size	isr_BusyToIdle, .-isr_BusyToIdle
 223              		.section	.text.isr_BusyToCollision,"ax",%progbits
 224              		.align	2
 225              		.global	isr_BusyToCollision
 226              		.thumb
 227              		.thumb_func
 228              		.type	isr_BusyToCollision, %function
 229              	isr_BusyToCollision:
 230              	.LFB60:
  77:.\main.c      **** 
  78:.\main.c      **** // Fires when the line has been low too long, Go to Collision
  79:.\main.c      **** CY_ISR(isr_BusyToCollision)
  80:.\main.c      **** {
 231              		.loc 1 80 0
 232              		.cfi_startproc
 233              		@ args = 0, pretend = 0, frame = 0
 234              		@ frame_needed = 1, uses_anonymous_args = 0
 235 0000 80B5     		push	{r7, lr}
 236              	.LCFI9:
 237              		.cfi_def_cfa_offset 8
 238              		.cfi_offset 7, -8
 239              		.cfi_offset 14, -4
 240 0002 00AF     		add	r7, sp, #0
 241              	.LCFI10:
 242              		.cfi_def_cfa_register 7
  81:.\main.c      **** 	Timer_BusyToCollision_WriteCounter(11292);
 243              		.loc 1 81 0
 244 0004 42F61C40 		movw	r0, #11292
 245 0008 FFF7FEFF 		bl	Timer_BusyToCollision_WriteCounter
  82:.\main.c      **** 	currentState = COLLISION;
 246              		.loc 1 82 0
 247 000c 40F20003 		movw	r3, #:lower16:currentState
 248 0010 C0F20003 		movt	r3, #:upper16:currentState
 249 0014 4FF00202 		mov	r2, #2
 250 0018 1A70     		strb	r2, [r3, #0]
  83:.\main.c      **** }
 251              		.loc 1 83 0
 252 001a 80BD     		pop	{r7, pc}
 253              		.cfi_endproc
 254              	.LFE60:
 255              		.size	isr_BusyToCollision, .-isr_BusyToCollision
 256              		.section	.text.isr_sendData,"ax",%progbits
 257              		.align	2
 258              		.global	isr_sendData
 259              		.thumb
ARM GAS  C:\Users\makij\AppData\Local\Temp\cclyfLhl.s 			page 7


 260              		.thumb_func
 261              		.type	isr_sendData, %function
 262              	isr_sendData:
 263              	.LFB61:
  84:.\main.c      **** 
  85:.\main.c      **** CY_ISR(isr_sendData)
  86:.\main.c      **** {
 264              		.loc 1 86 0
 265              		.cfi_startproc
 266              		@ args = 0, pretend = 0, frame = 0
 267              		@ frame_needed = 1, uses_anonymous_args = 0
 268 0000 80B5     		push	{r7, lr}
 269              	.LCFI11:
 270              		.cfi_def_cfa_offset 8
 271              		.cfi_offset 7, -8
 272              		.cfi_offset 14, -4
 273 0002 00AF     		add	r7, sp, #0
 274              	.LCFI12:
 275              		.cfi_def_cfa_register 7
  87:.\main.c      **** 	if(signal == 1)
 276              		.loc 1 87 0
 277 0004 40F20003 		movw	r3, #:lower16:signal
 278 0008 C0F20003 		movt	r3, #:upper16:signal
 279 000c 1B68     		ldr	r3, [r3, #0]
 280 000e 012B     		cmp	r3, #1
 281 0010 40D1     		bne	.L9
  88:.\main.c      **** 	{
  89:.\main.c      **** 		signal = 0;
 282              		.loc 1 89 0
 283 0012 40F20003 		movw	r3, #:lower16:signal
 284 0016 C0F20003 		movt	r3, #:upper16:signal
 285 001a 4FF00002 		mov	r2, #0
 286 001e 1A60     		str	r2, [r3, #0]
  90:.\main.c      **** 		if(messageSize < i_send)
 287              		.loc 1 90 0
 288 0020 40F20003 		movw	r3, #:lower16:messageSize
 289 0024 C0F20003 		movt	r3, #:upper16:messageSize
 290 0028 1A68     		ldr	r2, [r3, #0]
 291 002a 40F20003 		movw	r3, #:lower16:i_send
 292 002e C0F20003 		movt	r3, #:upper16:i_send
 293 0032 1B68     		ldr	r3, [r3, #0]
 294 0034 9A42     		cmp	r2, r3
 295 0036 0DDA     		bge	.L10
  91:.\main.c      **** 		{
  92:.\main.c      **** 			//end of message
  93:.\main.c      **** 			Timer_sendData_Stop();
 296              		.loc 1 93 0
 297 0038 FFF7FEFF 		bl	Timer_sendData_Stop
  94:.\main.c      **** 			Transm_Output_Write(1);
 298              		.loc 1 94 0
 299 003c 4FF00100 		mov	r0, #1
 300 0040 FFF7FEFF 		bl	Transm_Output_Write
  95:.\main.c      **** 			messageSize = 0;
 301              		.loc 1 95 0
 302 0044 40F20003 		movw	r3, #:lower16:messageSize
 303 0048 C0F20003 		movt	r3, #:upper16:messageSize
 304 004c 4FF00002 		mov	r2, #0
ARM GAS  C:\Users\makij\AppData\Local\Temp\cclyfLhl.s 			page 8


 305 0050 1A60     		str	r2, [r3, #0]
  96:.\main.c      **** 			return;
 306              		.loc 1 96 0
 307 0052 43E0     		b	.L8
 308              	.L10:
  97:.\main.c      **** 		}
  98:.\main.c      **** 		if(packetSend[messageSize] == '0')
 309              		.loc 1 98 0
 310 0054 40F20003 		movw	r3, #:lower16:messageSize
 311 0058 C0F20003 		movt	r3, #:upper16:messageSize
 312 005c 1A68     		ldr	r2, [r3, #0]
 313 005e 40F20003 		movw	r3, #:lower16:packetSend
 314 0062 C0F20003 		movt	r3, #:upper16:packetSend
 315 0066 9B5C     		ldrb	r3, [r3, r2]	@ zero_extendqisi2
 316 0068 302B     		cmp	r3, #48
 317 006a 0ED1     		bne	.L12
  99:.\main.c      **** 		{
 100:.\main.c      **** 			while(USB_CDCIsReady() == 0u);
 318              		.loc 1 100 0
 319 006c 00BF     		nop
 320              	.L13:
 321              		.loc 1 100 0 is_stmt 0 discriminator 1
 322 006e FFF7FEFF 		bl	USB_CDCIsReady
 323 0072 0346     		mov	r3, r0
 324 0074 002B     		cmp	r3, #0
 325 0076 FAD0     		beq	.L13
 101:.\main.c      **** 			USB_PutChar('a');
 326              		.loc 1 101 0 is_stmt 1
 327 0078 4FF06100 		mov	r0, #97
 328 007c FFF7FEFF 		bl	USB_PutChar
 102:.\main.c      **** 			
 103:.\main.c      **** 			Transm_Output_Write(0);
 329              		.loc 1 103 0
 330 0080 4FF00000 		mov	r0, #0
 331 0084 FFF7FEFF 		bl	Transm_Output_Write
 332 0088 22E0     		b	.L14
 333              	.L12:
 104:.\main.c      **** 		}else{
 105:.\main.c      **** 			Transm_Output_Write(1);
 334              		.loc 1 105 0
 335 008a 4FF00100 		mov	r0, #1
 336 008e FFF7FEFF 		bl	Transm_Output_Write
 337 0092 1DE0     		b	.L14
 338              	.L9:
 106:.\main.c      **** 		}
 107:.\main.c      **** 		
 108:.\main.c      **** 	}else{
 109:.\main.c      **** 		signal = 1;
 339              		.loc 1 109 0
 340 0094 40F20003 		movw	r3, #:lower16:signal
 341 0098 C0F20003 		movt	r3, #:upper16:signal
 342 009c 4FF00102 		mov	r2, #1
 343 00a0 1A60     		str	r2, [r3, #0]
 110:.\main.c      **** 		Transm_Output_Write(!Transm_Output_Read());
 344              		.loc 1 110 0
 345 00a2 FFF7FEFF 		bl	Transm_Output_Read
 346 00a6 0346     		mov	r3, r0
ARM GAS  C:\Users\makij\AppData\Local\Temp\cclyfLhl.s 			page 9


 347 00a8 002B     		cmp	r3, #0
 348 00aa 14BF     		ite	ne
 349 00ac 0023     		movne	r3, #0
 350 00ae 0123     		moveq	r3, #1
 351 00b0 DBB2     		uxtb	r3, r3
 352 00b2 1846     		mov	r0, r3
 353 00b4 FFF7FEFF 		bl	Transm_Output_Write
 111:.\main.c      **** 		messageSize++;
 354              		.loc 1 111 0
 355 00b8 40F20003 		movw	r3, #:lower16:messageSize
 356 00bc C0F20003 		movt	r3, #:upper16:messageSize
 357 00c0 1B68     		ldr	r3, [r3, #0]
 358 00c2 03F10102 		add	r2, r3, #1
 359 00c6 40F20003 		movw	r3, #:lower16:messageSize
 360 00ca C0F20003 		movt	r3, #:upper16:messageSize
 361 00ce 1A60     		str	r2, [r3, #0]
 362              	.L14:
 112:.\main.c      **** 	}
 113:.\main.c      **** 	Timer_sendData_WriteCounter(Timer_sendData_ReadPeriod());
 363              		.loc 1 113 0
 364 00d0 FFF7FEFF 		bl	Timer_sendData_ReadPeriod
 365 00d4 0346     		mov	r3, r0
 366 00d6 1846     		mov	r0, r3
 367 00d8 FFF7FEFF 		bl	Timer_sendData_WriteCounter
 368              	.L8:
 114:.\main.c      **** }
 369              		.loc 1 114 0
 370 00dc 80BD     		pop	{r7, pc}
 371              		.cfi_endproc
 372              	.LFE61:
 373              		.size	isr_sendData, .-isr_sendData
 374 00de 00BF     		.section	.text.mystrrev,"ax",%progbits
 375              		.align	2
 376              		.global	mystrrev
 377              		.thumb
 378              		.thumb_func
 379              		.type	mystrrev, %function
 380              	mystrrev:
 381              	.LFB62:
 115:.\main.c      **** 
 116:.\main.c      **** void mystrrev(char hex[])
 117:.\main.c      **** {
 382              		.loc 1 117 0
 383              		.cfi_startproc
 384              		@ args = 0, pretend = 0, frame = 32
 385              		@ frame_needed = 1, uses_anonymous_args = 0
 386 0000 2DE9F043 		push	{r4, r5, r6, r7, r8, r9, lr}
 387              	.LCFI13:
 388              		.cfi_def_cfa_offset 28
 389              		.cfi_offset 4, -28
 390              		.cfi_offset 5, -24
 391              		.cfi_offset 6, -20
 392              		.cfi_offset 7, -16
 393              		.cfi_offset 8, -12
 394              		.cfi_offset 9, -8
 395              		.cfi_offset 14, -4
 396 0004 89B0     		sub	sp, sp, #36
ARM GAS  C:\Users\makij\AppData\Local\Temp\cclyfLhl.s 			page 10


 397              	.LCFI14:
 398              		.cfi_def_cfa_offset 64
 399 0006 00AF     		add	r7, sp, #0
 400              	.LCFI15:
 401              		.cfi_def_cfa_register 7
 402 0008 7860     		str	r0, [r7, #4]
 118:.\main.c      **** 	int length;
 119:.\main.c      **** 	for(length = 0; hex[length] != '\0'; ++length);
 403              		.loc 1 119 0
 404 000a 4FF00003 		mov	r3, #0
 405 000e FB61     		str	r3, [r7, #28]
 406 0010 03E0     		b	.L16
 407              	.L17:
 408              		.loc 1 119 0 is_stmt 0 discriminator 2
 409 0012 FB69     		ldr	r3, [r7, #28]
 410 0014 03F10103 		add	r3, r3, #1
 411 0018 FB61     		str	r3, [r7, #28]
 412              	.L16:
 413              		.loc 1 119 0 discriminator 1
 414 001a FB69     		ldr	r3, [r7, #28]
 415 001c 7A68     		ldr	r2, [r7, #4]
 416 001e D318     		adds	r3, r2, r3
 417 0020 1B78     		ldrb	r3, [r3, #0]	@ zero_extendqisi2
 418 0022 002B     		cmp	r3, #0
 419 0024 F5D1     		bne	.L17
 120:.\main.c      **** 	
 121:.\main.c      **** 	char temp[length];
 420              		.loc 1 121 0 is_stmt 1
 421 0026 F969     		ldr	r1, [r7, #28]
 422 0028 6B46     		mov	r3, sp
 423 002a 1E46     		mov	r6, r3
 424 002c 01F1FF33 		add	r3, r1, #-1
 425 0030 3B61     		str	r3, [r7, #16]
 426 0032 0846     		mov	r0, r1
 427 0034 0246     		mov	r2, r0
 428 0036 4FF00003 		mov	r3, #0
 429 003a 4FEA5270 		lsr	r0, r2, #29
 430 003e 4FEAC309 		lsl	r9, r3, #3
 431 0042 40EA0909 		orr	r9, r0, r9
 432 0046 4FEAC208 		lsl	r8, r2, #3
 433 004a 0846     		mov	r0, r1
 434 004c 0246     		mov	r2, r0
 435 004e 4FF00003 		mov	r3, #0
 436 0052 4FEA5270 		lsr	r0, r2, #29
 437 0056 4FEAC305 		lsl	r5, r3, #3
 438 005a 0543     		orrs	r5, r5, r0
 439 005c 4FEAC204 		lsl	r4, r2, #3
 440 0060 0B46     		mov	r3, r1
 441 0062 03F10703 		add	r3, r3, #7
 442 0066 4FEAD303 		lsr	r3, r3, #3
 443 006a 4FEAC303 		lsl	r3, r3, #3
 444 006e ADEB030D 		sub	sp, sp, r3
 445 0072 6B46     		mov	r3, sp
 446 0074 03F10003 		add	r3, r3, #0
 447 0078 FB60     		str	r3, [r7, #12]
 122:.\main.c      **** 	strcpy(temp, hex);
 448              		.loc 1 122 0
ARM GAS  C:\Users\makij\AppData\Local\Temp\cclyfLhl.s 			page 11


 449 007a FB68     		ldr	r3, [r7, #12]
 450 007c 1846     		mov	r0, r3
 451 007e 7968     		ldr	r1, [r7, #4]
 452 0080 FFF7FEFF 		bl	strcpy
 123:.\main.c      **** 	int i, i2;
 124:.\main.c      **** 	i2 = length-1;
 453              		.loc 1 124 0
 454 0084 FB69     		ldr	r3, [r7, #28]
 455 0086 03F1FF33 		add	r3, r3, #-1
 456 008a 7B61     		str	r3, [r7, #20]
 125:.\main.c      **** 	for(i = 0; i <length; i++)
 457              		.loc 1 125 0
 458 008c 4FF00003 		mov	r3, #0
 459 0090 BB61     		str	r3, [r7, #24]
 460 0092 0FE0     		b	.L18
 461              	.L19:
 126:.\main.c      **** 	{
 127:.\main.c      **** 		hex[i] = temp[i2];	
 462              		.loc 1 127 0 discriminator 2
 463 0094 BB69     		ldr	r3, [r7, #24]
 464 0096 7A68     		ldr	r2, [r7, #4]
 465 0098 D318     		adds	r3, r2, r3
 466 009a F968     		ldr	r1, [r7, #12]
 467 009c 7A69     		ldr	r2, [r7, #20]
 468 009e 8A18     		adds	r2, r1, r2
 469 00a0 1278     		ldrb	r2, [r2, #0]	@ zero_extendqisi2
 470 00a2 1A70     		strb	r2, [r3, #0]
 128:.\main.c      **** 		i2--;
 471              		.loc 1 128 0 discriminator 2
 472 00a4 7B69     		ldr	r3, [r7, #20]
 473 00a6 03F1FF33 		add	r3, r3, #-1
 474 00aa 7B61     		str	r3, [r7, #20]
 125:.\main.c      **** 	for(i = 0; i <length; i++)
 475              		.loc 1 125 0 discriminator 2
 476 00ac BB69     		ldr	r3, [r7, #24]
 477 00ae 03F10103 		add	r3, r3, #1
 478 00b2 BB61     		str	r3, [r7, #24]
 479              	.L18:
 125:.\main.c      **** 	for(i = 0; i <length; i++)
 480              		.loc 1 125 0 is_stmt 0 discriminator 1
 481 00b4 BA69     		ldr	r2, [r7, #24]
 482 00b6 FB69     		ldr	r3, [r7, #28]
 483 00b8 9A42     		cmp	r2, r3
 484 00ba EBDB     		blt	.L19
 485 00bc B546     		mov	sp, r6
 129:.\main.c      **** 	}
 130:.\main.c      **** }
 486              		.loc 1 130 0 is_stmt 1
 487 00be 07F12407 		add	r7, r7, #36
 488 00c2 BD46     		mov	sp, r7
 489 00c4 BDE8F083 		pop	{r4, r5, r6, r7, r8, r9, pc}
 490              		.cfi_endproc
 491              	.LFE62:
 492              		.size	mystrrev, .-mystrrev
 493              		.section	.text.printCharAsBinary,"ax",%progbits
 494              		.align	2
 495              		.global	printCharAsBinary
ARM GAS  C:\Users\makij\AppData\Local\Temp\cclyfLhl.s 			page 12


 496              		.thumb
 497              		.thumb_func
 498              		.type	printCharAsBinary, %function
 499              	printCharAsBinary:
 500              	.LFB63:
 131:.\main.c      **** void printCharAsBinary(char c) {
 501              		.loc 1 131 0
 502              		.cfi_startproc
 503              		@ args = 0, pretend = 0, frame = 16
 504              		@ frame_needed = 1, uses_anonymous_args = 0
 505 0000 80B5     		push	{r7, lr}
 506              	.LCFI16:
 507              		.cfi_def_cfa_offset 8
 508              		.cfi_offset 7, -8
 509              		.cfi_offset 14, -4
 510 0002 84B0     		sub	sp, sp, #16
 511              	.LCFI17:
 512              		.cfi_def_cfa_offset 24
 513 0004 00AF     		add	r7, sp, #0
 514              	.LCFI18:
 515              		.cfi_def_cfa_register 7
 516 0006 0346     		mov	r3, r0
 517 0008 FB71     		strb	r3, [r7, #7]
 132:.\main.c      **** 	int i;
 133:.\main.c      **** 	for(i = 0; i < 8; i++){
 518              		.loc 1 133 0
 519 000a 4FF00003 		mov	r3, #0
 520 000e FB60     		str	r3, [r7, #12]
 521 0010 0EE0     		b	.L21
 522              	.L22:
 134:.\main.c      **** 		USB_PutChar((c >> i) & 0x1);
 523              		.loc 1 134 0 discriminator 2
 524 0012 FA79     		ldrb	r2, [r7, #7]	@ zero_extendqisi2
 525 0014 FB68     		ldr	r3, [r7, #12]
 526 0016 42FA03F3 		asr	r3, r2, r3
 527 001a DBB2     		uxtb	r3, r3
 528 001c 03F00103 		and	r3, r3, #1
 529 0020 DBB2     		uxtb	r3, r3
 530 0022 1846     		mov	r0, r3
 531 0024 FFF7FEFF 		bl	USB_PutChar
 133:.\main.c      **** 	for(i = 0; i < 8; i++){
 532              		.loc 1 133 0 discriminator 2
 533 0028 FB68     		ldr	r3, [r7, #12]
 534 002a 03F10103 		add	r3, r3, #1
 535 002e FB60     		str	r3, [r7, #12]
 536              	.L21:
 133:.\main.c      **** 	for(i = 0; i < 8; i++){
 537              		.loc 1 133 0 is_stmt 0 discriminator 1
 538 0030 FB68     		ldr	r3, [r7, #12]
 539 0032 072B     		cmp	r3, #7
 540 0034 EDDD     		ble	.L22
 135:.\main.c      **** 	}
 136:.\main.c      **** }
 541              		.loc 1 136 0 is_stmt 1
 542 0036 07F11007 		add	r7, r7, #16
 543 003a BD46     		mov	sp, r7
 544 003c 80BD     		pop	{r7, pc}
ARM GAS  C:\Users\makij\AppData\Local\Temp\cclyfLhl.s 			page 13


 545              		.cfi_endproc
 546              	.LFE63:
 547              		.size	printCharAsBinary, .-printCharAsBinary
 548 003e 00BF     		.section	.text.printStringAsBinary,"ax",%progbits
 549              		.align	2
 550              		.global	printStringAsBinary
 551              		.thumb
 552              		.thumb_func
 553              		.type	printStringAsBinary, %function
 554              	printStringAsBinary:
 555              	.LFB64:
 137:.\main.c      ****  
 138:.\main.c      **** void printStringAsBinary(char* s){
 556              		.loc 1 138 0
 557              		.cfi_startproc
 558              		@ args = 0, pretend = 0, frame = 8
 559              		@ frame_needed = 1, uses_anonymous_args = 0
 560 0000 80B5     		push	{r7, lr}
 561              	.LCFI19:
 562              		.cfi_def_cfa_offset 8
 563              		.cfi_offset 7, -8
 564              		.cfi_offset 14, -4
 565 0002 82B0     		sub	sp, sp, #8
 566              	.LCFI20:
 567              		.cfi_def_cfa_offset 16
 568 0004 00AF     		add	r7, sp, #0
 569              	.LCFI21:
 570              		.cfi_def_cfa_register 7
 571 0006 7860     		str	r0, [r7, #4]
 139:.\main.c      **** 	for(; *s; s++){
 572              		.loc 1 139 0
 573 0008 0CE0     		b	.L24
 574              	.L25:
 140:.\main.c      **** 		printCharAsBinary(*s);
 575              		.loc 1 140 0 discriminator 2
 576 000a 7B68     		ldr	r3, [r7, #4]
 577 000c 1B78     		ldrb	r3, [r3, #0]	@ zero_extendqisi2
 578 000e 1846     		mov	r0, r3
 579 0010 FFF7FEFF 		bl	printCharAsBinary
 141:.\main.c      **** 		USB_PutChar(' ');
 580              		.loc 1 141 0 discriminator 2
 581 0014 4FF02000 		mov	r0, #32
 582 0018 FFF7FEFF 		bl	USB_PutChar
 139:.\main.c      **** 	for(; *s; s++){
 583              		.loc 1 139 0 discriminator 2
 584 001c 7B68     		ldr	r3, [r7, #4]
 585 001e 03F10103 		add	r3, r3, #1
 586 0022 7B60     		str	r3, [r7, #4]
 587              	.L24:
 139:.\main.c      **** 	for(; *s; s++){
 588              		.loc 1 139 0 is_stmt 0 discriminator 1
 589 0024 7B68     		ldr	r3, [r7, #4]
 590 0026 1B78     		ldrb	r3, [r3, #0]	@ zero_extendqisi2
 591 0028 002B     		cmp	r3, #0
 592 002a EED1     		bne	.L25
 142:.\main.c      **** 	}
 143:.\main.c      **** 	USB_PutChar('\n');
ARM GAS  C:\Users\makij\AppData\Local\Temp\cclyfLhl.s 			page 14


 593              		.loc 1 143 0 is_stmt 1
 594 002c 4FF00A00 		mov	r0, #10
 595 0030 FFF7FEFF 		bl	USB_PutChar
 144:.\main.c      **** }
 596              		.loc 1 144 0
 597 0034 07F10807 		add	r7, r7, #8
 598 0038 BD46     		mov	sp, r7
 599 003a 80BD     		pop	{r7, pc}
 600              		.cfi_endproc
 601              	.LFE64:
 602              		.size	printStringAsBinary, .-printStringAsBinary
 603              		.section	.text.decimal_hex,"ax",%progbits
 604              		.align	2
 605              		.global	decimal_hex
 606              		.thumb
 607              		.thumb_func
 608              		.type	decimal_hex, %function
 609              	decimal_hex:
 610              	.LFB65:
 145:.\main.c      **** void decimal_hex(int n, char hex[]) /* Function to convert decimal to hexadecimal. */
 146:.\main.c      **** {
 611              		.loc 1 146 0
 612              		.cfi_startproc
 613              		@ args = 0, pretend = 0, frame = 16
 614              		@ frame_needed = 1, uses_anonymous_args = 0
 615 0000 80B5     		push	{r7, lr}
 616              	.LCFI22:
 617              		.cfi_def_cfa_offset 8
 618              		.cfi_offset 7, -8
 619              		.cfi_offset 14, -4
 620 0002 84B0     		sub	sp, sp, #16
 621              	.LCFI23:
 622              		.cfi_def_cfa_offset 24
 623 0004 00AF     		add	r7, sp, #0
 624              	.LCFI24:
 625              		.cfi_def_cfa_register 7
 626 0006 7860     		str	r0, [r7, #4]
 627 0008 3960     		str	r1, [r7, #0]
 147:.\main.c      ****     int i=0,rem;
 628              		.loc 1 147 0
 629 000a 4FF00003 		mov	r3, #0
 630 000e FB60     		str	r3, [r7, #12]
 148:.\main.c      ****     while (n!=0)
 631              		.loc 1 148 0
 632 0010 62E0     		b	.L27
 633              	.L39:
 149:.\main.c      ****     {
 150:.\main.c      ****         rem=n%16;
 634              		.loc 1 150 0
 635 0012 7A68     		ldr	r2, [r7, #4]
 636 0014 4FF00F03 		mov	r3, #15
 637 0018 C8F20003 		movt	r3, 32768
 638 001c 1340     		ands	r3, r3, r2
 639 001e 002B     		cmp	r3, #0
 640 0020 05DA     		bge	.L28
 641 0022 03F1FF33 		add	r3, r3, #-1
 642 0026 63F00F03 		orn	r3, r3, #15
ARM GAS  C:\Users\makij\AppData\Local\Temp\cclyfLhl.s 			page 15


 643 002a 03F10103 		add	r3, r3, #1
 644              	.L28:
 645 002e BB60     		str	r3, [r7, #8]
 151:.\main.c      ****         switch(rem)
 646              		.loc 1 151 0
 647 0030 BB68     		ldr	r3, [r7, #8]
 648 0032 A3F10A03 		sub	r3, r3, #10
 649 0036 052B     		cmp	r3, #5
 650 0038 38D8     		bhi	.L29
 651 003a 01A2     		adr	r2, .L36
 652 003c 52F823F0 		ldr	pc, [r2, r3, lsl #2]
 653              		.align	2
 654              	.L36:
 655 0040 59000000 		.word	.L30+1
 656 0044 67000000 		.word	.L31+1
 657 0048 75000000 		.word	.L32+1
 658 004c 83000000 		.word	.L33+1
 659 0050 91000000 		.word	.L34+1
 660 0054 9F000000 		.word	.L35+1
 661              	.L30:
 152:.\main.c      ****         {
 153:.\main.c      ****             case 10:
 154:.\main.c      ****               hex[i]='A';
 662              		.loc 1 154 0
 663 0058 FB68     		ldr	r3, [r7, #12]
 664 005a 3A68     		ldr	r2, [r7, #0]
 665 005c D318     		adds	r3, r2, r3
 666 005e 4FF04102 		mov	r2, #65
 667 0062 1A70     		strb	r2, [r3, #0]
 155:.\main.c      ****               break;
 668              		.loc 1 155 0
 669 0064 2CE0     		b	.L37
 670              	.L31:
 156:.\main.c      ****             case 11:
 157:.\main.c      ****               hex[i]='B';
 671              		.loc 1 157 0
 672 0066 FB68     		ldr	r3, [r7, #12]
 673 0068 3A68     		ldr	r2, [r7, #0]
 674 006a D318     		adds	r3, r2, r3
 675 006c 4FF04202 		mov	r2, #66
 676 0070 1A70     		strb	r2, [r3, #0]
 158:.\main.c      ****               break;
 677              		.loc 1 158 0
 678 0072 25E0     		b	.L37
 679              	.L32:
 159:.\main.c      ****             case 12:
 160:.\main.c      ****               hex[i]='C';
 680              		.loc 1 160 0
 681 0074 FB68     		ldr	r3, [r7, #12]
 682 0076 3A68     		ldr	r2, [r7, #0]
 683 0078 D318     		adds	r3, r2, r3
 684 007a 4FF04302 		mov	r2, #67
 685 007e 1A70     		strb	r2, [r3, #0]
 161:.\main.c      ****               break;
 686              		.loc 1 161 0
 687 0080 1EE0     		b	.L37
 688              	.L33:
ARM GAS  C:\Users\makij\AppData\Local\Temp\cclyfLhl.s 			page 16


 162:.\main.c      ****             case 13:
 163:.\main.c      ****               hex[i]='D';
 689              		.loc 1 163 0
 690 0082 FB68     		ldr	r3, [r7, #12]
 691 0084 3A68     		ldr	r2, [r7, #0]
 692 0086 D318     		adds	r3, r2, r3
 693 0088 4FF04402 		mov	r2, #68
 694 008c 1A70     		strb	r2, [r3, #0]
 164:.\main.c      ****               break;
 695              		.loc 1 164 0
 696 008e 17E0     		b	.L37
 697              	.L34:
 165:.\main.c      ****             case 14:
 166:.\main.c      ****               hex[i]='E';
 698              		.loc 1 166 0
 699 0090 FB68     		ldr	r3, [r7, #12]
 700 0092 3A68     		ldr	r2, [r7, #0]
 701 0094 D318     		adds	r3, r2, r3
 702 0096 4FF04502 		mov	r2, #69
 703 009a 1A70     		strb	r2, [r3, #0]
 167:.\main.c      ****               break;
 704              		.loc 1 167 0
 705 009c 10E0     		b	.L37
 706              	.L35:
 168:.\main.c      ****             case 15:
 169:.\main.c      ****               hex[i]='F';
 707              		.loc 1 169 0
 708 009e FB68     		ldr	r3, [r7, #12]
 709 00a0 3A68     		ldr	r2, [r7, #0]
 710 00a2 D318     		adds	r3, r2, r3
 711 00a4 4FF04602 		mov	r2, #70
 712 00a8 1A70     		strb	r2, [r3, #0]
 170:.\main.c      ****               break;
 713              		.loc 1 170 0
 714 00aa 09E0     		b	.L37
 715              	.L29:
 171:.\main.c      ****             default:
 172:.\main.c      ****               hex[i]=rem+'0';
 716              		.loc 1 172 0
 717 00ac FB68     		ldr	r3, [r7, #12]
 718 00ae 3A68     		ldr	r2, [r7, #0]
 719 00b0 D318     		adds	r3, r2, r3
 720 00b2 BA68     		ldr	r2, [r7, #8]
 721 00b4 D2B2     		uxtb	r2, r2
 722 00b6 02F13002 		add	r2, r2, #48
 723 00ba D2B2     		uxtb	r2, r2
 724 00bc 1A70     		strb	r2, [r3, #0]
 173:.\main.c      ****               break;
 725              		.loc 1 173 0
 726 00be 00BF     		nop
 727              	.L37:
 174:.\main.c      ****         }
 175:.\main.c      ****         ++i;
 728              		.loc 1 175 0
 729 00c0 FB68     		ldr	r3, [r7, #12]
 730 00c2 03F10103 		add	r3, r3, #1
 731 00c6 FB60     		str	r3, [r7, #12]
ARM GAS  C:\Users\makij\AppData\Local\Temp\cclyfLhl.s 			page 17


 176:.\main.c      ****         n/=16;
 732              		.loc 1 176 0
 733 00c8 7B68     		ldr	r3, [r7, #4]
 734 00ca 002B     		cmp	r3, #0
 735 00cc 01DA     		bge	.L38
 736 00ce 03F10F03 		add	r3, r3, #15
 737              	.L38:
 738 00d2 4FEA2313 		asr	r3, r3, #4
 739 00d6 7B60     		str	r3, [r7, #4]
 740              	.L27:
 148:.\main.c      ****     while (n!=0)
 741              		.loc 1 148 0 discriminator 1
 742 00d8 7B68     		ldr	r3, [r7, #4]
 743 00da 002B     		cmp	r3, #0
 744 00dc 99D1     		bne	.L39
 177:.\main.c      ****     }
 178:.\main.c      ****     hex[i]='\0';
 745              		.loc 1 178 0
 746 00de FB68     		ldr	r3, [r7, #12]
 747 00e0 3A68     		ldr	r2, [r7, #0]
 748 00e2 D318     		adds	r3, r2, r3
 749 00e4 4FF00002 		mov	r2, #0
 750 00e8 1A70     		strb	r2, [r3, #0]
 179:.\main.c      ****     mystrrev(hex);   /* Reverse string */
 751              		.loc 1 179 0
 752 00ea 3868     		ldr	r0, [r7, #0]
 753 00ec FFF7FEFF 		bl	mystrrev
 180:.\main.c      **** }
 754              		.loc 1 180 0
 755 00f0 07F11007 		add	r7, r7, #16
 756 00f4 BD46     		mov	sp, r7
 757 00f6 80BD     		pop	{r7, pc}
 758              		.cfi_endproc
 759              	.LFE65:
 760              		.size	decimal_hex, .-decimal_hex
 761              		.section	.rodata
 762              		.align	2
 763              	.LC0:
 764 0000 63686172 		.ascii	"char \000"
 764      2000
 765 0006 0000     		.align	2
 766              	.LC1:
 767 0008 64656320 		.ascii	"dec \000"
 767      00
 768 000d 000000   		.align	2
 769              	.LC2:
 770 0010 68657820 		.ascii	"hex \000"
 770      00
 771 0015 000000   		.align	2
 772              	.LC3:
 773 0018 66756C6C 		.ascii	"full \000"
 773      2000
 774 001e 0000     		.section	.text.main,"ax",%progbits
 775              		.align	2
 776              		.global	main
 777              		.thumb
 778              		.thumb_func
ARM GAS  C:\Users\makij\AppData\Local\Temp\cclyfLhl.s 			page 18


 779              		.type	main, %function
 780              	main:
 781              	.LFB66:
 181:.\main.c      **** 
 182:.\main.c      **** 
 183:.\main.c      **** 
 184:.\main.c      **** int main()
 185:.\main.c      **** {
 782              		.loc 1 185 0
 783              		.cfi_startproc
 784              		@ args = 0, pretend = 0, frame = 32
 785              		@ frame_needed = 1, uses_anonymous_args = 0
 786 0000 80B5     		push	{r7, lr}
 787              	.LCFI25:
 788              		.cfi_def_cfa_offset 8
 789              		.cfi_offset 7, -8
 790              		.cfi_offset 14, -4
 791 0002 88B0     		sub	sp, sp, #32
 792              	.LCFI26:
 793              		.cfi_def_cfa_offset 40
 794 0004 00AF     		add	r7, sp, #0
 795              	.LCFI27:
 796              		.cfi_def_cfa_register 7
 186:.\main.c      **** 	// Initialize all components
 187:.\main.c      **** 	init();
 797              		.loc 1 187 0
 798 0006 FFF7FEFF 		bl	init
 188:.\main.c      **** 	uint16 count;
 189:.\main.c      **** 	bool messageReady = false;
 799              		.loc 1 189 0
 800 000a 4FF00003 		mov	r3, #0
 801 000e FB77     		strb	r3, [r7, #31]
 802              	.L93:
 190:.\main.c      **** 	// main program loop
 191:.\main.c      **** 	for(;;)
 192:.\main.c      ****     {
 193:.\main.c      **** 		// these states are switched in the various ISR's
 194:.\main.c      **** 		switch(currentState)
 803              		.loc 1 194 0
 804 0010 40F20003 		movw	r3, #:lower16:currentState
 805 0014 C0F20003 		movt	r3, #:upper16:currentState
 806 0018 1B78     		ldrb	r3, [r3, #0]	@ zero_extendqisi2
 807 001a 012B     		cmp	r3, #1
 808 001c 00F03484 		beq	.L43
 809 0020 022B     		cmp	r3, #2
 810 0022 00F03E84 		beq	.L44
 811 0026 002B     		cmp	r3, #0
 812 0028 40F05684 		bne	.L41
 813              	.L42:
 195:.\main.c      **** 		{
 196:.\main.c      **** 			case IDLE:
 197:.\main.c      **** 			/****************************************
 198:.\main.c      **** 			uncommented as the current state was not changing
 199:.\main.c      **** 			*********************************************/
 200:.\main.c      **** 			/*
 201:.\main.c      **** 			if(i_send == 0 || i_send == forLoopCounter)
 202:.\main.c      **** 			{
ARM GAS  C:\Users\makij\AppData\Local\Temp\cclyfLhl.s 			page 19


 203:.\main.c      **** 				Timer_sendData_Sleep();
 204:.\main.c      **** 			}
 205:.\main.c      **** 			*/
 206:.\main.c      **** 			
 207:.\main.c      **** 			/*
 208:.\main.c      **** 				Transm_Output_Write(1);
 209:.\main.c      **** 			*/
 210:.\main.c      **** 				if(USB_DataIsReady() != 0u)               /* Check for input data from PC */
 814              		.loc 1 210 0
 815 002c FFF7FEFF 		bl	USB_DataIsReady
 816 0030 0346     		mov	r3, r0
 817 0032 002B     		cmp	r3, #0
 818 0034 55D0     		beq	.L45
 211:.\main.c      **** 	       		{   
 212:.\main.c      **** 		           count = USB_GetAll(buffer);           /* Read received data and re-enable OUT endpoint
 819              		.loc 1 212 0
 820 0036 40F20000 		movw	r0, #:lower16:buffer
 821 003a C0F20000 		movt	r0, #:upper16:buffer
 822 003e FFF7FEFF 		bl	USB_GetAll
 823 0042 0346     		mov	r3, r0
 824 0044 FB80     		strh	r3, [r7, #6]	@ movhi
 213:.\main.c      **** 		          if(count != 0u)
 825              		.loc 1 213 0
 826 0046 FB88     		ldrh	r3, [r7, #6]
 827 0048 002B     		cmp	r3, #0
 828 004a 4AD0     		beq	.L45
 829              	.LBB2:
 214:.\main.c      **** 		           {    
 215:.\main.c      **** 					
 216:.\main.c      **** 				
 217:.\main.c      **** 						//while(USB_CDCIsReady() == 0u); /* Wait till component is ready to send more data to the PC 
 218:.\main.c      **** 			              //USB_PutData(buffer, count);         /* Send zero-length packet to PC */
 219:.\main.c      **** 						int counter;
 220:.\main.c      **** 						for(counter = 0; counter < count && messageReady == false; counter++)
 830              		.loc 1 220 0
 831 004c 4FF00003 		mov	r3, #0
 832 0050 BB61     		str	r3, [r7, #24]
 833 0052 3CE0     		b	.L46
 834              	.L94:
 221:.\main.c      **** 						{
 222:.\main.c      **** 							while(USB_CDCIsReady() ==0u);
 835              		.loc 1 222 0
 836 0054 00BF     		nop
 837              	.L47:
 838              		.loc 1 222 0 is_stmt 0 discriminator 1
 839 0056 FFF7FEFF 		bl	USB_CDCIsReady
 840 005a 0346     		mov	r3, r0
 841 005c 002B     		cmp	r3, #0
 842 005e FAD0     		beq	.L47
 223:.\main.c      **** 							USB_PutChar(buffer[counter]);
 843              		.loc 1 223 0 is_stmt 1
 844 0060 40F20003 		movw	r3, #:lower16:buffer
 845 0064 C0F20003 		movt	r3, #:upper16:buffer
 846 0068 BA69     		ldr	r2, [r7, #24]
 847 006a 9B18     		adds	r3, r3, r2
 848 006c 1B78     		ldrb	r3, [r3, #0]	@ zero_extendqisi2
 849 006e 1846     		mov	r0, r3
ARM GAS  C:\Users\makij\AppData\Local\Temp\cclyfLhl.s 			page 20


 850 0070 FFF7FEFF 		bl	USB_PutChar
 224:.\main.c      **** 							usb[messageSize] = buffer[counter];
 851              		.loc 1 224 0
 852 0074 40F20003 		movw	r3, #:lower16:messageSize
 853 0078 C0F20003 		movt	r3, #:upper16:messageSize
 854 007c 1A68     		ldr	r2, [r3, #0]
 855 007e 40F20003 		movw	r3, #:lower16:buffer
 856 0082 C0F20003 		movt	r3, #:upper16:buffer
 857 0086 B969     		ldr	r1, [r7, #24]
 858 0088 5B18     		adds	r3, r3, r1
 859 008a 1978     		ldrb	r1, [r3, #0]	@ zero_extendqisi2
 860 008c 40F20003 		movw	r3, #:lower16:usb
 861 0090 C0F20003 		movt	r3, #:upper16:usb
 862 0094 9954     		strb	r1, [r3, r2]
 225:.\main.c      **** 							
 226:.\main.c      **** 						
 227:.\main.c      **** 							
 228:.\main.c      **** 							messageSize++;
 863              		.loc 1 228 0
 864 0096 40F20003 		movw	r3, #:lower16:messageSize
 865 009a C0F20003 		movt	r3, #:upper16:messageSize
 866 009e 1B68     		ldr	r3, [r3, #0]
 867 00a0 03F10102 		add	r2, r3, #1
 868 00a4 40F20003 		movw	r3, #:lower16:messageSize
 869 00a8 C0F20003 		movt	r3, #:upper16:messageSize
 870 00ac 1A60     		str	r2, [r3, #0]
 229:.\main.c      **** 							if(buffer[counter] == '\r'){
 871              		.loc 1 229 0
 872 00ae 40F20003 		movw	r3, #:lower16:buffer
 873 00b2 C0F20003 		movt	r3, #:upper16:buffer
 874 00b6 BA69     		ldr	r2, [r7, #24]
 875 00b8 9B18     		adds	r3, r3, r2
 876 00ba 1B78     		ldrb	r3, [r3, #0]	@ zero_extendqisi2
 877 00bc 0D2B     		cmp	r3, #13
 878 00be 02D1     		bne	.L48
 230:.\main.c      **** 								messageReady = true;
 879              		.loc 1 230 0
 880 00c0 4FF00103 		mov	r3, #1
 881 00c4 FB77     		strb	r3, [r7, #31]
 882              	.L48:
 220:.\main.c      **** 						for(counter = 0; counter < count && messageReady == false; counter++)
 883              		.loc 1 220 0
 884 00c6 BB69     		ldr	r3, [r7, #24]
 885 00c8 03F10103 		add	r3, r3, #1
 886 00cc BB61     		str	r3, [r7, #24]
 887              	.L46:
 220:.\main.c      **** 						for(counter = 0; counter < count && messageReady == false; counter++)
 888              		.loc 1 220 0 is_stmt 0 discriminator 1
 889 00ce FA88     		ldrh	r2, [r7, #6]
 890 00d0 BB69     		ldr	r3, [r7, #24]
 891 00d2 9A42     		cmp	r2, r3
 892 00d4 05DD     		ble	.L45
 220:.\main.c      **** 						for(counter = 0; counter < count && messageReady == false; counter++)
 893              		.loc 1 220 0 discriminator 2
 894 00d6 FB7F     		ldrb	r3, [r7, #31]
 895 00d8 83F00103 		eor	r3, r3, #1
 896 00dc DBB2     		uxtb	r3, r3
ARM GAS  C:\Users\makij\AppData\Local\Temp\cclyfLhl.s 			page 21


 897 00de 002B     		cmp	r3, #0
 898 00e0 B8D1     		bne	.L94
 899              	.L45:
 900              	.LBE2:
 231:.\main.c      **** 							}
 232:.\main.c      **** 						}
 233:.\main.c      **** 					
 234:.\main.c      **** 					
 235:.\main.c      **** 				
 236:.\main.c      **** 					}
 237:.\main.c      **** 				}
 238:.\main.c      **** 				
 239:.\main.c      **** 				if(messageReady)
 901              		.loc 1 239 0 is_stmt 1
 902 00e2 FB7F     		ldrb	r3, [r7, #31]	@ zero_extendqisi2
 903 00e4 002B     		cmp	r3, #0
 904 00e6 00F0F683 		beq	.L95
 905              	.LBB3:
 240:.\main.c      **** 				{
 241:.\main.c      **** 	
 242:.\main.c      **** 					//cout << "usb: " <<endl;
 243:.\main.c      **** 					int i;
 244:.\main.c      **** 					for(i = 0; usb[i] != '\r'; i++)
 906              		.loc 1 244 0
 907 00ea 4FF00003 		mov	r3, #0
 908 00ee 7B61     		str	r3, [r7, #20]
 909 00f0 62E3     		b	.L51
 910              	.L97:
 911              	.LBB4:
 245:.\main.c      **** 					{
 246:.\main.c      **** 						//cout<<"char "<<usb[i]<<endl;
 247:.\main.c      **** 						
 248:.\main.c      **** 						while(USB_CDCIsReady() == 0u);
 912              		.loc 1 248 0
 913 00f2 00BF     		nop
 914              	.L52:
 915              		.loc 1 248 0 is_stmt 0 discriminator 1
 916 00f4 FFF7FEFF 		bl	USB_CDCIsReady
 917 00f8 0346     		mov	r3, r0
 918 00fa 002B     		cmp	r3, #0
 919 00fc FAD0     		beq	.L52
 249:.\main.c      **** 								USB_PutData("char ", 5);
 920              		.loc 1 249 0 is_stmt 1
 921 00fe 40F20000 		movw	r0, #:lower16:.LC0
 922 0102 C0F20000 		movt	r0, #:upper16:.LC0
 923 0106 4FF00501 		mov	r1, #5
 924 010a FFF7FEFF 		bl	USB_PutData
 250:.\main.c      **** 								while(USB_CDCIsReady() == 0u);
 925              		.loc 1 250 0
 926 010e 00BF     		nop
 927              	.L53:
 928              		.loc 1 250 0 is_stmt 0 discriminator 1
 929 0110 FFF7FEFF 		bl	USB_CDCIsReady
 930 0114 0346     		mov	r3, r0
 931 0116 002B     		cmp	r3, #0
 932 0118 FAD0     		beq	.L53
 251:.\main.c      **** 								USB_PutChar(usb[i]);
ARM GAS  C:\Users\makij\AppData\Local\Temp\cclyfLhl.s 			page 22


 933              		.loc 1 251 0 is_stmt 1
 934 011a 40F20003 		movw	r3, #:lower16:usb
 935 011e C0F20003 		movt	r3, #:upper16:usb
 936 0122 7A69     		ldr	r2, [r7, #20]
 937 0124 9B18     		adds	r3, r3, r2
 938 0126 1B78     		ldrb	r3, [r3, #0]	@ zero_extendqisi2
 939 0128 1846     		mov	r0, r3
 940 012a FFF7FEFF 		bl	USB_PutChar
 252:.\main.c      **** 								while(USB_CDCIsReady() == 0u);
 941              		.loc 1 252 0
 942 012e 00BF     		nop
 943              	.L54:
 944              		.loc 1 252 0 is_stmt 0 discriminator 1
 945 0130 FFF7FEFF 		bl	USB_CDCIsReady
 946 0134 0346     		mov	r3, r0
 947 0136 002B     		cmp	r3, #0
 948 0138 FAD0     		beq	.L54
 253:.\main.c      **** 								USB_PutChar('\r');
 949              		.loc 1 253 0 is_stmt 1
 950 013a 4FF00D00 		mov	r0, #13
 951 013e FFF7FEFF 		bl	USB_PutChar
 254:.\main.c      **** 								while(USB_CDCIsReady() == 0u);
 952              		.loc 1 254 0
 953 0142 00BF     		nop
 954              	.L55:
 955              		.loc 1 254 0 is_stmt 0 discriminator 1
 956 0144 FFF7FEFF 		bl	USB_CDCIsReady
 957 0148 0346     		mov	r3, r0
 958 014a 002B     		cmp	r3, #0
 959 014c FAD0     		beq	.L55
 255:.\main.c      **** 								USB_PutChar('\n');
 960              		.loc 1 255 0 is_stmt 1
 961 014e 4FF00A00 		mov	r0, #10
 962 0152 FFF7FEFF 		bl	USB_PutChar
 256:.\main.c      **** 							
 257:.\main.c      **** 								dec = (unsigned int)usb[i];
 963              		.loc 1 257 0
 964 0156 40F20003 		movw	r3, #:lower16:usb
 965 015a C0F20003 		movt	r3, #:upper16:usb
 966 015e 7A69     		ldr	r2, [r7, #20]
 967 0160 9B18     		adds	r3, r3, r2
 968 0162 1B78     		ldrb	r3, [r3, #0]	@ zero_extendqisi2
 969 0164 1A46     		mov	r2, r3
 970 0166 40F20003 		movw	r3, #:lower16:dec
 971 016a C0F20003 		movt	r3, #:upper16:dec
 972 016e 1A60     		str	r2, [r3, #0]
 258:.\main.c      **** 								
 259:.\main.c      **** 								//cout<< "index: " << i << " @ " << usb[i] <<endl;
 260:.\main.c      **** 								//cout <<"dec "<< dec << endl;
 261:.\main.c      **** 								
 262:.\main.c      **** 								while(USB_CDCIsReady() == 0u);
 973              		.loc 1 262 0
 974 0170 00BF     		nop
 975              	.L56:
 976              		.loc 1 262 0 is_stmt 0 discriminator 1
 977 0172 FFF7FEFF 		bl	USB_CDCIsReady
 978 0176 0346     		mov	r3, r0
ARM GAS  C:\Users\makij\AppData\Local\Temp\cclyfLhl.s 			page 23


 979 0178 002B     		cmp	r3, #0
 980 017a FAD0     		beq	.L56
 263:.\main.c      **** 								USB_PutData("dec ", 4);
 981              		.loc 1 263 0 is_stmt 1
 982 017c 40F20000 		movw	r0, #:lower16:.LC1
 983 0180 C0F20000 		movt	r0, #:upper16:.LC1
 984 0184 4FF00401 		mov	r1, #4
 985 0188 FFF7FEFF 		bl	USB_PutData
 264:.\main.c      **** 								while(USB_CDCIsReady() == 0u);
 986              		.loc 1 264 0
 987 018c 00BF     		nop
 988              	.L57:
 989              		.loc 1 264 0 is_stmt 0 discriminator 1
 990 018e FFF7FEFF 		bl	USB_CDCIsReady
 991 0192 0346     		mov	r3, r0
 992 0194 002B     		cmp	r3, #0
 993 0196 FAD0     		beq	.L57
 265:.\main.c      **** 								USB_PutChar(dec);
 994              		.loc 1 265 0 is_stmt 1
 995 0198 40F20003 		movw	r3, #:lower16:dec
 996 019c C0F20003 		movt	r3, #:upper16:dec
 997 01a0 1B68     		ldr	r3, [r3, #0]
 998 01a2 DBB2     		uxtb	r3, r3
 999 01a4 1846     		mov	r0, r3
 1000 01a6 FFF7FEFF 		bl	USB_PutChar
 266:.\main.c      **** 								while(USB_CDCIsReady() == 0u);
 1001              		.loc 1 266 0
 1002 01aa 00BF     		nop
 1003              	.L58:
 1004              		.loc 1 266 0 is_stmt 0 discriminator 1
 1005 01ac FFF7FEFF 		bl	USB_CDCIsReady
 1006 01b0 0346     		mov	r3, r0
 1007 01b2 002B     		cmp	r3, #0
 1008 01b4 FAD0     		beq	.L58
 267:.\main.c      **** 								USB_PutChar('\r');
 1009              		.loc 1 267 0 is_stmt 1
 1010 01b6 4FF00D00 		mov	r0, #13
 1011 01ba FFF7FEFF 		bl	USB_PutChar
 268:.\main.c      **** 								while(USB_CDCIsReady() == 0u);
 1012              		.loc 1 268 0
 1013 01be 00BF     		nop
 1014              	.L59:
 1015              		.loc 1 268 0 is_stmt 0 discriminator 1
 1016 01c0 FFF7FEFF 		bl	USB_CDCIsReady
 1017 01c4 0346     		mov	r3, r0
 1018 01c6 002B     		cmp	r3, #0
 1019 01c8 FAD0     		beq	.L59
 269:.\main.c      **** 								USB_PutChar('\n');
 1020              		.loc 1 269 0 is_stmt 1
 1021 01ca 4FF00A00 		mov	r0, #10
 1022 01ce FFF7FEFF 		bl	USB_PutChar
 270:.\main.c      **** 								
 271:.\main.c      **** 								decimal_hex(dec, hex);
 1023              		.loc 1 271 0
 1024 01d2 40F20003 		movw	r3, #:lower16:dec
 1025 01d6 C0F20003 		movt	r3, #:upper16:dec
 1026 01da 1B68     		ldr	r3, [r3, #0]
ARM GAS  C:\Users\makij\AppData\Local\Temp\cclyfLhl.s 			page 24


 1027 01dc 1846     		mov	r0, r3
 1028 01de 40F20001 		movw	r1, #:lower16:hex
 1029 01e2 C0F20001 		movt	r1, #:upper16:hex
 1030 01e6 FFF7FEFF 		bl	decimal_hex
 272:.\main.c      **** 								int i2;
 273:.\main.c      **** 								for(i2 = 0; hex[i2] != '\0'; i2++)
 1031              		.loc 1 273 0
 1032 01ea 4FF00003 		mov	r3, #0
 1033 01ee 3B61     		str	r3, [r7, #16]
 1034 01f0 AFE2     		b	.L60
 1035              	.L96:
 1036              	.LBB5:
 274:.\main.c      **** 								{
 275:.\main.c      **** 									//cout << "hex " << hex[i2] << endl;
 276:.\main.c      **** 									
 277:.\main.c      **** 									while(USB_CDCIsReady() == 0u);
 1037              		.loc 1 277 0
 1038 01f2 00BF     		nop
 1039              	.L61:
 1040              		.loc 1 277 0 is_stmt 0 discriminator 1
 1041 01f4 FFF7FEFF 		bl	USB_CDCIsReady
 1042 01f8 0346     		mov	r3, r0
 1043 01fa 002B     		cmp	r3, #0
 1044 01fc FAD0     		beq	.L61
 278:.\main.c      **** 									USB_PutData("hex ", 4);
 1045              		.loc 1 278 0 is_stmt 1
 1046 01fe 40F20000 		movw	r0, #:lower16:.LC2
 1047 0202 C0F20000 		movt	r0, #:upper16:.LC2
 1048 0206 4FF00401 		mov	r1, #4
 1049 020a FFF7FEFF 		bl	USB_PutData
 279:.\main.c      **** 									while(USB_CDCIsReady() == 0u);
 1050              		.loc 1 279 0
 1051 020e 00BF     		nop
 1052              	.L62:
 1053              		.loc 1 279 0 is_stmt 0 discriminator 1
 1054 0210 FFF7FEFF 		bl	USB_CDCIsReady
 1055 0214 0346     		mov	r3, r0
 1056 0216 002B     		cmp	r3, #0
 1057 0218 FAD0     		beq	.L62
 280:.\main.c      **** 									USB_PutChar(hex[i2]);
 1058              		.loc 1 280 0 is_stmt 1
 1059 021a 40F20003 		movw	r3, #:lower16:hex
 1060 021e C0F20003 		movt	r3, #:upper16:hex
 1061 0222 3A69     		ldr	r2, [r7, #16]
 1062 0224 9B18     		adds	r3, r3, r2
 1063 0226 1B78     		ldrb	r3, [r3, #0]	@ zero_extendqisi2
 1064 0228 1846     		mov	r0, r3
 1065 022a FFF7FEFF 		bl	USB_PutChar
 281:.\main.c      **** 									USB_PutChar('\r');
 1066              		.loc 1 281 0
 1067 022e 4FF00D00 		mov	r0, #13
 1068 0232 FFF7FEFF 		bl	USB_PutChar
 282:.\main.c      **** 									while(USB_CDCIsReady() == 0u);
 1069              		.loc 1 282 0
 1070 0236 00BF     		nop
 1071              	.L63:
 1072              		.loc 1 282 0 is_stmt 0 discriminator 1
ARM GAS  C:\Users\makij\AppData\Local\Temp\cclyfLhl.s 			page 25


 1073 0238 FFF7FEFF 		bl	USB_CDCIsReady
 1074 023c 0346     		mov	r3, r0
 1075 023e 002B     		cmp	r3, #0
 1076 0240 FAD0     		beq	.L63
 283:.\main.c      **** 									USB_PutChar('\n');
 1077              		.loc 1 283 0 is_stmt 1
 1078 0242 4FF00A00 		mov	r0, #10
 1079 0246 FFF7FEFF 		bl	USB_PutChar
 284:.\main.c      **** 									
 285:.\main.c      **** 									//conver to binary
 286:.\main.c      **** 									if(hex[i2] == '0'){
 1080              		.loc 1 286 0
 1081 024a 40F20003 		movw	r3, #:lower16:hex
 1082 024e C0F20003 		movt	r3, #:upper16:hex
 1083 0252 3A69     		ldr	r2, [r7, #16]
 1084 0254 9B18     		adds	r3, r3, r2
 1085 0256 1B78     		ldrb	r3, [r3, #0]	@ zero_extendqisi2
 1086 0258 302B     		cmp	r3, #48
 1087 025a 1CD1     		bne	.L64
 287:.\main.c      **** 										packetBin[0] = '0';
 1088              		.loc 1 287 0
 1089 025c 40F20003 		movw	r3, #:lower16:packetBin
 1090 0260 C0F20003 		movt	r3, #:upper16:packetBin
 1091 0264 4FF03002 		mov	r2, #48
 1092 0268 1A70     		strb	r2, [r3, #0]
 288:.\main.c      **** 										packetBin[1] = '0';
 1093              		.loc 1 288 0
 1094 026a 40F20003 		movw	r3, #:lower16:packetBin
 1095 026e C0F20003 		movt	r3, #:upper16:packetBin
 1096 0272 4FF03002 		mov	r2, #48
 1097 0276 5A70     		strb	r2, [r3, #1]
 289:.\main.c      **** 										packetBin[2] = '0';
 1098              		.loc 1 289 0
 1099 0278 40F20003 		movw	r3, #:lower16:packetBin
 1100 027c C0F20003 		movt	r3, #:upper16:packetBin
 1101 0280 4FF03002 		mov	r2, #48
 1102 0284 9A70     		strb	r2, [r3, #2]
 290:.\main.c      **** 										packetBin[3] = '0';
 1103              		.loc 1 290 0
 1104 0286 40F20003 		movw	r3, #:lower16:packetBin
 1105 028a C0F20003 		movt	r3, #:upper16:packetBin
 1106 028e 4FF03002 		mov	r2, #48
 1107 0292 DA70     		strb	r2, [r3, #3]
 1108 0294 2FE2     		b	.L65
 1109              	.L64:
 291:.\main.c      **** 									}else if(hex[i2] =='1'){
 1110              		.loc 1 291 0
 1111 0296 40F20003 		movw	r3, #:lower16:hex
 1112 029a C0F20003 		movt	r3, #:upper16:hex
 1113 029e 3A69     		ldr	r2, [r7, #16]
 1114 02a0 9B18     		adds	r3, r3, r2
 1115 02a2 1B78     		ldrb	r3, [r3, #0]	@ zero_extendqisi2
 1116 02a4 312B     		cmp	r3, #49
 1117 02a6 1CD1     		bne	.L66
 292:.\main.c      **** 										packetBin[0] = '0';
 1118              		.loc 1 292 0
 1119 02a8 40F20003 		movw	r3, #:lower16:packetBin
ARM GAS  C:\Users\makij\AppData\Local\Temp\cclyfLhl.s 			page 26


 1120 02ac C0F20003 		movt	r3, #:upper16:packetBin
 1121 02b0 4FF03002 		mov	r2, #48
 1122 02b4 1A70     		strb	r2, [r3, #0]
 293:.\main.c      **** 										packetBin[1] = '0';
 1123              		.loc 1 293 0
 1124 02b6 40F20003 		movw	r3, #:lower16:packetBin
 1125 02ba C0F20003 		movt	r3, #:upper16:packetBin
 1126 02be 4FF03002 		mov	r2, #48
 1127 02c2 5A70     		strb	r2, [r3, #1]
 294:.\main.c      **** 										packetBin[2] = '0';
 1128              		.loc 1 294 0
 1129 02c4 40F20003 		movw	r3, #:lower16:packetBin
 1130 02c8 C0F20003 		movt	r3, #:upper16:packetBin
 1131 02cc 4FF03002 		mov	r2, #48
 1132 02d0 9A70     		strb	r2, [r3, #2]
 295:.\main.c      **** 										packetBin[3] = '1';
 1133              		.loc 1 295 0
 1134 02d2 40F20003 		movw	r3, #:lower16:packetBin
 1135 02d6 C0F20003 		movt	r3, #:upper16:packetBin
 1136 02da 4FF03102 		mov	r2, #49
 1137 02de DA70     		strb	r2, [r3, #3]
 1138 02e0 09E2     		b	.L65
 1139              	.L66:
 296:.\main.c      **** 									}else if(hex[i2] == '2'){
 1140              		.loc 1 296 0
 1141 02e2 40F20003 		movw	r3, #:lower16:hex
 1142 02e6 C0F20003 		movt	r3, #:upper16:hex
 1143 02ea 3A69     		ldr	r2, [r7, #16]
 1144 02ec 9B18     		adds	r3, r3, r2
 1145 02ee 1B78     		ldrb	r3, [r3, #0]	@ zero_extendqisi2
 1146 02f0 322B     		cmp	r3, #50
 1147 02f2 1CD1     		bne	.L67
 297:.\main.c      **** 										packetBin[0] = '0';
 1148              		.loc 1 297 0
 1149 02f4 40F20003 		movw	r3, #:lower16:packetBin
 1150 02f8 C0F20003 		movt	r3, #:upper16:packetBin
 1151 02fc 4FF03002 		mov	r2, #48
 1152 0300 1A70     		strb	r2, [r3, #0]
 298:.\main.c      **** 										packetBin[1] = '0';
 1153              		.loc 1 298 0
 1154 0302 40F20003 		movw	r3, #:lower16:packetBin
 1155 0306 C0F20003 		movt	r3, #:upper16:packetBin
 1156 030a 4FF03002 		mov	r2, #48
 1157 030e 5A70     		strb	r2, [r3, #1]
 299:.\main.c      **** 										packetBin[2] = '1';
 1158              		.loc 1 299 0
 1159 0310 40F20003 		movw	r3, #:lower16:packetBin
 1160 0314 C0F20003 		movt	r3, #:upper16:packetBin
 1161 0318 4FF03102 		mov	r2, #49
 1162 031c 9A70     		strb	r2, [r3, #2]
 300:.\main.c      **** 										packetBin[3] = '0';
 1163              		.loc 1 300 0
 1164 031e 40F20003 		movw	r3, #:lower16:packetBin
 1165 0322 C0F20003 		movt	r3, #:upper16:packetBin
 1166 0326 4FF03002 		mov	r2, #48
 1167 032a DA70     		strb	r2, [r3, #3]
 1168 032c E3E1     		b	.L65
ARM GAS  C:\Users\makij\AppData\Local\Temp\cclyfLhl.s 			page 27


 1169              	.L67:
 301:.\main.c      **** 									}else if(hex[i2] == '3'){
 1170              		.loc 1 301 0
 1171 032e 40F20003 		movw	r3, #:lower16:hex
 1172 0332 C0F20003 		movt	r3, #:upper16:hex
 1173 0336 3A69     		ldr	r2, [r7, #16]
 1174 0338 9B18     		adds	r3, r3, r2
 1175 033a 1B78     		ldrb	r3, [r3, #0]	@ zero_extendqisi2
 1176 033c 332B     		cmp	r3, #51
 1177 033e 1CD1     		bne	.L68
 302:.\main.c      **** 										packetBin[0] = '0';
 1178              		.loc 1 302 0
 1179 0340 40F20003 		movw	r3, #:lower16:packetBin
 1180 0344 C0F20003 		movt	r3, #:upper16:packetBin
 1181 0348 4FF03002 		mov	r2, #48
 1182 034c 1A70     		strb	r2, [r3, #0]
 303:.\main.c      **** 										packetBin[1] = '0';
 1183              		.loc 1 303 0
 1184 034e 40F20003 		movw	r3, #:lower16:packetBin
 1185 0352 C0F20003 		movt	r3, #:upper16:packetBin
 1186 0356 4FF03002 		mov	r2, #48
 1187 035a 5A70     		strb	r2, [r3, #1]
 304:.\main.c      **** 										packetBin[2] = '1';
 1188              		.loc 1 304 0
 1189 035c 40F20003 		movw	r3, #:lower16:packetBin
 1190 0360 C0F20003 		movt	r3, #:upper16:packetBin
 1191 0364 4FF03102 		mov	r2, #49
 1192 0368 9A70     		strb	r2, [r3, #2]
 305:.\main.c      **** 										packetBin[3] = '1';
 1193              		.loc 1 305 0
 1194 036a 40F20003 		movw	r3, #:lower16:packetBin
 1195 036e C0F20003 		movt	r3, #:upper16:packetBin
 1196 0372 4FF03102 		mov	r2, #49
 1197 0376 DA70     		strb	r2, [r3, #3]
 1198 0378 BDE1     		b	.L65
 1199              	.L68:
 306:.\main.c      **** 									}else if(hex[i2] == '4'){
 1200              		.loc 1 306 0
 1201 037a 40F20003 		movw	r3, #:lower16:hex
 1202 037e C0F20003 		movt	r3, #:upper16:hex
 1203 0382 3A69     		ldr	r2, [r7, #16]
 1204 0384 9B18     		adds	r3, r3, r2
 1205 0386 1B78     		ldrb	r3, [r3, #0]	@ zero_extendqisi2
 1206 0388 342B     		cmp	r3, #52
 1207 038a 1CD1     		bne	.L69
 307:.\main.c      **** 										packetBin[0] = '0';
 1208              		.loc 1 307 0
 1209 038c 40F20003 		movw	r3, #:lower16:packetBin
 1210 0390 C0F20003 		movt	r3, #:upper16:packetBin
 1211 0394 4FF03002 		mov	r2, #48
 1212 0398 1A70     		strb	r2, [r3, #0]
 308:.\main.c      **** 										packetBin[1] = '1';
 1213              		.loc 1 308 0
 1214 039a 40F20003 		movw	r3, #:lower16:packetBin
 1215 039e C0F20003 		movt	r3, #:upper16:packetBin
 1216 03a2 4FF03102 		mov	r2, #49
 1217 03a6 5A70     		strb	r2, [r3, #1]
ARM GAS  C:\Users\makij\AppData\Local\Temp\cclyfLhl.s 			page 28


 309:.\main.c      **** 										packetBin[2] = '0';
 1218              		.loc 1 309 0
 1219 03a8 40F20003 		movw	r3, #:lower16:packetBin
 1220 03ac C0F20003 		movt	r3, #:upper16:packetBin
 1221 03b0 4FF03002 		mov	r2, #48
 1222 03b4 9A70     		strb	r2, [r3, #2]
 310:.\main.c      **** 										packetBin[3] = '0';
 1223              		.loc 1 310 0
 1224 03b6 40F20003 		movw	r3, #:lower16:packetBin
 1225 03ba C0F20003 		movt	r3, #:upper16:packetBin
 1226 03be 4FF03002 		mov	r2, #48
 1227 03c2 DA70     		strb	r2, [r3, #3]
 1228 03c4 97E1     		b	.L65
 1229              	.L69:
 311:.\main.c      **** 									}else if(hex[i2] == '5'){
 1230              		.loc 1 311 0
 1231 03c6 40F20003 		movw	r3, #:lower16:hex
 1232 03ca C0F20003 		movt	r3, #:upper16:hex
 1233 03ce 3A69     		ldr	r2, [r7, #16]
 1234 03d0 9B18     		adds	r3, r3, r2
 1235 03d2 1B78     		ldrb	r3, [r3, #0]	@ zero_extendqisi2
 1236 03d4 352B     		cmp	r3, #53
 1237 03d6 1CD1     		bne	.L70
 312:.\main.c      **** 										packetBin[0] = '0';
 1238              		.loc 1 312 0
 1239 03d8 40F20003 		movw	r3, #:lower16:packetBin
 1240 03dc C0F20003 		movt	r3, #:upper16:packetBin
 1241 03e0 4FF03002 		mov	r2, #48
 1242 03e4 1A70     		strb	r2, [r3, #0]
 313:.\main.c      **** 										packetBin[1] = '1';
 1243              		.loc 1 313 0
 1244 03e6 40F20003 		movw	r3, #:lower16:packetBin
 1245 03ea C0F20003 		movt	r3, #:upper16:packetBin
 1246 03ee 4FF03102 		mov	r2, #49
 1247 03f2 5A70     		strb	r2, [r3, #1]
 314:.\main.c      **** 										packetBin[2] = '0';
 1248              		.loc 1 314 0
 1249 03f4 40F20003 		movw	r3, #:lower16:packetBin
 1250 03f8 C0F20003 		movt	r3, #:upper16:packetBin
 1251 03fc 4FF03002 		mov	r2, #48
 1252 0400 9A70     		strb	r2, [r3, #2]
 315:.\main.c      **** 										packetBin[3] = '1';
 1253              		.loc 1 315 0
 1254 0402 40F20003 		movw	r3, #:lower16:packetBin
 1255 0406 C0F20003 		movt	r3, #:upper16:packetBin
 1256 040a 4FF03102 		mov	r2, #49
 1257 040e DA70     		strb	r2, [r3, #3]
 1258 0410 71E1     		b	.L65
 1259              	.L70:
 316:.\main.c      **** 									}else if(hex[i2] == '6'){
 1260              		.loc 1 316 0
 1261 0412 40F20003 		movw	r3, #:lower16:hex
 1262 0416 C0F20003 		movt	r3, #:upper16:hex
 1263 041a 3A69     		ldr	r2, [r7, #16]
 1264 041c 9B18     		adds	r3, r3, r2
 1265 041e 1B78     		ldrb	r3, [r3, #0]	@ zero_extendqisi2
 1266 0420 362B     		cmp	r3, #54
ARM GAS  C:\Users\makij\AppData\Local\Temp\cclyfLhl.s 			page 29


 1267 0422 1CD1     		bne	.L71
 317:.\main.c      **** 										packetBin[0] = '0';
 1268              		.loc 1 317 0
 1269 0424 40F20003 		movw	r3, #:lower16:packetBin
 1270 0428 C0F20003 		movt	r3, #:upper16:packetBin
 1271 042c 4FF03002 		mov	r2, #48
 1272 0430 1A70     		strb	r2, [r3, #0]
 318:.\main.c      **** 										packetBin[1] = '1';
 1273              		.loc 1 318 0
 1274 0432 40F20003 		movw	r3, #:lower16:packetBin
 1275 0436 C0F20003 		movt	r3, #:upper16:packetBin
 1276 043a 4FF03102 		mov	r2, #49
 1277 043e 5A70     		strb	r2, [r3, #1]
 319:.\main.c      **** 										packetBin[2] = '1';
 1278              		.loc 1 319 0
 1279 0440 40F20003 		movw	r3, #:lower16:packetBin
 1280 0444 C0F20003 		movt	r3, #:upper16:packetBin
 1281 0448 4FF03102 		mov	r2, #49
 1282 044c 9A70     		strb	r2, [r3, #2]
 320:.\main.c      **** 										packetBin[3] = '0';
 1283              		.loc 1 320 0
 1284 044e 40F20003 		movw	r3, #:lower16:packetBin
 1285 0452 C0F20003 		movt	r3, #:upper16:packetBin
 1286 0456 4FF03002 		mov	r2, #48
 1287 045a DA70     		strb	r2, [r3, #3]
 1288 045c 4BE1     		b	.L65
 1289              	.L71:
 321:.\main.c      **** 									}else if(hex[i2] == '7'){
 1290              		.loc 1 321 0
 1291 045e 40F20003 		movw	r3, #:lower16:hex
 1292 0462 C0F20003 		movt	r3, #:upper16:hex
 1293 0466 3A69     		ldr	r2, [r7, #16]
 1294 0468 9B18     		adds	r3, r3, r2
 1295 046a 1B78     		ldrb	r3, [r3, #0]	@ zero_extendqisi2
 1296 046c 372B     		cmp	r3, #55
 1297 046e 1CD1     		bne	.L72
 322:.\main.c      **** 										packetBin[0] = '0';
 1298              		.loc 1 322 0
 1299 0470 40F20003 		movw	r3, #:lower16:packetBin
 1300 0474 C0F20003 		movt	r3, #:upper16:packetBin
 1301 0478 4FF03002 		mov	r2, #48
 1302 047c 1A70     		strb	r2, [r3, #0]
 323:.\main.c      **** 										packetBin[1] = '1';
 1303              		.loc 1 323 0
 1304 047e 40F20003 		movw	r3, #:lower16:packetBin
 1305 0482 C0F20003 		movt	r3, #:upper16:packetBin
 1306 0486 4FF03102 		mov	r2, #49
 1307 048a 5A70     		strb	r2, [r3, #1]
 324:.\main.c      **** 										packetBin[2] = '1';
 1308              		.loc 1 324 0
 1309 048c 40F20003 		movw	r3, #:lower16:packetBin
 1310 0490 C0F20003 		movt	r3, #:upper16:packetBin
 1311 0494 4FF03102 		mov	r2, #49
 1312 0498 9A70     		strb	r2, [r3, #2]
 325:.\main.c      **** 										packetBin[3] = '1';
 1313              		.loc 1 325 0
 1314 049a 40F20003 		movw	r3, #:lower16:packetBin
ARM GAS  C:\Users\makij\AppData\Local\Temp\cclyfLhl.s 			page 30


 1315 049e C0F20003 		movt	r3, #:upper16:packetBin
 1316 04a2 4FF03102 		mov	r2, #49
 1317 04a6 DA70     		strb	r2, [r3, #3]
 1318 04a8 25E1     		b	.L65
 1319              	.L72:
 326:.\main.c      **** 									}else if(hex[i2] == '8'){
 1320              		.loc 1 326 0
 1321 04aa 40F20003 		movw	r3, #:lower16:hex
 1322 04ae C0F20003 		movt	r3, #:upper16:hex
 1323 04b2 3A69     		ldr	r2, [r7, #16]
 1324 04b4 9B18     		adds	r3, r3, r2
 1325 04b6 1B78     		ldrb	r3, [r3, #0]	@ zero_extendqisi2
 1326 04b8 382B     		cmp	r3, #56
 1327 04ba 1CD1     		bne	.L73
 327:.\main.c      **** 										packetBin[0] = '1';
 1328              		.loc 1 327 0
 1329 04bc 40F20003 		movw	r3, #:lower16:packetBin
 1330 04c0 C0F20003 		movt	r3, #:upper16:packetBin
 1331 04c4 4FF03102 		mov	r2, #49
 1332 04c8 1A70     		strb	r2, [r3, #0]
 328:.\main.c      **** 										packetBin[1] = '0';
 1333              		.loc 1 328 0
 1334 04ca 40F20003 		movw	r3, #:lower16:packetBin
 1335 04ce C0F20003 		movt	r3, #:upper16:packetBin
 1336 04d2 4FF03002 		mov	r2, #48
 1337 04d6 5A70     		strb	r2, [r3, #1]
 329:.\main.c      **** 										packetBin[2] = '0';
 1338              		.loc 1 329 0
 1339 04d8 40F20003 		movw	r3, #:lower16:packetBin
 1340 04dc C0F20003 		movt	r3, #:upper16:packetBin
 1341 04e0 4FF03002 		mov	r2, #48
 1342 04e4 9A70     		strb	r2, [r3, #2]
 330:.\main.c      **** 										packetBin[3] = '0';
 1343              		.loc 1 330 0
 1344 04e6 40F20003 		movw	r3, #:lower16:packetBin
 1345 04ea C0F20003 		movt	r3, #:upper16:packetBin
 1346 04ee 4FF03002 		mov	r2, #48
 1347 04f2 DA70     		strb	r2, [r3, #3]
 1348 04f4 FFE0     		b	.L65
 1349              	.L73:
 331:.\main.c      **** 									}else if(hex[i2] == '9'){
 1350              		.loc 1 331 0
 1351 04f6 40F20003 		movw	r3, #:lower16:hex
 1352 04fa C0F20003 		movt	r3, #:upper16:hex
 1353 04fe 3A69     		ldr	r2, [r7, #16]
 1354 0500 9B18     		adds	r3, r3, r2
 1355 0502 1B78     		ldrb	r3, [r3, #0]	@ zero_extendqisi2
 1356 0504 392B     		cmp	r3, #57
 1357 0506 1CD1     		bne	.L74
 332:.\main.c      **** 										packetBin[0] = '1';
 1358              		.loc 1 332 0
 1359 0508 40F20003 		movw	r3, #:lower16:packetBin
 1360 050c C0F20003 		movt	r3, #:upper16:packetBin
 1361 0510 4FF03102 		mov	r2, #49
 1362 0514 1A70     		strb	r2, [r3, #0]
 333:.\main.c      **** 										packetBin[1] = '0';
 1363              		.loc 1 333 0
ARM GAS  C:\Users\makij\AppData\Local\Temp\cclyfLhl.s 			page 31


 1364 0516 40F20003 		movw	r3, #:lower16:packetBin
 1365 051a C0F20003 		movt	r3, #:upper16:packetBin
 1366 051e 4FF03002 		mov	r2, #48
 1367 0522 5A70     		strb	r2, [r3, #1]
 334:.\main.c      **** 										packetBin[2] = '0';
 1368              		.loc 1 334 0
 1369 0524 40F20003 		movw	r3, #:lower16:packetBin
 1370 0528 C0F20003 		movt	r3, #:upper16:packetBin
 1371 052c 4FF03002 		mov	r2, #48
 1372 0530 9A70     		strb	r2, [r3, #2]
 335:.\main.c      **** 										packetBin[3] = '1';
 1373              		.loc 1 335 0
 1374 0532 40F20003 		movw	r3, #:lower16:packetBin
 1375 0536 C0F20003 		movt	r3, #:upper16:packetBin
 1376 053a 4FF03102 		mov	r2, #49
 1377 053e DA70     		strb	r2, [r3, #3]
 1378 0540 D9E0     		b	.L65
 1379              	.L74:
 336:.\main.c      **** 									}else if(hex[i2] == 'A'){
 1380              		.loc 1 336 0
 1381 0542 40F20003 		movw	r3, #:lower16:hex
 1382 0546 C0F20003 		movt	r3, #:upper16:hex
 1383 054a 3A69     		ldr	r2, [r7, #16]
 1384 054c 9B18     		adds	r3, r3, r2
 1385 054e 1B78     		ldrb	r3, [r3, #0]	@ zero_extendqisi2
 1386 0550 412B     		cmp	r3, #65
 1387 0552 1CD1     		bne	.L75
 337:.\main.c      **** 										packetBin[0] = '1';
 1388              		.loc 1 337 0
 1389 0554 40F20003 		movw	r3, #:lower16:packetBin
 1390 0558 C0F20003 		movt	r3, #:upper16:packetBin
 1391 055c 4FF03102 		mov	r2, #49
 1392 0560 1A70     		strb	r2, [r3, #0]
 338:.\main.c      **** 										packetBin[1] = '0';
 1393              		.loc 1 338 0
 1394 0562 40F20003 		movw	r3, #:lower16:packetBin
 1395 0566 C0F20003 		movt	r3, #:upper16:packetBin
 1396 056a 4FF03002 		mov	r2, #48
 1397 056e 5A70     		strb	r2, [r3, #1]
 339:.\main.c      **** 										packetBin[2] = '1';
 1398              		.loc 1 339 0
 1399 0570 40F20003 		movw	r3, #:lower16:packetBin
 1400 0574 C0F20003 		movt	r3, #:upper16:packetBin
 1401 0578 4FF03102 		mov	r2, #49
 1402 057c 9A70     		strb	r2, [r3, #2]
 340:.\main.c      **** 										packetBin[3] = '0';
 1403              		.loc 1 340 0
 1404 057e 40F20003 		movw	r3, #:lower16:packetBin
 1405 0582 C0F20003 		movt	r3, #:upper16:packetBin
 1406 0586 4FF03002 		mov	r2, #48
 1407 058a DA70     		strb	r2, [r3, #3]
 1408 058c B3E0     		b	.L65
 1409              	.L75:
 341:.\main.c      **** 									}else if(hex[i2] == 'B'){
 1410              		.loc 1 341 0
 1411 058e 40F20003 		movw	r3, #:lower16:hex
 1412 0592 C0F20003 		movt	r3, #:upper16:hex
ARM GAS  C:\Users\makij\AppData\Local\Temp\cclyfLhl.s 			page 32


 1413 0596 3A69     		ldr	r2, [r7, #16]
 1414 0598 9B18     		adds	r3, r3, r2
 1415 059a 1B78     		ldrb	r3, [r3, #0]	@ zero_extendqisi2
 1416 059c 422B     		cmp	r3, #66
 1417 059e 1CD1     		bne	.L76
 342:.\main.c      **** 										packetBin[0] = '1';
 1418              		.loc 1 342 0
 1419 05a0 40F20003 		movw	r3, #:lower16:packetBin
 1420 05a4 C0F20003 		movt	r3, #:upper16:packetBin
 1421 05a8 4FF03102 		mov	r2, #49
 1422 05ac 1A70     		strb	r2, [r3, #0]
 343:.\main.c      **** 										packetBin[1] = '0';
 1423              		.loc 1 343 0
 1424 05ae 40F20003 		movw	r3, #:lower16:packetBin
 1425 05b2 C0F20003 		movt	r3, #:upper16:packetBin
 1426 05b6 4FF03002 		mov	r2, #48
 1427 05ba 5A70     		strb	r2, [r3, #1]
 344:.\main.c      **** 										packetBin[2] = '1';
 1428              		.loc 1 344 0
 1429 05bc 40F20003 		movw	r3, #:lower16:packetBin
 1430 05c0 C0F20003 		movt	r3, #:upper16:packetBin
 1431 05c4 4FF03102 		mov	r2, #49
 1432 05c8 9A70     		strb	r2, [r3, #2]
 345:.\main.c      **** 										packetBin[3] = '1';
 1433              		.loc 1 345 0
 1434 05ca 40F20003 		movw	r3, #:lower16:packetBin
 1435 05ce C0F20003 		movt	r3, #:upper16:packetBin
 1436 05d2 4FF03102 		mov	r2, #49
 1437 05d6 DA70     		strb	r2, [r3, #3]
 1438 05d8 8DE0     		b	.L65
 1439              	.L76:
 346:.\main.c      **** 									}else if(hex[i2] == 'C'){
 1440              		.loc 1 346 0
 1441 05da 40F20003 		movw	r3, #:lower16:hex
 1442 05de C0F20003 		movt	r3, #:upper16:hex
 1443 05e2 3A69     		ldr	r2, [r7, #16]
 1444 05e4 9B18     		adds	r3, r3, r2
 1445 05e6 1B78     		ldrb	r3, [r3, #0]	@ zero_extendqisi2
 1446 05e8 432B     		cmp	r3, #67
 1447 05ea 1CD1     		bne	.L77
 347:.\main.c      **** 										packetBin[0] = '1';
 1448              		.loc 1 347 0
 1449 05ec 40F20003 		movw	r3, #:lower16:packetBin
 1450 05f0 C0F20003 		movt	r3, #:upper16:packetBin
 1451 05f4 4FF03102 		mov	r2, #49
 1452 05f8 1A70     		strb	r2, [r3, #0]
 348:.\main.c      **** 										packetBin[1] = '1';
 1453              		.loc 1 348 0
 1454 05fa 40F20003 		movw	r3, #:lower16:packetBin
 1455 05fe C0F20003 		movt	r3, #:upper16:packetBin
 1456 0602 4FF03102 		mov	r2, #49
 1457 0606 5A70     		strb	r2, [r3, #1]
 349:.\main.c      **** 										packetBin[2] = '0';
 1458              		.loc 1 349 0
 1459 0608 40F20003 		movw	r3, #:lower16:packetBin
 1460 060c C0F20003 		movt	r3, #:upper16:packetBin
 1461 0610 4FF03002 		mov	r2, #48
ARM GAS  C:\Users\makij\AppData\Local\Temp\cclyfLhl.s 			page 33


 1462 0614 9A70     		strb	r2, [r3, #2]
 350:.\main.c      **** 										packetBin[3] = '0';
 1463              		.loc 1 350 0
 1464 0616 40F20003 		movw	r3, #:lower16:packetBin
 1465 061a C0F20003 		movt	r3, #:upper16:packetBin
 1466 061e 4FF03002 		mov	r2, #48
 1467 0622 DA70     		strb	r2, [r3, #3]
 1468 0624 67E0     		b	.L65
 1469              	.L77:
 351:.\main.c      **** 									}else if(hex[i2] =='D'){
 1470              		.loc 1 351 0
 1471 0626 40F20003 		movw	r3, #:lower16:hex
 1472 062a C0F20003 		movt	r3, #:upper16:hex
 1473 062e 3A69     		ldr	r2, [r7, #16]
 1474 0630 9B18     		adds	r3, r3, r2
 1475 0632 1B78     		ldrb	r3, [r3, #0]	@ zero_extendqisi2
 1476 0634 442B     		cmp	r3, #68
 1477 0636 1CD1     		bne	.L78
 352:.\main.c      **** 										packetBin[0] = '1';
 1478              		.loc 1 352 0
 1479 0638 40F20003 		movw	r3, #:lower16:packetBin
 1480 063c C0F20003 		movt	r3, #:upper16:packetBin
 1481 0640 4FF03102 		mov	r2, #49
 1482 0644 1A70     		strb	r2, [r3, #0]
 353:.\main.c      **** 										packetBin[1] = '1';
 1483              		.loc 1 353 0
 1484 0646 40F20003 		movw	r3, #:lower16:packetBin
 1485 064a C0F20003 		movt	r3, #:upper16:packetBin
 1486 064e 4FF03102 		mov	r2, #49
 1487 0652 5A70     		strb	r2, [r3, #1]
 354:.\main.c      **** 										packetBin[2] = '0';
 1488              		.loc 1 354 0
 1489 0654 40F20003 		movw	r3, #:lower16:packetBin
 1490 0658 C0F20003 		movt	r3, #:upper16:packetBin
 1491 065c 4FF03002 		mov	r2, #48
 1492 0660 9A70     		strb	r2, [r3, #2]
 355:.\main.c      **** 										packetBin[3] = '1';
 1493              		.loc 1 355 0
 1494 0662 40F20003 		movw	r3, #:lower16:packetBin
 1495 0666 C0F20003 		movt	r3, #:upper16:packetBin
 1496 066a 4FF03102 		mov	r2, #49
 1497 066e DA70     		strb	r2, [r3, #3]
 1498 0670 41E0     		b	.L65
 1499              	.L78:
 356:.\main.c      **** 									}else if(hex[i2] == 'E'){
 1500              		.loc 1 356 0
 1501 0672 40F20003 		movw	r3, #:lower16:hex
 1502 0676 C0F20003 		movt	r3, #:upper16:hex
 1503 067a 3A69     		ldr	r2, [r7, #16]
 1504 067c 9B18     		adds	r3, r3, r2
 1505 067e 1B78     		ldrb	r3, [r3, #0]	@ zero_extendqisi2
 1506 0680 452B     		cmp	r3, #69
 1507 0682 1CD1     		bne	.L79
 357:.\main.c      **** 										packetBin[0] = '1';
 1508              		.loc 1 357 0
 1509 0684 40F20003 		movw	r3, #:lower16:packetBin
 1510 0688 C0F20003 		movt	r3, #:upper16:packetBin
ARM GAS  C:\Users\makij\AppData\Local\Temp\cclyfLhl.s 			page 34


 1511 068c 4FF03102 		mov	r2, #49
 1512 0690 1A70     		strb	r2, [r3, #0]
 358:.\main.c      **** 										packetBin[1] = '1';
 1513              		.loc 1 358 0
 1514 0692 40F20003 		movw	r3, #:lower16:packetBin
 1515 0696 C0F20003 		movt	r3, #:upper16:packetBin
 1516 069a 4FF03102 		mov	r2, #49
 1517 069e 5A70     		strb	r2, [r3, #1]
 359:.\main.c      **** 										packetBin[2] = '1';
 1518              		.loc 1 359 0
 1519 06a0 40F20003 		movw	r3, #:lower16:packetBin
 1520 06a4 C0F20003 		movt	r3, #:upper16:packetBin
 1521 06a8 4FF03102 		mov	r2, #49
 1522 06ac 9A70     		strb	r2, [r3, #2]
 360:.\main.c      **** 										packetBin[3] = '0';
 1523              		.loc 1 360 0
 1524 06ae 40F20003 		movw	r3, #:lower16:packetBin
 1525 06b2 C0F20003 		movt	r3, #:upper16:packetBin
 1526 06b6 4FF03002 		mov	r2, #48
 1527 06ba DA70     		strb	r2, [r3, #3]
 1528 06bc 1BE0     		b	.L65
 1529              	.L79:
 361:.\main.c      **** 									}else {
 362:.\main.c      **** 										packetBin[0] = '1';
 1530              		.loc 1 362 0
 1531 06be 40F20003 		movw	r3, #:lower16:packetBin
 1532 06c2 C0F20003 		movt	r3, #:upper16:packetBin
 1533 06c6 4FF03102 		mov	r2, #49
 1534 06ca 1A70     		strb	r2, [r3, #0]
 363:.\main.c      **** 										packetBin[1] = '1';
 1535              		.loc 1 363 0
 1536 06cc 40F20003 		movw	r3, #:lower16:packetBin
 1537 06d0 C0F20003 		movt	r3, #:upper16:packetBin
 1538 06d4 4FF03102 		mov	r2, #49
 1539 06d8 5A70     		strb	r2, [r3, #1]
 364:.\main.c      **** 										packetBin[2] = '1';
 1540              		.loc 1 364 0
 1541 06da 40F20003 		movw	r3, #:lower16:packetBin
 1542 06de C0F20003 		movt	r3, #:upper16:packetBin
 1543 06e2 4FF03102 		mov	r2, #49
 1544 06e6 9A70     		strb	r2, [r3, #2]
 365:.\main.c      **** 										packetBin[3] = '1';
 1545              		.loc 1 365 0
 1546 06e8 40F20003 		movw	r3, #:lower16:packetBin
 1547 06ec C0F20003 		movt	r3, #:upper16:packetBin
 1548 06f0 4FF03102 		mov	r2, #49
 1549 06f4 DA70     		strb	r2, [r3, #3]
 1550              	.L65:
 366:.\main.c      **** 									}
 367:.\main.c      **** 						
 368:.\main.c      **** 								int l2;
 369:.\main.c      **** 								for(l2 = 0; l2 <4; l2++)
 1551              		.loc 1 369 0
 1552 06f6 4FF00003 		mov	r3, #0
 1553 06fa FB60     		str	r3, [r7, #12]
 1554 06fc 16E0     		b	.L80
 1555              	.L81:
ARM GAS  C:\Users\makij\AppData\Local\Temp\cclyfLhl.s 			page 35


 370:.\main.c      **** 								{
 371:.\main.c      **** 									packetSend[i_send + l2] = packetBin[l2]; 	
 1556              		.loc 1 371 0 discriminator 2
 1557 06fe 40F20003 		movw	r3, #:lower16:i_send
 1558 0702 C0F20003 		movt	r3, #:upper16:i_send
 1559 0706 1A68     		ldr	r2, [r3, #0]
 1560 0708 FB68     		ldr	r3, [r7, #12]
 1561 070a D218     		adds	r2, r2, r3
 1562 070c 40F20003 		movw	r3, #:lower16:packetBin
 1563 0710 C0F20003 		movt	r3, #:upper16:packetBin
 1564 0714 F968     		ldr	r1, [r7, #12]
 1565 0716 5B18     		adds	r3, r3, r1
 1566 0718 1978     		ldrb	r1, [r3, #0]	@ zero_extendqisi2
 1567 071a 40F20003 		movw	r3, #:lower16:packetSend
 1568 071e C0F20003 		movt	r3, #:upper16:packetSend
 1569 0722 9954     		strb	r1, [r3, r2]
 369:.\main.c      **** 								for(l2 = 0; l2 <4; l2++)
 1570              		.loc 1 369 0 discriminator 2
 1571 0724 FB68     		ldr	r3, [r7, #12]
 1572 0726 03F10103 		add	r3, r3, #1
 1573 072a FB60     		str	r3, [r7, #12]
 1574              	.L80:
 369:.\main.c      **** 								for(l2 = 0; l2 <4; l2++)
 1575              		.loc 1 369 0 is_stmt 0 discriminator 1
 1576 072c FB68     		ldr	r3, [r7, #12]
 1577 072e 032B     		cmp	r3, #3
 1578 0730 E5DD     		ble	.L81
 372:.\main.c      **** 									//cout << "binary " << packetBin[l2] << " position" << i_send+l2 <<endl;
 373:.\main.c      **** 								}
 374:.\main.c      **** 								i_send +=4;
 1579              		.loc 1 374 0 is_stmt 1
 1580 0732 40F20003 		movw	r3, #:lower16:i_send
 1581 0736 C0F20003 		movt	r3, #:upper16:i_send
 1582 073a 1B68     		ldr	r3, [r3, #0]
 1583 073c 03F10402 		add	r2, r3, #4
 1584 0740 40F20003 		movw	r3, #:lower16:i_send
 1585 0744 C0F20003 		movt	r3, #:upper16:i_send
 1586 0748 1A60     		str	r2, [r3, #0]
 1587              	.LBE5:
 273:.\main.c      **** 								for(i2 = 0; hex[i2] != '\0'; i2++)
 1588              		.loc 1 273 0
 1589 074a 3B69     		ldr	r3, [r7, #16]
 1590 074c 03F10103 		add	r3, r3, #1
 1591 0750 3B61     		str	r3, [r7, #16]
 1592              	.L60:
 273:.\main.c      **** 								for(i2 = 0; hex[i2] != '\0'; i2++)
 1593              		.loc 1 273 0 is_stmt 0 discriminator 1
 1594 0752 40F20003 		movw	r3, #:lower16:hex
 1595 0756 C0F20003 		movt	r3, #:upper16:hex
 1596 075a 3A69     		ldr	r2, [r7, #16]
 1597 075c 9B18     		adds	r3, r3, r2
 1598 075e 1B78     		ldrb	r3, [r3, #0]	@ zero_extendqisi2
 1599 0760 002B     		cmp	r3, #0
 1600 0762 7FF446AD 		bne	.L96
 375:.\main.c      **** 								//cout<<"i_send " << i_send << endl;
 376:.\main.c      **** 						
 377:.\main.c      **** 							}
ARM GAS  C:\Users\makij\AppData\Local\Temp\cclyfLhl.s 			page 36


 378:.\main.c      **** 							packetSend[i_send] = '\r';
 1601              		.loc 1 378 0 is_stmt 1
 1602 0766 40F20003 		movw	r3, #:lower16:i_send
 1603 076a C0F20003 		movt	r3, #:upper16:i_send
 1604 076e 1A68     		ldr	r2, [r3, #0]
 1605 0770 40F20003 		movw	r3, #:lower16:packetSend
 1606 0774 C0F20003 		movt	r3, #:upper16:packetSend
 1607 0778 4FF00D01 		mov	r1, #13
 1608 077c 9954     		strb	r1, [r3, r2]
 379:.\main.c      **** 							while(USB_CDCIsReady() == 0u);
 1609              		.loc 1 379 0
 1610 077e 00BF     		nop
 1611              	.L83:
 1612              		.loc 1 379 0 is_stmt 0 discriminator 1
 1613 0780 FFF7FEFF 		bl	USB_CDCIsReady
 1614 0784 0346     		mov	r3, r0
 1615 0786 002B     		cmp	r3, #0
 1616 0788 FAD0     		beq	.L83
 380:.\main.c      **** 							USB_PutChar(i_send);
 1617              		.loc 1 380 0 is_stmt 1
 1618 078a 40F20003 		movw	r3, #:lower16:i_send
 1619 078e C0F20003 		movt	r3, #:upper16:i_send
 1620 0792 1B68     		ldr	r3, [r3, #0]
 1621 0794 DBB2     		uxtb	r3, r3
 1622 0796 1846     		mov	r0, r3
 1623 0798 FFF7FEFF 		bl	USB_PutChar
 381:.\main.c      **** 							
 382:.\main.c      **** 							messageReady = false;
 1624              		.loc 1 382 0
 1625 079c 4FF00003 		mov	r3, #0
 1626 07a0 FB77     		strb	r3, [r7, #31]
 383:.\main.c      **** 							messageSize = 0;
 1627              		.loc 1 383 0
 1628 07a2 40F20003 		movw	r3, #:lower16:messageSize
 1629 07a6 C0F20003 		movt	r3, #:upper16:messageSize
 1630 07aa 4FF00002 		mov	r2, #0
 1631 07ae 1A60     		str	r2, [r3, #0]
 1632              	.LBE4:
 244:.\main.c      **** 					for(i = 0; usb[i] != '\r'; i++)
 1633              		.loc 1 244 0
 1634 07b0 7B69     		ldr	r3, [r7, #20]
 1635 07b2 03F10103 		add	r3, r3, #1
 1636 07b6 7B61     		str	r3, [r7, #20]
 1637              	.L51:
 244:.\main.c      **** 					for(i = 0; usb[i] != '\r'; i++)
 1638              		.loc 1 244 0 is_stmt 0 discriminator 1
 1639 07b8 40F20003 		movw	r3, #:lower16:usb
 1640 07bc C0F20003 		movt	r3, #:upper16:usb
 1641 07c0 7A69     		ldr	r2, [r7, #20]
 1642 07c2 9B18     		adds	r3, r3, r2
 1643 07c4 1B78     		ldrb	r3, [r3, #0]	@ zero_extendqisi2
 1644 07c6 0D2B     		cmp	r3, #13
 1645 07c8 7FF493AC 		bne	.L97
 384:.\main.c      **** 						}//start of conversion
 385:.\main.c      **** 						//cout<<"full "<< endl;
 386:.\main.c      **** 						
 387:.\main.c      **** 						
ARM GAS  C:\Users\makij\AppData\Local\Temp\cclyfLhl.s 			page 37


 388:.\main.c      **** 						while(USB_CDCIsReady() == 0u);
 1646              		.loc 1 388 0 is_stmt 1
 1647 07cc 00BF     		nop
 1648              	.L85:
 1649              		.loc 1 388 0 is_stmt 0 discriminator 1
 1650 07ce FFF7FEFF 		bl	USB_CDCIsReady
 1651 07d2 0346     		mov	r3, r0
 1652 07d4 002B     		cmp	r3, #0
 1653 07d6 FAD0     		beq	.L85
 389:.\main.c      **** 						USB_PutData("full ", 5);
 1654              		.loc 1 389 0 is_stmt 1
 1655 07d8 40F20000 		movw	r0, #:lower16:.LC3
 1656 07dc C0F20000 		movt	r0, #:upper16:.LC3
 1657 07e0 4FF00501 		mov	r1, #5
 1658 07e4 FFF7FEFF 		bl	USB_PutData
 390:.\main.c      **** 						while(USB_CDCIsReady() == 0u);
 1659              		.loc 1 390 0
 1660 07e8 00BF     		nop
 1661              	.L86:
 1662              		.loc 1 390 0 is_stmt 0 discriminator 1
 1663 07ea FFF7FEFF 		bl	USB_CDCIsReady
 1664 07ee 0346     		mov	r3, r0
 1665 07f0 002B     		cmp	r3, #0
 1666 07f2 FAD0     		beq	.L86
 391:.\main.c      **** 						USB_PutChar('\r');
 1667              		.loc 1 391 0 is_stmt 1
 1668 07f4 4FF00D00 		mov	r0, #13
 1669 07f8 FFF7FEFF 		bl	USB_PutChar
 392:.\main.c      **** 						while(USB_CDCIsReady() == 0u);
 1670              		.loc 1 392 0
 1671 07fc 00BF     		nop
 1672              	.L87:
 1673              		.loc 1 392 0 is_stmt 0 discriminator 1
 1674 07fe FFF7FEFF 		bl	USB_CDCIsReady
 1675 0802 0346     		mov	r3, r0
 1676 0804 002B     		cmp	r3, #0
 1677 0806 FAD0     		beq	.L87
 393:.\main.c      **** 						USB_PutChar('\n');
 1678              		.loc 1 393 0 is_stmt 1
 1679 0808 4FF00A00 		mov	r0, #10
 1680 080c FFF7FEFF 		bl	USB_PutChar
 394:.\main.c      **** 					
 395:.\main.c      **** 						int i3;
 396:.\main.c      **** 						
 397:.\main.c      **** 						for(i3 = 0; packetSend[i3] != '\r'; i3++)
 1681              		.loc 1 397 0
 1682 0810 4FF00003 		mov	r3, #0
 1683 0814 BB60     		str	r3, [r7, #8]
 1684 0816 25E0     		b	.L88
 1685              	.L92:
 398:.\main.c      **** 						{
 399:.\main.c      **** 							if(i3 != 0 && i3%8 == 0)
 1686              		.loc 1 399 0
 1687 0818 BB68     		ldr	r3, [r7, #8]
 1688 081a 002B     		cmp	r3, #0
 1689 081c 0ED0     		beq	.L98
 1690              		.loc 1 399 0 is_stmt 0 discriminator 1
ARM GAS  C:\Users\makij\AppData\Local\Temp\cclyfLhl.s 			page 38


 1691 081e BB68     		ldr	r3, [r7, #8]
 1692 0820 03F00703 		and	r3, r3, #7
 1693 0824 002B     		cmp	r3, #0
 1694 0826 09D1     		bne	.L98
 400:.\main.c      **** 							{
 401:.\main.c      **** 								//cout<<" ";
 402:.\main.c      **** 								
 403:.\main.c      **** 								while(USB_CDCIsReady() == 0u);
 1695              		.loc 1 403 0 is_stmt 1
 1696 0828 00BF     		nop
 1697              	.L90:
 1698              		.loc 1 403 0 is_stmt 0 discriminator 1
 1699 082a FFF7FEFF 		bl	USB_CDCIsReady
 1700 082e 0346     		mov	r3, r0
 1701 0830 002B     		cmp	r3, #0
 1702 0832 FAD0     		beq	.L90
 404:.\main.c      **** 								USB_PutChar(' ');
 1703              		.loc 1 404 0 is_stmt 1
 1704 0834 4FF02000 		mov	r0, #32
 1705 0838 FFF7FEFF 		bl	USB_PutChar
 1706              	.L98:
 405:.\main.c      **** 								
 406:.\main.c      **** 								
 407:.\main.c      **** 							}
 408:.\main.c      **** 							//cout << packetSend[i3];
 409:.\main.c      **** 							while(USB_CDCIsReady() == 0u);
 1707              		.loc 1 409 0
 1708 083c 00BF     		nop
 1709              	.L91:
 1710              		.loc 1 409 0 is_stmt 0 discriminator 1
 1711 083e FFF7FEFF 		bl	USB_CDCIsReady
 1712 0842 0346     		mov	r3, r0
 1713 0844 002B     		cmp	r3, #0
 1714 0846 FAD0     		beq	.L91
 410:.\main.c      **** 							USB_PutChar(packetSend[i3]);
 1715              		.loc 1 410 0 is_stmt 1
 1716 0848 40F20003 		movw	r3, #:lower16:packetSend
 1717 084c C0F20003 		movt	r3, #:upper16:packetSend
 1718 0850 BA68     		ldr	r2, [r7, #8]
 1719 0852 9B18     		adds	r3, r3, r2
 1720 0854 1B78     		ldrb	r3, [r3, #0]	@ zero_extendqisi2
 1721 0856 1846     		mov	r0, r3
 1722 0858 FFF7FEFF 		bl	USB_PutChar
 397:.\main.c      **** 						for(i3 = 0; packetSend[i3] != '\r'; i3++)
 1723              		.loc 1 397 0
 1724 085c BB68     		ldr	r3, [r7, #8]
 1725 085e 03F10103 		add	r3, r3, #1
 1726 0862 BB60     		str	r3, [r7, #8]
 1727              	.L88:
 397:.\main.c      **** 						for(i3 = 0; packetSend[i3] != '\r'; i3++)
 1728              		.loc 1 397 0 is_stmt 0 discriminator 1
 1729 0864 40F20003 		movw	r3, #:lower16:packetSend
 1730 0868 C0F20003 		movt	r3, #:upper16:packetSend
 1731 086c BA68     		ldr	r2, [r7, #8]
 1732 086e 9B18     		adds	r3, r3, r2
 1733 0870 1B78     		ldrb	r3, [r3, #0]	@ zero_extendqisi2
 1734 0872 0D2B     		cmp	r3, #13
ARM GAS  C:\Users\makij\AppData\Local\Temp\cclyfLhl.s 			page 39


 1735 0874 D0D1     		bne	.L92
 411:.\main.c      **** 							/*
 412:.\main.c      **** 							if(packetSend[i3] == '0')
 413:.\main.c      **** 							{
 414:.\main.c      **** 								Transm_Output_Write(0);
 415:.\main.c      **** 							}else{
 416:.\main.c      **** 								Transm_Output_Write(1);
 417:.\main.c      **** 							}
 418:.\main.c      **** 							*/
 419:.\main.c      **** 						}
 420:.\main.c      **** 				
 421:.\main.c      **** 					Timer_sendData_WriteCounter(Timer_sendData_ReadPeriod());
 1736              		.loc 1 421 0 is_stmt 1
 1737 0876 FFF7FEFF 		bl	Timer_sendData_ReadPeriod
 1738 087a 0346     		mov	r3, r0
 1739 087c 1846     		mov	r0, r3
 1740 087e FFF7FEFF 		bl	Timer_sendData_WriteCounter
 422:.\main.c      **** 					Timer_sendData_Start();
 1741              		.loc 1 422 0
 1742 0882 FFF7FEFF 		bl	Timer_sendData_Start
 1743              	.LBE3:
 423:.\main.c      **** 					}//messageReady
 424:.\main.c      **** 					
 425:.\main.c      **** 				break;
 1744              		.loc 1 425 0
 1745 0886 26E0     		b	.L95
 1746              	.L43:
 426:.\main.c      **** 				
 427:.\main.c      **** 			case BUSY:
 428:.\main.c      **** 				Pin_LEDBusy_Write(1);			
 1747              		.loc 1 428 0
 1748 0888 4FF00100 		mov	r0, #1
 1749 088c FFF7FEFF 		bl	Pin_LEDBusy_Write
 429:.\main.c      **** 				Pin_LEDIdle_Write(0);
 1750              		.loc 1 429 0
 1751 0890 4FF00000 		mov	r0, #0
 1752 0894 FFF7FEFF 		bl	Pin_LEDIdle_Write
 430:.\main.c      **** 				Pin_LEDCollision_Write(0);
 1753              		.loc 1 430 0
 1754 0898 4FF00000 		mov	r0, #0
 1755 089c FFF7FEFF 		bl	Pin_LEDCollision_Write
 431:.\main.c      **** 				break;
 1756              		.loc 1 431 0
 1757 08a0 1AE0     		b	.L41
 1758              	.L44:
 432:.\main.c      **** 
 433:.\main.c      **** 			case COLLISION:	
 434:.\main.c      **** 				Timer_sendData_Sleep();
 1759              		.loc 1 434 0
 1760 08a2 FFF7FEFF 		bl	Timer_sendData_Sleep
 435:.\main.c      **** 				Transm_Output_Write(1);
 1761              		.loc 1 435 0
 1762 08a6 4FF00100 		mov	r0, #1
 1763 08aa FFF7FEFF 		bl	Transm_Output_Write
 436:.\main.c      **** 				dataReady = false;
 1764              		.loc 1 436 0
 1765 08ae 40F20003 		movw	r3, #:lower16:dataReady
ARM GAS  C:\Users\makij\AppData\Local\Temp\cclyfLhl.s 			page 40


 1766 08b2 C0F20003 		movt	r3, #:upper16:dataReady
 1767 08b6 4FF00002 		mov	r2, #0
 1768 08ba 1A70     		strb	r2, [r3, #0]
 437:.\main.c      **** 				Pin_LEDBusy_Write(0);			
 1769              		.loc 1 437 0
 1770 08bc 4FF00000 		mov	r0, #0
 1771 08c0 FFF7FEFF 		bl	Pin_LEDBusy_Write
 438:.\main.c      **** 				Pin_LEDIdle_Write(0);
 1772              		.loc 1 438 0
 1773 08c4 4FF00000 		mov	r0, #0
 1774 08c8 FFF7FEFF 		bl	Pin_LEDIdle_Write
 439:.\main.c      **** 				Pin_LEDCollision_Write(1);
 1775              		.loc 1 439 0
 1776 08cc 4FF00100 		mov	r0, #1
 1777 08d0 FFF7FEFF 		bl	Pin_LEDCollision_Write
 440:.\main.c      **** 				break;
 1778              		.loc 1 440 0
 1779 08d4 00E0     		b	.L41
 1780              	.L95:
 425:.\main.c      **** 				break;
 1781              		.loc 1 425 0
 1782 08d6 00BF     		nop
 1783              	.L41:
 441:.\main.c      **** 		}
 442:.\main.c      **** 	}
 1784              		.loc 1 442 0
 1785 08d8 FFF79ABB 		b	.L93
 1786              		.cfi_endproc
 1787              	.LFE66:
 1788              		.size	main, .-main
 1789              		.section	.text.init,"ax",%progbits
 1790              		.align	2
 1791              		.global	init
 1792              		.thumb
 1793              		.thumb_func
 1794              		.type	init, %function
 1795              	init:
 1796              	.LFB67:
 443:.\main.c      **** }
 444:.\main.c      **** 
 445:.\main.c      **** void init()
 446:.\main.c      **** {		
 1797              		.loc 1 446 0
 1798              		.cfi_startproc
 1799              		@ args = 0, pretend = 0, frame = 0
 1800              		@ frame_needed = 1, uses_anonymous_args = 0
 1801 0000 80B5     		push	{r7, lr}
 1802              	.LCFI28:
 1803              		.cfi_def_cfa_offset 8
 1804              		.cfi_offset 7, -8
 1805              		.cfi_offset 14, -4
 1806 0002 00AF     		add	r7, sp, #0
 1807              	.LCFI29:
 1808              		.cfi_def_cfa_register 7
 447:.\main.c      **** 	
 448:.\main.c      **** 	Transm_Output_Write(1);
 1809              		.loc 1 448 0
ARM GAS  C:\Users\makij\AppData\Local\Temp\cclyfLhl.s 			page 41


 1810 0004 4FF00100 		mov	r0, #1
 1811 0008 FFF7FEFF 		bl	Transm_Output_Write
 449:.\main.c      **** 	
 450:.\main.c      **** 	memset(usb, '0', 80);
 1812              		.loc 1 450 0
 1813 000c 40F20000 		movw	r0, #:lower16:usb
 1814 0010 C0F20000 		movt	r0, #:upper16:usb
 1815 0014 4FF03001 		mov	r1, #48
 1816 0018 4FF05002 		mov	r2, #80
 1817 001c FFF7FEFF 		bl	memset
 451:.\main.c      **** 	memset(hex, '0', (80*2));
 1818              		.loc 1 451 0
 1819 0020 40F20000 		movw	r0, #:lower16:hex
 1820 0024 C0F20000 		movt	r0, #:upper16:hex
 1821 0028 4FF03001 		mov	r1, #48
 1822 002c 4FF0A002 		mov	r2, #160
 1823 0030 FFF7FEFF 		bl	memset
 452:.\main.c      **** 	memset(packetBin, '0', 4);
 1824              		.loc 1 452 0
 1825 0034 40F20000 		movw	r0, #:lower16:packetBin
 1826 0038 C0F20000 		movt	r0, #:upper16:packetBin
 1827 003c 4FF03001 		mov	r1, #48
 1828 0040 4FF00402 		mov	r2, #4
 1829 0044 FFF7FEFF 		bl	memset
 453:.\main.c      **** 	memset(packetSend, '0', (80*8));
 1830              		.loc 1 453 0
 1831 0048 40F20000 		movw	r0, #:lower16:packetSend
 1832 004c C0F20000 		movt	r0, #:upper16:packetSend
 1833 0050 4FF03001 		mov	r1, #48
 1834 0054 4FF42072 		mov	r2, #640
 1835 0058 FFF7FEFF 		bl	memset
 454:.\main.c      **** 	
 455:.\main.c      **** 	messageReady = false;
 1836              		.loc 1 455 0
 1837 005c 40F20003 		movw	r3, #:lower16:messageReady
 1838 0060 C0F20003 		movt	r3, #:upper16:messageReady
 1839 0064 4FF00002 		mov	r2, #0
 1840 0068 1A70     		strb	r2, [r3, #0]
 456:.\main.c      **** 
 457:.\main.c      **** 	//Enable Global Interrupts
 458:.\main.c      **** 	CYGlobalIntEnable;
 1841              		.loc 1 458 0
 1842              	@ 458 ".\main.c" 1
 1843 006a 62B6     		CPSIE   i
 1844              	@ 0 "" 2
 459:.\main.c      **** 	
 460:.\main.c      **** 	//Init isr
 461:.\main.c      **** 	isr_BusyToCollision_StartEx(isr_BusyToCollision);
 1845              		.loc 1 461 0
 1846              		.thumb
 1847 006c 40F20000 		movw	r0, #:lower16:isr_BusyToCollision
 1848 0070 C0F20000 		movt	r0, #:upper16:isr_BusyToCollision
 1849 0074 FFF7FEFF 		bl	isr_BusyToCollision_StartEx
 462:.\main.c      **** 	isr_BusyToIdle_StartEx(isr_BusyToIdle);
 1850              		.loc 1 462 0
 1851 0078 40F20000 		movw	r0, #:lower16:isr_BusyToIdle
 1852 007c C0F20000 		movt	r0, #:upper16:isr_BusyToIdle
ARM GAS  C:\Users\makij\AppData\Local\Temp\cclyfLhl.s 			page 42


 1853 0080 FFF7FEFF 		bl	isr_BusyToIdle_StartEx
 463:.\main.c      **** 	
 464:.\main.c      **** 	isr_RisingEdge_StartEx(isr_RisingEdgeDetected);
 1854              		.loc 1 464 0
 1855 0084 40F20000 		movw	r0, #:lower16:isr_RisingEdgeDetected
 1856 0088 C0F20000 		movt	r0, #:upper16:isr_RisingEdgeDetected
 1857 008c FFF7FEFF 		bl	isr_RisingEdge_StartEx
 465:.\main.c      **** 	isr_FallingEdge_StartEx(isr_FallingEdgeDetected);
 1858              		.loc 1 465 0
 1859 0090 40F20000 		movw	r0, #:lower16:isr_FallingEdgeDetected
 1860 0094 C0F20000 		movt	r0, #:upper16:isr_FallingEdgeDetected
 1861 0098 FFF7FEFF 		bl	isr_FallingEdge_StartEx
 466:.\main.c      **** 	
 467:.\main.c      **** 	//Timer_sendData_Start();
 468:.\main.c      **** 	//Timer_sendData_Stop();
 469:.\main.c      **** 	
 470:.\main.c      **** 	
 471:.\main.c      **** 	isr_sendData_StartEx(isr_sendData);
 1862              		.loc 1 471 0
 1863 009c 40F20000 		movw	r0, #:lower16:isr_sendData
 1864 00a0 C0F20000 		movt	r0, #:upper16:isr_sendData
 1865 00a4 FFF7FEFF 		bl	isr_sendData_StartEx
 472:.\main.c      **** 	
 473:.\main.c      **** 	    /* Start USBFS Operation with 3V operation */
 474:.\main.c      ****     USB_Start(0u, USB_3V_OPERATION);
 1866              		.loc 1 474 0
 1867 00a8 4FF00000 		mov	r0, #0
 1868 00ac 4FF00001 		mov	r1, #0
 1869 00b0 FFF7FEFF 		bl	USB_Start
 475:.\main.c      **** 	 /* Wait for Device to enumerate */
 476:.\main.c      ****     while(!USB_GetConfiguration());
 1870              		.loc 1 476 0
 1871 00b4 00BF     		nop
 1872              	.L100:
 1873              		.loc 1 476 0 is_stmt 0 discriminator 1
 1874 00b6 FFF7FEFF 		bl	USB_GetConfiguration
 1875 00ba 0346     		mov	r3, r0
 1876 00bc 002B     		cmp	r3, #0
 1877 00be FAD0     		beq	.L100
 477:.\main.c      **** 
 478:.\main.c      ****     /* Enumeration is done, enable OUT endpoint for receive data from Host */
 479:.\main.c      ****     USB_CDC_Init();
 1878              		.loc 1 479 0 is_stmt 1
 1879 00c0 FFF7FEFF 		bl	USB_CDC_Init
 480:.\main.c      **** 	
 481:.\main.c      **** 	//Init Components
 482:.\main.c      **** 	//Timer_BusyToCollision_Start();
 483:.\main.c      **** 	//Timer_BusyToIdle_Start();
 484:.\main.c      **** 	
 485:.\main.c      **** }
 1880              		.loc 1 485 0
 1881 00c4 80BD     		pop	{r7, pc}
 1882              		.cfi_endproc
 1883              	.LFE67:
 1884              		.size	init, .-init
 1885 00c6 00BF     		.text
 1886              	.Letext0:
ARM GAS  C:\Users\makij\AppData\Local\Temp\cclyfLhl.s 			page 43


 1887              		.file 2 "c:\\program files (x86)\\cypress\\psoc creator\\3.0\\psoc creator\\import\\gnu_cs\\arm\\4
 1888              		.file 3 "./Generated_Source/PSoC5/cytypes.h"
 1889              		.file 4 ".\\main.h"
 1890              		.file 5 "./Generated_Source/PSoC5/core_cm3.h"
 1891              		.section	.debug_info,"",%progbits
 1892              	.Ldebug_info0:
 1893 0000 09050000 		.4byte	0x509
 1894 0004 0200     		.2byte	0x2
 1895 0006 00000000 		.4byte	.Ldebug_abbrev0
 1896 000a 04       		.byte	0x4
 1897 000b 01       		.uleb128 0x1
 1898 000c 89010000 		.4byte	.LASF53
 1899 0010 01       		.byte	0x1
 1900 0011 03030000 		.4byte	.LASF54
 1901 0015 67020000 		.4byte	.LASF55
 1902 0019 00000000 		.4byte	.Ldebug_ranges0+0
 1903 001d 00000000 		.4byte	0
 1904 0021 00000000 		.4byte	0
 1905 0025 00000000 		.4byte	.Ldebug_line0
 1906 0029 02       		.uleb128 0x2
 1907 002a 01       		.byte	0x1
 1908 002b 06       		.byte	0x6
 1909 002c 6E000000 		.4byte	.LASF0
 1910 0030 02       		.uleb128 0x2
 1911 0031 01       		.byte	0x1
 1912 0032 08       		.byte	0x8
 1913 0033 ED000000 		.4byte	.LASF1
 1914 0037 02       		.uleb128 0x2
 1915 0038 02       		.byte	0x2
 1916 0039 05       		.byte	0x5
 1917 003a 0F000000 		.4byte	.LASF2
 1918 003e 02       		.uleb128 0x2
 1919 003f 02       		.byte	0x2
 1920 0040 07       		.byte	0x7
 1921 0041 D2010000 		.4byte	.LASF3
 1922 0045 03       		.uleb128 0x3
 1923 0046 1B020000 		.4byte	.LASF9
 1924 004a 02       		.byte	0x2
 1925 004b 4F       		.byte	0x4f
 1926 004c 50000000 		.4byte	0x50
 1927 0050 02       		.uleb128 0x2
 1928 0051 04       		.byte	0x4
 1929 0052 05       		.byte	0x5
 1930 0053 BC000000 		.4byte	.LASF4
 1931 0057 02       		.uleb128 0x2
 1932 0058 04       		.byte	0x4
 1933 0059 07       		.byte	0x7
 1934 005a E4020000 		.4byte	.LASF5
 1935 005e 02       		.uleb128 0x2
 1936 005f 08       		.byte	0x8
 1937 0060 05       		.byte	0x5
 1938 0061 87000000 		.4byte	.LASF6
 1939 0065 02       		.uleb128 0x2
 1940 0066 08       		.byte	0x8
 1941 0067 07       		.byte	0x7
 1942 0068 35010000 		.4byte	.LASF7
 1943 006c 04       		.uleb128 0x4
ARM GAS  C:\Users\makij\AppData\Local\Temp\cclyfLhl.s 			page 44


 1944 006d 04       		.byte	0x4
 1945 006e 05       		.byte	0x5
 1946 006f 696E7400 		.ascii	"int\000"
 1947 0073 02       		.uleb128 0x2
 1948 0074 04       		.byte	0x4
 1949 0075 07       		.byte	0x7
 1950 0076 56010000 		.4byte	.LASF8
 1951 007a 03       		.uleb128 0x3
 1952 007b 52000000 		.4byte	.LASF10
 1953 007f 03       		.byte	0x3
 1954 0080 5B       		.byte	0x5b
 1955 0081 30000000 		.4byte	0x30
 1956 0085 03       		.uleb128 0x3
 1957 0086 35000000 		.4byte	.LASF11
 1958 008a 03       		.byte	0x3
 1959 008b 5C       		.byte	0x5c
 1960 008c 3E000000 		.4byte	0x3e
 1961 0090 02       		.uleb128 0x2
 1962 0091 04       		.byte	0x4
 1963 0092 04       		.byte	0x4
 1964 0093 81000000 		.4byte	.LASF12
 1965 0097 02       		.uleb128 0x2
 1966 0098 08       		.byte	0x8
 1967 0099 04       		.byte	0x4
 1968 009a F6020000 		.4byte	.LASF13
 1969 009e 02       		.uleb128 0x2
 1970 009f 01       		.byte	0x1
 1971 00a0 08       		.byte	0x8
 1972 00a1 F7010000 		.4byte	.LASF14
 1973 00a5 02       		.uleb128 0x2
 1974 00a6 04       		.byte	0x4
 1975 00a7 07       		.byte	0x7
 1976 00a8 19000000 		.4byte	.LASF15
 1977 00ac 05       		.uleb128 0x5
 1978 00ad 04       		.byte	0x4
 1979 00ae 9E000000 		.4byte	0x9e
 1980 00b2 06       		.uleb128 0x6
 1981 00b3 7A000000 		.4byte	0x7a
 1982 00b7 C2000000 		.4byte	0xc2
 1983 00bb 07       		.uleb128 0x7
 1984 00bc A5000000 		.4byte	0xa5
 1985 00c0 03       		.byte	0x3
 1986 00c1 00       		.byte	0
 1987 00c2 02       		.uleb128 0x2
 1988 00c3 08       		.byte	0x8
 1989 00c4 04       		.byte	0x4
 1990 00c5 D4000000 		.4byte	.LASF16
 1991 00c9 08       		.uleb128 0x8
 1992 00ca 01       		.byte	0x1
 1993 00cb 04       		.byte	0x4
 1994 00cc 1C       		.byte	0x1c
 1995 00cd E4000000 		.4byte	0xe4
 1996 00d1 09       		.uleb128 0x9
 1997 00d2 62000000 		.4byte	.LASF17
 1998 00d6 00       		.sleb128 0
 1999 00d7 09       		.uleb128 0x9
 2000 00d8 CF000000 		.4byte	.LASF18
ARM GAS  C:\Users\makij\AppData\Local\Temp\cclyfLhl.s 			page 45


 2001 00dc 01       		.sleb128 1
 2002 00dd 09       		.uleb128 0x9
 2003 00de C5000000 		.4byte	.LASF19
 2004 00e2 02       		.sleb128 2
 2005 00e3 00       		.byte	0
 2006 00e4 03       		.uleb128 0x3
 2007 00e5 A9000000 		.4byte	.LASF20
 2008 00e9 04       		.byte	0x4
 2009 00ea 1C       		.byte	0x1c
 2010 00eb C9000000 		.4byte	0xc9
 2011 00ef 0A       		.uleb128 0xa
 2012 00f0 01       		.byte	0x1
 2013 00f1 7C010000 		.4byte	.LASF26
 2014 00f5 01       		.byte	0x1
 2015 00f6 2F       		.byte	0x2f
 2016 00f7 01       		.byte	0x1
 2017 00f8 00000000 		.4byte	.LFB56
 2018 00fc 30000000 		.4byte	.LFE56
 2019 0100 00000000 		.4byte	.LLST0
 2020 0104 01       		.byte	0x1
 2021 0105 24010000 		.4byte	0x124
 2022 0109 0B       		.uleb128 0xb
 2023 010a 6300     		.ascii	"c\000"
 2024 010c 01       		.byte	0x1
 2025 010d 2F       		.byte	0x2f
 2026 010e 9E000000 		.4byte	0x9e
 2027 0112 02       		.byte	0x2
 2028 0113 91       		.byte	0x91
 2029 0114 6F       		.sleb128 -17
 2030 0115 0C       		.uleb128 0xc
 2031 0116 FB000000 		.4byte	.LASF28
 2032 011a 01       		.byte	0x1
 2033 011b 31       		.byte	0x31
 2034 011c 6C000000 		.4byte	0x6c
 2035 0120 02       		.byte	0x2
 2036 0121 91       		.byte	0x91
 2037 0122 74       		.sleb128 -12
 2038 0123 00       		.byte	0
 2039 0124 0D       		.uleb128 0xd
 2040 0125 01       		.byte	0x1
 2041 0126 03020000 		.4byte	.LASF21
 2042 012a 01       		.byte	0x1
 2043 012b 39       		.byte	0x39
 2044 012c 01       		.byte	0x1
 2045 012d 00000000 		.4byte	.LFB57
 2046 0131 20000000 		.4byte	.LFE57
 2047 0135 38000000 		.4byte	.LLST1
 2048 0139 01       		.byte	0x1
 2049 013a 0D       		.uleb128 0xd
 2050 013b 01       		.byte	0x1
 2051 013c 03010000 		.4byte	.LASF22
 2052 0140 01       		.byte	0x1
 2053 0141 40       		.byte	0x40
 2054 0142 01       		.byte	0x1
 2055 0143 00000000 		.4byte	.LFB58
 2056 0147 20000000 		.4byte	.LFE58
 2057 014b 64000000 		.4byte	.LLST2
ARM GAS  C:\Users\makij\AppData\Local\Temp\cclyfLhl.s 			page 46


 2058 014f 01       		.byte	0x1
 2059 0150 0D       		.uleb128 0xd
 2060 0151 01       		.byte	0x1
 2061 0152 26010000 		.4byte	.LASF23
 2062 0156 01       		.byte	0x1
 2063 0157 48       		.byte	0x48
 2064 0158 01       		.byte	0x1
 2065 0159 00000000 		.4byte	.LFB59
 2066 015d 1C000000 		.4byte	.LFE59
 2067 0161 90000000 		.4byte	.LLST3
 2068 0165 01       		.byte	0x1
 2069 0166 0D       		.uleb128 0xd
 2070 0167 01       		.byte	0x1
 2071 0168 53020000 		.4byte	.LASF24
 2072 016c 01       		.byte	0x1
 2073 016d 4F       		.byte	0x4f
 2074 016e 01       		.byte	0x1
 2075 016f 00000000 		.4byte	.LFB60
 2076 0173 1C000000 		.4byte	.LFE60
 2077 0177 BC000000 		.4byte	.LLST4
 2078 017b 01       		.byte	0x1
 2079 017c 0D       		.uleb128 0xd
 2080 017d 01       		.byte	0x1
 2081 017e AF000000 		.4byte	.LASF25
 2082 0182 01       		.byte	0x1
 2083 0183 55       		.byte	0x55
 2084 0184 01       		.byte	0x1
 2085 0185 00000000 		.4byte	.LFB61
 2086 0189 DE000000 		.4byte	.LFE61
 2087 018d E8000000 		.4byte	.LLST5
 2088 0191 01       		.byte	0x1
 2089 0192 0A       		.uleb128 0xa
 2090 0193 01       		.byte	0x1
 2091 0194 24030000 		.4byte	.LASF27
 2092 0198 01       		.byte	0x1
 2093 0199 74       		.byte	0x74
 2094 019a 01       		.byte	0x1
 2095 019b 00000000 		.4byte	.LFB62
 2096 019f C8000000 		.4byte	.LFE62
 2097 01a3 14010000 		.4byte	.LLST6
 2098 01a7 01       		.byte	0x1
 2099 01a8 F1010000 		.4byte	0x1f1
 2100 01ac 0B       		.uleb128 0xb
 2101 01ad 68657800 		.ascii	"hex\000"
 2102 01b1 01       		.byte	0x1
 2103 01b2 74       		.byte	0x74
 2104 01b3 AC000000 		.4byte	0xac
 2105 01b7 02       		.byte	0x2
 2106 01b8 91       		.byte	0x91
 2107 01b9 44       		.sleb128 -60
 2108 01ba 0C       		.uleb128 0xc
 2109 01bb 7A000000 		.4byte	.LASF29
 2110 01bf 01       		.byte	0x1
 2111 01c0 76       		.byte	0x76
 2112 01c1 6C000000 		.4byte	0x6c
 2113 01c5 02       		.byte	0x2
 2114 01c6 91       		.byte	0x91
ARM GAS  C:\Users\makij\AppData\Local\Temp\cclyfLhl.s 			page 47


 2115 01c7 5C       		.sleb128 -36
 2116 01c8 0C       		.uleb128 0xc
 2117 01c9 0A000000 		.4byte	.LASF30
 2118 01cd 01       		.byte	0x1
 2119 01ce 79       		.byte	0x79
 2120 01cf F1010000 		.4byte	0x1f1
 2121 01d3 03       		.byte	0x3
 2122 01d4 91       		.byte	0x91
 2123 01d5 4C       		.sleb128 -52
 2124 01d6 06       		.byte	0x6
 2125 01d7 0E       		.uleb128 0xe
 2126 01d8 6900     		.ascii	"i\000"
 2127 01da 01       		.byte	0x1
 2128 01db 7B       		.byte	0x7b
 2129 01dc 6C000000 		.4byte	0x6c
 2130 01e0 02       		.byte	0x2
 2131 01e1 91       		.byte	0x91
 2132 01e2 58       		.sleb128 -40
 2133 01e3 0E       		.uleb128 0xe
 2134 01e4 693200   		.ascii	"i2\000"
 2135 01e7 01       		.byte	0x1
 2136 01e8 7B       		.byte	0x7b
 2137 01e9 6C000000 		.4byte	0x6c
 2138 01ed 02       		.byte	0x2
 2139 01ee 91       		.byte	0x91
 2140 01ef 54       		.sleb128 -44
 2141 01f0 00       		.byte	0
 2142 01f1 06       		.uleb128 0x6
 2143 01f2 9E000000 		.4byte	0x9e
 2144 01f6 04020000 		.4byte	0x204
 2145 01fa 0F       		.uleb128 0xf
 2146 01fb A5000000 		.4byte	0xa5
 2147 01ff 03       		.byte	0x3
 2148 0200 91       		.byte	0x91
 2149 0201 50       		.sleb128 -48
 2150 0202 06       		.byte	0x6
 2151 0203 00       		.byte	0
 2152 0204 0A       		.uleb128 0xa
 2153 0205 01       		.byte	0x1
 2154 0206 E5010000 		.4byte	.LASF31
 2155 020a 01       		.byte	0x1
 2156 020b 83       		.byte	0x83
 2157 020c 01       		.byte	0x1
 2158 020d 00000000 		.4byte	.LFB63
 2159 0211 3E000000 		.4byte	.LFE63
 2160 0215 4E010000 		.4byte	.LLST7
 2161 0219 01       		.byte	0x1
 2162 021a 37020000 		.4byte	0x237
 2163 021e 0B       		.uleb128 0xb
 2164 021f 6300     		.ascii	"c\000"
 2165 0221 01       		.byte	0x1
 2166 0222 83       		.byte	0x83
 2167 0223 9E000000 		.4byte	0x9e
 2168 0227 02       		.byte	0x2
 2169 0228 91       		.byte	0x91
 2170 0229 6F       		.sleb128 -17
 2171 022a 0E       		.uleb128 0xe
ARM GAS  C:\Users\makij\AppData\Local\Temp\cclyfLhl.s 			page 48


 2172 022b 6900     		.ascii	"i\000"
 2173 022d 01       		.byte	0x1
 2174 022e 84       		.byte	0x84
 2175 022f 6C000000 		.4byte	0x6c
 2176 0233 02       		.byte	0x2
 2177 0234 91       		.byte	0x91
 2178 0235 74       		.sleb128 -12
 2179 0236 00       		.byte	0
 2180 0237 0A       		.uleb128 0xa
 2181 0238 01       		.byte	0x1
 2182 0239 95000000 		.4byte	.LASF32
 2183 023d 01       		.byte	0x1
 2184 023e 8A       		.byte	0x8a
 2185 023f 01       		.byte	0x1
 2186 0240 00000000 		.4byte	.LFB64
 2187 0244 3C000000 		.4byte	.LFE64
 2188 0248 86010000 		.4byte	.LLST8
 2189 024c 01       		.byte	0x1
 2190 024d 5E020000 		.4byte	0x25e
 2191 0251 0B       		.uleb128 0xb
 2192 0252 7300     		.ascii	"s\000"
 2193 0254 01       		.byte	0x1
 2194 0255 8A       		.byte	0x8a
 2195 0256 AC000000 		.4byte	0xac
 2196 025a 02       		.byte	0x2
 2197 025b 91       		.byte	0x91
 2198 025c 74       		.sleb128 -12
 2199 025d 00       		.byte	0
 2200 025e 0A       		.uleb128 0xa
 2201 025f 01       		.byte	0x1
 2202 0260 70010000 		.4byte	.LASF33
 2203 0264 01       		.byte	0x1
 2204 0265 91       		.byte	0x91
 2205 0266 01       		.byte	0x1
 2206 0267 00000000 		.4byte	.LFB65
 2207 026b F8000000 		.4byte	.LFE65
 2208 026f BE010000 		.4byte	.LLST9
 2209 0273 01       		.byte	0x1
 2210 0274 AD020000 		.4byte	0x2ad
 2211 0278 0B       		.uleb128 0xb
 2212 0279 6E00     		.ascii	"n\000"
 2213 027b 01       		.byte	0x1
 2214 027c 91       		.byte	0x91
 2215 027d 6C000000 		.4byte	0x6c
 2216 0281 02       		.byte	0x2
 2217 0282 91       		.byte	0x91
 2218 0283 6C       		.sleb128 -20
 2219 0284 0B       		.uleb128 0xb
 2220 0285 68657800 		.ascii	"hex\000"
 2221 0289 01       		.byte	0x1
 2222 028a 91       		.byte	0x91
 2223 028b AC000000 		.4byte	0xac
 2224 028f 02       		.byte	0x2
 2225 0290 91       		.byte	0x91
 2226 0291 68       		.sleb128 -24
 2227 0292 0E       		.uleb128 0xe
 2228 0293 6900     		.ascii	"i\000"
ARM GAS  C:\Users\makij\AppData\Local\Temp\cclyfLhl.s 			page 49


 2229 0295 01       		.byte	0x1
 2230 0296 93       		.byte	0x93
 2231 0297 6C000000 		.4byte	0x6c
 2232 029b 02       		.byte	0x2
 2233 029c 91       		.byte	0x91
 2234 029d 74       		.sleb128 -12
 2235 029e 0E       		.uleb128 0xe
 2236 029f 72656D00 		.ascii	"rem\000"
 2237 02a3 01       		.byte	0x1
 2238 02a4 93       		.byte	0x93
 2239 02a5 6C000000 		.4byte	0x6c
 2240 02a9 02       		.byte	0x2
 2241 02aa 91       		.byte	0x91
 2242 02ab 70       		.sleb128 -16
 2243 02ac 00       		.byte	0
 2244 02ad 10       		.uleb128 0x10
 2245 02ae 01       		.byte	0x1
 2246 02af 30000000 		.4byte	.LASF34
 2247 02b3 01       		.byte	0x1
 2248 02b4 B8       		.byte	0xb8
 2249 02b5 6C000000 		.4byte	0x6c
 2250 02b9 00000000 		.4byte	.LFB66
 2251 02bd DC080000 		.4byte	.LFE66
 2252 02c1 F6010000 		.4byte	.LLST10
 2253 02c5 01       		.byte	0x1
 2254 02c6 57030000 		.4byte	0x357
 2255 02ca 0C       		.uleb128 0xc
 2256 02cb FD020000 		.4byte	.LASF35
 2257 02cf 01       		.byte	0x1
 2258 02d0 BC       		.byte	0xbc
 2259 02d1 85000000 		.4byte	0x85
 2260 02d5 02       		.byte	0x2
 2261 02d6 91       		.byte	0x91
 2262 02d7 5E       		.sleb128 -34
 2263 02d8 0C       		.uleb128 0xc
 2264 02d9 E0000000 		.4byte	.LASF36
 2265 02dd 01       		.byte	0x1
 2266 02de BD       		.byte	0xbd
 2267 02df 57030000 		.4byte	0x357
 2268 02e3 02       		.byte	0x2
 2269 02e4 91       		.byte	0x91
 2270 02e5 77       		.sleb128 -9
 2271 02e6 11       		.uleb128 0x11
 2272 02e7 4C000000 		.4byte	.LBB2
 2273 02eb E2000000 		.4byte	.LBE2
 2274 02ef 02030000 		.4byte	0x302
 2275 02f3 0C       		.uleb128 0xc
 2276 02f4 FB000000 		.4byte	.LASF28
 2277 02f8 01       		.byte	0x1
 2278 02f9 DB       		.byte	0xdb
 2279 02fa 6C000000 		.4byte	0x6c
 2280 02fe 02       		.byte	0x2
 2281 02ff 91       		.byte	0x91
 2282 0300 70       		.sleb128 -16
 2283 0301 00       		.byte	0
 2284 0302 12       		.uleb128 0x12
 2285 0303 EA000000 		.4byte	.LBB3
ARM GAS  C:\Users\makij\AppData\Local\Temp\cclyfLhl.s 			page 50


 2286 0307 86080000 		.4byte	.LBE3
 2287 030b 0E       		.uleb128 0xe
 2288 030c 6900     		.ascii	"i\000"
 2289 030e 01       		.byte	0x1
 2290 030f F3       		.byte	0xf3
 2291 0310 6C000000 		.4byte	0x6c
 2292 0314 02       		.byte	0x2
 2293 0315 91       		.byte	0x91
 2294 0316 6C       		.sleb128 -20
 2295 0317 13       		.uleb128 0x13
 2296 0318 693300   		.ascii	"i3\000"
 2297 031b 01       		.byte	0x1
 2298 031c 8B01     		.2byte	0x18b
 2299 031e 6C000000 		.4byte	0x6c
 2300 0322 02       		.byte	0x2
 2301 0323 91       		.byte	0x91
 2302 0324 60       		.sleb128 -32
 2303 0325 12       		.uleb128 0x12
 2304 0326 F2000000 		.4byte	.LBB4
 2305 032a B0070000 		.4byte	.LBE4
 2306 032e 13       		.uleb128 0x13
 2307 032f 693200   		.ascii	"i2\000"
 2308 0332 01       		.byte	0x1
 2309 0333 1001     		.2byte	0x110
 2310 0335 6C000000 		.4byte	0x6c
 2311 0339 02       		.byte	0x2
 2312 033a 91       		.byte	0x91
 2313 033b 68       		.sleb128 -24
 2314 033c 12       		.uleb128 0x12
 2315 033d F2010000 		.4byte	.LBB5
 2316 0341 4A070000 		.4byte	.LBE5
 2317 0345 13       		.uleb128 0x13
 2318 0346 6C3200   		.ascii	"l2\000"
 2319 0349 01       		.byte	0x1
 2320 034a 7001     		.2byte	0x170
 2321 034c 6C000000 		.4byte	0x6c
 2322 0350 02       		.byte	0x2
 2323 0351 91       		.byte	0x91
 2324 0352 64       		.sleb128 -28
 2325 0353 00       		.byte	0
 2326 0354 00       		.byte	0
 2327 0355 00       		.byte	0
 2328 0356 00       		.byte	0
 2329 0357 02       		.uleb128 0x2
 2330 0358 01       		.byte	0x1
 2331 0359 02       		.byte	0x2
 2332 035a 30020000 		.4byte	.LASF37
 2333 035e 14       		.uleb128 0x14
 2334 035f 01       		.byte	0x1
 2335 0360 2D030000 		.4byte	.LASF56
 2336 0364 01       		.byte	0x1
 2337 0365 BD01     		.2byte	0x1bd
 2338 0367 00000000 		.4byte	.LFB67
 2339 036b C6000000 		.4byte	.LFE67
 2340 036f 2E020000 		.4byte	.LLST11
 2341 0373 01       		.byte	0x1
 2342 0374 15       		.uleb128 0x15
ARM GAS  C:\Users\makij\AppData\Local\Temp\cclyfLhl.s 			page 51


 2343 0375 17030000 		.4byte	.LASF38
 2344 0379 05       		.byte	0x5
 2345 037a 1606     		.2byte	0x616
 2346 037c 82030000 		.4byte	0x382
 2347 0380 01       		.byte	0x1
 2348 0381 01       		.byte	0x1
 2349 0382 16       		.uleb128 0x16
 2350 0383 45000000 		.4byte	0x45
 2351 0387 06       		.uleb128 0x6
 2352 0388 9E000000 		.4byte	0x9e
 2353 038c 97030000 		.4byte	0x397
 2354 0390 07       		.uleb128 0x7
 2355 0391 A5000000 		.4byte	0xa5
 2356 0395 00       		.byte	0
 2357 0396 00       		.byte	0
 2358 0397 17       		.uleb128 0x17
 2359 0398 4C020000 		.4byte	.LASF39
 2360 039c 01       		.byte	0x1
 2361 039d 18       		.byte	0x18
 2362 039e 87030000 		.4byte	0x387
 2363 03a2 01       		.byte	0x1
 2364 03a3 05       		.byte	0x5
 2365 03a4 03       		.byte	0x3
 2366 03a5 00000000 		.4byte	buffer
 2367 03a9 06       		.uleb128 0x6
 2368 03aa 9E000000 		.4byte	0x9e
 2369 03ae B9030000 		.4byte	0x3b9
 2370 03b2 07       		.uleb128 0x7
 2371 03b3 A5000000 		.4byte	0xa5
 2372 03b7 4F       		.byte	0x4f
 2373 03b8 00       		.byte	0
 2374 03b9 18       		.uleb128 0x18
 2375 03ba 75736200 		.ascii	"usb\000"
 2376 03be 01       		.byte	0x1
 2377 03bf 19       		.byte	0x19
 2378 03c0 A9030000 		.4byte	0x3a9
 2379 03c4 01       		.byte	0x1
 2380 03c5 05       		.byte	0x5
 2381 03c6 03       		.byte	0x3
 2382 03c7 00000000 		.4byte	usb
 2383 03cb 06       		.uleb128 0x6
 2384 03cc 9E000000 		.4byte	0x9e
 2385 03d0 DB030000 		.4byte	0x3db
 2386 03d4 07       		.uleb128 0x7
 2387 03d5 A5000000 		.4byte	0xa5
 2388 03d9 9F       		.byte	0x9f
 2389 03da 00       		.byte	0
 2390 03db 18       		.uleb128 0x18
 2391 03dc 68657800 		.ascii	"hex\000"
 2392 03e0 01       		.byte	0x1
 2393 03e1 1A       		.byte	0x1a
 2394 03e2 CB030000 		.4byte	0x3cb
 2395 03e6 01       		.byte	0x1
 2396 03e7 05       		.byte	0x5
 2397 03e8 03       		.byte	0x3
 2398 03e9 00000000 		.4byte	hex
 2399 03ed 17       		.uleb128 0x17
ARM GAS  C:\Users\makij\AppData\Local\Temp\cclyfLhl.s 			page 52


 2400 03ee 58000000 		.4byte	.LASF40
 2401 03f2 01       		.byte	0x1
 2402 03f3 1B       		.byte	0x1b
 2403 03f4 B2000000 		.4byte	0xb2
 2404 03f8 01       		.byte	0x1
 2405 03f9 05       		.byte	0x5
 2406 03fa 03       		.byte	0x3
 2407 03fb 00000000 		.4byte	packetBin
 2408 03ff 06       		.uleb128 0x6
 2409 0400 7A000000 		.4byte	0x7a
 2410 0404 10040000 		.4byte	0x410
 2411 0408 19       		.uleb128 0x19
 2412 0409 A5000000 		.4byte	0xa5
 2413 040d 7F02     		.2byte	0x27f
 2414 040f 00       		.byte	0
 2415 0410 17       		.uleb128 0x17
 2416 0411 0C030000 		.4byte	.LASF41
 2417 0415 01       		.byte	0x1
 2418 0416 1C       		.byte	0x1c
 2419 0417 FF030000 		.4byte	0x3ff
 2420 041b 01       		.byte	0x1
 2421 041c 05       		.byte	0x5
 2422 041d 03       		.byte	0x3
 2423 041e 00000000 		.4byte	packetSend
 2424 0422 18       		.uleb128 0x18
 2425 0423 64656300 		.ascii	"dec\000"
 2426 0427 01       		.byte	0x1
 2427 0428 1D       		.byte	0x1d
 2428 0429 73000000 		.4byte	0x73
 2429 042d 01       		.byte	0x1
 2430 042e 05       		.byte	0x5
 2431 042f 03       		.byte	0x3
 2432 0430 00000000 		.4byte	dec
 2433 0434 17       		.uleb128 0x17
 2434 0435 1A010000 		.4byte	.LASF42
 2435 0439 01       		.byte	0x1
 2436 043a 1E       		.byte	0x1e
 2437 043b 6C000000 		.4byte	0x6c
 2438 043f 01       		.byte	0x1
 2439 0440 05       		.byte	0x5
 2440 0441 03       		.byte	0x3
 2441 0442 00000000 		.4byte	messageSize
 2442 0446 17       		.uleb128 0x17
 2443 0447 40020000 		.4byte	.LASF43
 2444 044b 01       		.byte	0x1
 2445 044c 1F       		.byte	0x1f
 2446 044d 57030000 		.4byte	0x357
 2447 0451 01       		.byte	0x1
 2448 0452 05       		.byte	0x5
 2449 0453 03       		.byte	0x3
 2450 0454 00000000 		.4byte	returnFound
 2451 0458 17       		.uleb128 0x17
 2452 0459 E0000000 		.4byte	.LASF36
 2453 045d 01       		.byte	0x1
 2454 045e 20       		.byte	0x20
 2455 045f 57030000 		.4byte	0x357
 2456 0463 01       		.byte	0x1
ARM GAS  C:\Users\makij\AppData\Local\Temp\cclyfLhl.s 			page 53


 2457 0464 05       		.byte	0x5
 2458 0465 03       		.byte	0x3
 2459 0466 00000000 		.4byte	messageReady
 2460 046a 17       		.uleb128 0x17
 2461 046b FC010000 		.4byte	.LASF44
 2462 046f 01       		.byte	0x1
 2463 0470 22       		.byte	0x22
 2464 0471 6C000000 		.4byte	0x6c
 2465 0475 01       		.byte	0x1
 2466 0476 05       		.byte	0x5
 2467 0477 03       		.byte	0x3
 2468 0478 00000000 		.4byte	signal
 2469 047c 17       		.uleb128 0x17
 2470 047d 00000000 		.4byte	.LASF45
 2471 0481 01       		.byte	0x1
 2472 0482 24       		.byte	0x24
 2473 0483 A9030000 		.4byte	0x3a9
 2474 0487 01       		.byte	0x1
 2475 0488 05       		.byte	0x5
 2476 0489 03       		.byte	0x3
 2477 048a 00000000 		.4byte	packetUSB
 2478 048e 17       		.uleb128 0x17
 2479 048f 22000000 		.4byte	.LASF46
 2480 0493 01       		.byte	0x1
 2481 0494 25       		.byte	0x25
 2482 0495 A9030000 		.4byte	0x3a9
 2483 0499 01       		.byte	0x1
 2484 049a 05       		.byte	0x5
 2485 049b 03       		.byte	0x3
 2486 049c 00000000 		.4byte	packetMessage
 2487 04a0 17       		.uleb128 0x17
 2488 04a1 4C010000 		.4byte	.LASF47
 2489 04a5 01       		.byte	0x1
 2490 04a6 26       		.byte	0x26
 2491 04a7 CB030000 		.4byte	0x3cb
 2492 04ab 01       		.byte	0x1
 2493 04ac 05       		.byte	0x5
 2494 04ad 03       		.byte	0x3
 2495 04ae 00000000 		.4byte	packetHex
 2496 04b2 17       		.uleb128 0x17
 2497 04b3 63010000 		.4byte	.LASF48
 2498 04b7 01       		.byte	0x1
 2499 04b8 27       		.byte	0x27
 2500 04b9 B2000000 		.4byte	0xb2
 2501 04bd 01       		.byte	0x1
 2502 04be 05       		.byte	0x5
 2503 04bf 03       		.byte	0x3
 2504 04c0 00000000 		.4byte	packetBinary
 2505 04c4 17       		.uleb128 0x17
 2506 04c5 36020000 		.4byte	.LASF49
 2507 04c9 01       		.byte	0x1
 2508 04ca 28       		.byte	0x28
 2509 04cb 57030000 		.4byte	0x357
 2510 04cf 01       		.byte	0x1
 2511 04d0 05       		.byte	0x5
 2512 04d1 03       		.byte	0x3
 2513 04d2 00000000 		.4byte	dataReady
ARM GAS  C:\Users\makij\AppData\Local\Temp\cclyfLhl.s 			page 54


 2514 04d6 17       		.uleb128 0x17
 2515 04d7 67000000 		.4byte	.LASF50
 2516 04db 01       		.byte	0x1
 2517 04dc 29       		.byte	0x29
 2518 04dd 6C000000 		.4byte	0x6c
 2519 04e1 01       		.byte	0x1
 2520 04e2 05       		.byte	0x5
 2521 04e3 03       		.byte	0x3
 2522 04e4 00000000 		.4byte	i_send
 2523 04e8 17       		.uleb128 0x17
 2524 04e9 3C000000 		.4byte	.LASF51
 2525 04ed 01       		.byte	0x1
 2526 04ee 2A       		.byte	0x2a
 2527 04ef 7A000000 		.4byte	0x7a
 2528 04f3 01       		.byte	0x1
 2529 04f4 05       		.byte	0x5
 2530 04f5 03       		.byte	0x3
 2531 04f6 00000000 		.4byte	messageBufferPosition
 2532 04fa 17       		.uleb128 0x17
 2533 04fb 23020000 		.4byte	.LASF52
 2534 04ff 01       		.byte	0x1
 2535 0500 2D       		.byte	0x2d
 2536 0501 E4000000 		.4byte	0xe4
 2537 0505 01       		.byte	0x1
 2538 0506 05       		.byte	0x5
 2539 0507 03       		.byte	0x3
 2540 0508 00000000 		.4byte	currentState
 2541 050c 00       		.byte	0
 2542              		.section	.debug_abbrev,"",%progbits
 2543              	.Ldebug_abbrev0:
 2544 0000 01       		.uleb128 0x1
 2545 0001 11       		.uleb128 0x11
 2546 0002 01       		.byte	0x1
 2547 0003 25       		.uleb128 0x25
 2548 0004 0E       		.uleb128 0xe
 2549 0005 13       		.uleb128 0x13
 2550 0006 0B       		.uleb128 0xb
 2551 0007 03       		.uleb128 0x3
 2552 0008 0E       		.uleb128 0xe
 2553 0009 1B       		.uleb128 0x1b
 2554 000a 0E       		.uleb128 0xe
 2555 000b 55       		.uleb128 0x55
 2556 000c 06       		.uleb128 0x6
 2557 000d 11       		.uleb128 0x11
 2558 000e 01       		.uleb128 0x1
 2559 000f 52       		.uleb128 0x52
 2560 0010 01       		.uleb128 0x1
 2561 0011 10       		.uleb128 0x10
 2562 0012 06       		.uleb128 0x6
 2563 0013 00       		.byte	0
 2564 0014 00       		.byte	0
 2565 0015 02       		.uleb128 0x2
 2566 0016 24       		.uleb128 0x24
 2567 0017 00       		.byte	0
 2568 0018 0B       		.uleb128 0xb
 2569 0019 0B       		.uleb128 0xb
 2570 001a 3E       		.uleb128 0x3e
ARM GAS  C:\Users\makij\AppData\Local\Temp\cclyfLhl.s 			page 55


 2571 001b 0B       		.uleb128 0xb
 2572 001c 03       		.uleb128 0x3
 2573 001d 0E       		.uleb128 0xe
 2574 001e 00       		.byte	0
 2575 001f 00       		.byte	0
 2576 0020 03       		.uleb128 0x3
 2577 0021 16       		.uleb128 0x16
 2578 0022 00       		.byte	0
 2579 0023 03       		.uleb128 0x3
 2580 0024 0E       		.uleb128 0xe
 2581 0025 3A       		.uleb128 0x3a
 2582 0026 0B       		.uleb128 0xb
 2583 0027 3B       		.uleb128 0x3b
 2584 0028 0B       		.uleb128 0xb
 2585 0029 49       		.uleb128 0x49
 2586 002a 13       		.uleb128 0x13
 2587 002b 00       		.byte	0
 2588 002c 00       		.byte	0
 2589 002d 04       		.uleb128 0x4
 2590 002e 24       		.uleb128 0x24
 2591 002f 00       		.byte	0
 2592 0030 0B       		.uleb128 0xb
 2593 0031 0B       		.uleb128 0xb
 2594 0032 3E       		.uleb128 0x3e
 2595 0033 0B       		.uleb128 0xb
 2596 0034 03       		.uleb128 0x3
 2597 0035 08       		.uleb128 0x8
 2598 0036 00       		.byte	0
 2599 0037 00       		.byte	0
 2600 0038 05       		.uleb128 0x5
 2601 0039 0F       		.uleb128 0xf
 2602 003a 00       		.byte	0
 2603 003b 0B       		.uleb128 0xb
 2604 003c 0B       		.uleb128 0xb
 2605 003d 49       		.uleb128 0x49
 2606 003e 13       		.uleb128 0x13
 2607 003f 00       		.byte	0
 2608 0040 00       		.byte	0
 2609 0041 06       		.uleb128 0x6
 2610 0042 01       		.uleb128 0x1
 2611 0043 01       		.byte	0x1
 2612 0044 49       		.uleb128 0x49
 2613 0045 13       		.uleb128 0x13
 2614 0046 01       		.uleb128 0x1
 2615 0047 13       		.uleb128 0x13
 2616 0048 00       		.byte	0
 2617 0049 00       		.byte	0
 2618 004a 07       		.uleb128 0x7
 2619 004b 21       		.uleb128 0x21
 2620 004c 00       		.byte	0
 2621 004d 49       		.uleb128 0x49
 2622 004e 13       		.uleb128 0x13
 2623 004f 2F       		.uleb128 0x2f
 2624 0050 0B       		.uleb128 0xb
 2625 0051 00       		.byte	0
 2626 0052 00       		.byte	0
 2627 0053 08       		.uleb128 0x8
ARM GAS  C:\Users\makij\AppData\Local\Temp\cclyfLhl.s 			page 56


 2628 0054 04       		.uleb128 0x4
 2629 0055 01       		.byte	0x1
 2630 0056 0B       		.uleb128 0xb
 2631 0057 0B       		.uleb128 0xb
 2632 0058 3A       		.uleb128 0x3a
 2633 0059 0B       		.uleb128 0xb
 2634 005a 3B       		.uleb128 0x3b
 2635 005b 0B       		.uleb128 0xb
 2636 005c 01       		.uleb128 0x1
 2637 005d 13       		.uleb128 0x13
 2638 005e 00       		.byte	0
 2639 005f 00       		.byte	0
 2640 0060 09       		.uleb128 0x9
 2641 0061 28       		.uleb128 0x28
 2642 0062 00       		.byte	0
 2643 0063 03       		.uleb128 0x3
 2644 0064 0E       		.uleb128 0xe
 2645 0065 1C       		.uleb128 0x1c
 2646 0066 0D       		.uleb128 0xd
 2647 0067 00       		.byte	0
 2648 0068 00       		.byte	0
 2649 0069 0A       		.uleb128 0xa
 2650 006a 2E       		.uleb128 0x2e
 2651 006b 01       		.byte	0x1
 2652 006c 3F       		.uleb128 0x3f
 2653 006d 0C       		.uleb128 0xc
 2654 006e 03       		.uleb128 0x3
 2655 006f 0E       		.uleb128 0xe
 2656 0070 3A       		.uleb128 0x3a
 2657 0071 0B       		.uleb128 0xb
 2658 0072 3B       		.uleb128 0x3b
 2659 0073 0B       		.uleb128 0xb
 2660 0074 27       		.uleb128 0x27
 2661 0075 0C       		.uleb128 0xc
 2662 0076 11       		.uleb128 0x11
 2663 0077 01       		.uleb128 0x1
 2664 0078 12       		.uleb128 0x12
 2665 0079 01       		.uleb128 0x1
 2666 007a 40       		.uleb128 0x40
 2667 007b 06       		.uleb128 0x6
 2668 007c 9642     		.uleb128 0x2116
 2669 007e 0C       		.uleb128 0xc
 2670 007f 01       		.uleb128 0x1
 2671 0080 13       		.uleb128 0x13
 2672 0081 00       		.byte	0
 2673 0082 00       		.byte	0
 2674 0083 0B       		.uleb128 0xb
 2675 0084 05       		.uleb128 0x5
 2676 0085 00       		.byte	0
 2677 0086 03       		.uleb128 0x3
 2678 0087 08       		.uleb128 0x8
 2679 0088 3A       		.uleb128 0x3a
 2680 0089 0B       		.uleb128 0xb
 2681 008a 3B       		.uleb128 0x3b
 2682 008b 0B       		.uleb128 0xb
 2683 008c 49       		.uleb128 0x49
 2684 008d 13       		.uleb128 0x13
ARM GAS  C:\Users\makij\AppData\Local\Temp\cclyfLhl.s 			page 57


 2685 008e 02       		.uleb128 0x2
 2686 008f 0A       		.uleb128 0xa
 2687 0090 00       		.byte	0
 2688 0091 00       		.byte	0
 2689 0092 0C       		.uleb128 0xc
 2690 0093 34       		.uleb128 0x34
 2691 0094 00       		.byte	0
 2692 0095 03       		.uleb128 0x3
 2693 0096 0E       		.uleb128 0xe
 2694 0097 3A       		.uleb128 0x3a
 2695 0098 0B       		.uleb128 0xb
 2696 0099 3B       		.uleb128 0x3b
 2697 009a 0B       		.uleb128 0xb
 2698 009b 49       		.uleb128 0x49
 2699 009c 13       		.uleb128 0x13
 2700 009d 02       		.uleb128 0x2
 2701 009e 0A       		.uleb128 0xa
 2702 009f 00       		.byte	0
 2703 00a0 00       		.byte	0
 2704 00a1 0D       		.uleb128 0xd
 2705 00a2 2E       		.uleb128 0x2e
 2706 00a3 00       		.byte	0
 2707 00a4 3F       		.uleb128 0x3f
 2708 00a5 0C       		.uleb128 0xc
 2709 00a6 03       		.uleb128 0x3
 2710 00a7 0E       		.uleb128 0xe
 2711 00a8 3A       		.uleb128 0x3a
 2712 00a9 0B       		.uleb128 0xb
 2713 00aa 3B       		.uleb128 0x3b
 2714 00ab 0B       		.uleb128 0xb
 2715 00ac 27       		.uleb128 0x27
 2716 00ad 0C       		.uleb128 0xc
 2717 00ae 11       		.uleb128 0x11
 2718 00af 01       		.uleb128 0x1
 2719 00b0 12       		.uleb128 0x12
 2720 00b1 01       		.uleb128 0x1
 2721 00b2 40       		.uleb128 0x40
 2722 00b3 06       		.uleb128 0x6
 2723 00b4 9642     		.uleb128 0x2116
 2724 00b6 0C       		.uleb128 0xc
 2725 00b7 00       		.byte	0
 2726 00b8 00       		.byte	0
 2727 00b9 0E       		.uleb128 0xe
 2728 00ba 34       		.uleb128 0x34
 2729 00bb 00       		.byte	0
 2730 00bc 03       		.uleb128 0x3
 2731 00bd 08       		.uleb128 0x8
 2732 00be 3A       		.uleb128 0x3a
 2733 00bf 0B       		.uleb128 0xb
 2734 00c0 3B       		.uleb128 0x3b
 2735 00c1 0B       		.uleb128 0xb
 2736 00c2 49       		.uleb128 0x49
 2737 00c3 13       		.uleb128 0x13
 2738 00c4 02       		.uleb128 0x2
 2739 00c5 0A       		.uleb128 0xa
 2740 00c6 00       		.byte	0
 2741 00c7 00       		.byte	0
ARM GAS  C:\Users\makij\AppData\Local\Temp\cclyfLhl.s 			page 58


 2742 00c8 0F       		.uleb128 0xf
 2743 00c9 21       		.uleb128 0x21
 2744 00ca 00       		.byte	0
 2745 00cb 49       		.uleb128 0x49
 2746 00cc 13       		.uleb128 0x13
 2747 00cd 2F       		.uleb128 0x2f
 2748 00ce 0A       		.uleb128 0xa
 2749 00cf 00       		.byte	0
 2750 00d0 00       		.byte	0
 2751 00d1 10       		.uleb128 0x10
 2752 00d2 2E       		.uleb128 0x2e
 2753 00d3 01       		.byte	0x1
 2754 00d4 3F       		.uleb128 0x3f
 2755 00d5 0C       		.uleb128 0xc
 2756 00d6 03       		.uleb128 0x3
 2757 00d7 0E       		.uleb128 0xe
 2758 00d8 3A       		.uleb128 0x3a
 2759 00d9 0B       		.uleb128 0xb
 2760 00da 3B       		.uleb128 0x3b
 2761 00db 0B       		.uleb128 0xb
 2762 00dc 49       		.uleb128 0x49
 2763 00dd 13       		.uleb128 0x13
 2764 00de 11       		.uleb128 0x11
 2765 00df 01       		.uleb128 0x1
 2766 00e0 12       		.uleb128 0x12
 2767 00e1 01       		.uleb128 0x1
 2768 00e2 40       		.uleb128 0x40
 2769 00e3 06       		.uleb128 0x6
 2770 00e4 9642     		.uleb128 0x2116
 2771 00e6 0C       		.uleb128 0xc
 2772 00e7 01       		.uleb128 0x1
 2773 00e8 13       		.uleb128 0x13
 2774 00e9 00       		.byte	0
 2775 00ea 00       		.byte	0
 2776 00eb 11       		.uleb128 0x11
 2777 00ec 0B       		.uleb128 0xb
 2778 00ed 01       		.byte	0x1
 2779 00ee 11       		.uleb128 0x11
 2780 00ef 01       		.uleb128 0x1
 2781 00f0 12       		.uleb128 0x12
 2782 00f1 01       		.uleb128 0x1
 2783 00f2 01       		.uleb128 0x1
 2784 00f3 13       		.uleb128 0x13
 2785 00f4 00       		.byte	0
 2786 00f5 00       		.byte	0
 2787 00f6 12       		.uleb128 0x12
 2788 00f7 0B       		.uleb128 0xb
 2789 00f8 01       		.byte	0x1
 2790 00f9 11       		.uleb128 0x11
 2791 00fa 01       		.uleb128 0x1
 2792 00fb 12       		.uleb128 0x12
 2793 00fc 01       		.uleb128 0x1
 2794 00fd 00       		.byte	0
 2795 00fe 00       		.byte	0
 2796 00ff 13       		.uleb128 0x13
 2797 0100 34       		.uleb128 0x34
 2798 0101 00       		.byte	0
ARM GAS  C:\Users\makij\AppData\Local\Temp\cclyfLhl.s 			page 59


 2799 0102 03       		.uleb128 0x3
 2800 0103 08       		.uleb128 0x8
 2801 0104 3A       		.uleb128 0x3a
 2802 0105 0B       		.uleb128 0xb
 2803 0106 3B       		.uleb128 0x3b
 2804 0107 05       		.uleb128 0x5
 2805 0108 49       		.uleb128 0x49
 2806 0109 13       		.uleb128 0x13
 2807 010a 02       		.uleb128 0x2
 2808 010b 0A       		.uleb128 0xa
 2809 010c 00       		.byte	0
 2810 010d 00       		.byte	0
 2811 010e 14       		.uleb128 0x14
 2812 010f 2E       		.uleb128 0x2e
 2813 0110 00       		.byte	0
 2814 0111 3F       		.uleb128 0x3f
 2815 0112 0C       		.uleb128 0xc
 2816 0113 03       		.uleb128 0x3
 2817 0114 0E       		.uleb128 0xe
 2818 0115 3A       		.uleb128 0x3a
 2819 0116 0B       		.uleb128 0xb
 2820 0117 3B       		.uleb128 0x3b
 2821 0118 05       		.uleb128 0x5
 2822 0119 11       		.uleb128 0x11
 2823 011a 01       		.uleb128 0x1
 2824 011b 12       		.uleb128 0x12
 2825 011c 01       		.uleb128 0x1
 2826 011d 40       		.uleb128 0x40
 2827 011e 06       		.uleb128 0x6
 2828 011f 9642     		.uleb128 0x2116
 2829 0121 0C       		.uleb128 0xc
 2830 0122 00       		.byte	0
 2831 0123 00       		.byte	0
 2832 0124 15       		.uleb128 0x15
 2833 0125 34       		.uleb128 0x34
 2834 0126 00       		.byte	0
 2835 0127 03       		.uleb128 0x3
 2836 0128 0E       		.uleb128 0xe
 2837 0129 3A       		.uleb128 0x3a
 2838 012a 0B       		.uleb128 0xb
 2839 012b 3B       		.uleb128 0x3b
 2840 012c 05       		.uleb128 0x5
 2841 012d 49       		.uleb128 0x49
 2842 012e 13       		.uleb128 0x13
 2843 012f 3F       		.uleb128 0x3f
 2844 0130 0C       		.uleb128 0xc
 2845 0131 3C       		.uleb128 0x3c
 2846 0132 0C       		.uleb128 0xc
 2847 0133 00       		.byte	0
 2848 0134 00       		.byte	0
 2849 0135 16       		.uleb128 0x16
 2850 0136 35       		.uleb128 0x35
 2851 0137 00       		.byte	0
 2852 0138 49       		.uleb128 0x49
 2853 0139 13       		.uleb128 0x13
 2854 013a 00       		.byte	0
 2855 013b 00       		.byte	0
ARM GAS  C:\Users\makij\AppData\Local\Temp\cclyfLhl.s 			page 60


 2856 013c 17       		.uleb128 0x17
 2857 013d 34       		.uleb128 0x34
 2858 013e 00       		.byte	0
 2859 013f 03       		.uleb128 0x3
 2860 0140 0E       		.uleb128 0xe
 2861 0141 3A       		.uleb128 0x3a
 2862 0142 0B       		.uleb128 0xb
 2863 0143 3B       		.uleb128 0x3b
 2864 0144 0B       		.uleb128 0xb
 2865 0145 49       		.uleb128 0x49
 2866 0146 13       		.uleb128 0x13
 2867 0147 3F       		.uleb128 0x3f
 2868 0148 0C       		.uleb128 0xc
 2869 0149 02       		.uleb128 0x2
 2870 014a 0A       		.uleb128 0xa
 2871 014b 00       		.byte	0
 2872 014c 00       		.byte	0
 2873 014d 18       		.uleb128 0x18
 2874 014e 34       		.uleb128 0x34
 2875 014f 00       		.byte	0
 2876 0150 03       		.uleb128 0x3
 2877 0151 08       		.uleb128 0x8
 2878 0152 3A       		.uleb128 0x3a
 2879 0153 0B       		.uleb128 0xb
 2880 0154 3B       		.uleb128 0x3b
 2881 0155 0B       		.uleb128 0xb
 2882 0156 49       		.uleb128 0x49
 2883 0157 13       		.uleb128 0x13
 2884 0158 3F       		.uleb128 0x3f
 2885 0159 0C       		.uleb128 0xc
 2886 015a 02       		.uleb128 0x2
 2887 015b 0A       		.uleb128 0xa
 2888 015c 00       		.byte	0
 2889 015d 00       		.byte	0
 2890 015e 19       		.uleb128 0x19
 2891 015f 21       		.uleb128 0x21
 2892 0160 00       		.byte	0
 2893 0161 49       		.uleb128 0x49
 2894 0162 13       		.uleb128 0x13
 2895 0163 2F       		.uleb128 0x2f
 2896 0164 05       		.uleb128 0x5
 2897 0165 00       		.byte	0
 2898 0166 00       		.byte	0
 2899 0167 00       		.byte	0
 2900              		.section	.debug_loc,"",%progbits
 2901              	.Ldebug_loc0:
 2902              	.LLST0:
 2903 0000 00000000 		.4byte	.LFB56
 2904 0004 02000000 		.4byte	.LCFI0
 2905 0008 0200     		.2byte	0x2
 2906 000a 7D       		.byte	0x7d
 2907 000b 00       		.sleb128 0
 2908 000c 02000000 		.4byte	.LCFI0
 2909 0010 04000000 		.4byte	.LCFI1
 2910 0014 0200     		.2byte	0x2
 2911 0016 7D       		.byte	0x7d
 2912 0017 08       		.sleb128 8
ARM GAS  C:\Users\makij\AppData\Local\Temp\cclyfLhl.s 			page 61


 2913 0018 04000000 		.4byte	.LCFI1
 2914 001c 06000000 		.4byte	.LCFI2
 2915 0020 0200     		.2byte	0x2
 2916 0022 7D       		.byte	0x7d
 2917 0023 18       		.sleb128 24
 2918 0024 06000000 		.4byte	.LCFI2
 2919 0028 30000000 		.4byte	.LFE56
 2920 002c 0200     		.2byte	0x2
 2921 002e 77       		.byte	0x77
 2922 002f 18       		.sleb128 24
 2923 0030 00000000 		.4byte	0
 2924 0034 00000000 		.4byte	0
 2925              	.LLST1:
 2926 0038 00000000 		.4byte	.LFB57
 2927 003c 02000000 		.4byte	.LCFI3
 2928 0040 0200     		.2byte	0x2
 2929 0042 7D       		.byte	0x7d
 2930 0043 00       		.sleb128 0
 2931 0044 02000000 		.4byte	.LCFI3
 2932 0048 04000000 		.4byte	.LCFI4
 2933 004c 0200     		.2byte	0x2
 2934 004e 7D       		.byte	0x7d
 2935 004f 08       		.sleb128 8
 2936 0050 04000000 		.4byte	.LCFI4
 2937 0054 20000000 		.4byte	.LFE57
 2938 0058 0200     		.2byte	0x2
 2939 005a 77       		.byte	0x77
 2940 005b 08       		.sleb128 8
 2941 005c 00000000 		.4byte	0
 2942 0060 00000000 		.4byte	0
 2943              	.LLST2:
 2944 0064 00000000 		.4byte	.LFB58
 2945 0068 02000000 		.4byte	.LCFI5
 2946 006c 0200     		.2byte	0x2
 2947 006e 7D       		.byte	0x7d
 2948 006f 00       		.sleb128 0
 2949 0070 02000000 		.4byte	.LCFI5
 2950 0074 04000000 		.4byte	.LCFI6
 2951 0078 0200     		.2byte	0x2
 2952 007a 7D       		.byte	0x7d
 2953 007b 08       		.sleb128 8
 2954 007c 04000000 		.4byte	.LCFI6
 2955 0080 20000000 		.4byte	.LFE58
 2956 0084 0200     		.2byte	0x2
 2957 0086 77       		.byte	0x77
 2958 0087 08       		.sleb128 8
 2959 0088 00000000 		.4byte	0
 2960 008c 00000000 		.4byte	0
 2961              	.LLST3:
 2962 0090 00000000 		.4byte	.LFB59
 2963 0094 02000000 		.4byte	.LCFI7
 2964 0098 0200     		.2byte	0x2
 2965 009a 7D       		.byte	0x7d
 2966 009b 00       		.sleb128 0
 2967 009c 02000000 		.4byte	.LCFI7
 2968 00a0 04000000 		.4byte	.LCFI8
 2969 00a4 0200     		.2byte	0x2
ARM GAS  C:\Users\makij\AppData\Local\Temp\cclyfLhl.s 			page 62


 2970 00a6 7D       		.byte	0x7d
 2971 00a7 08       		.sleb128 8
 2972 00a8 04000000 		.4byte	.LCFI8
 2973 00ac 1C000000 		.4byte	.LFE59
 2974 00b0 0200     		.2byte	0x2
 2975 00b2 77       		.byte	0x77
 2976 00b3 08       		.sleb128 8
 2977 00b4 00000000 		.4byte	0
 2978 00b8 00000000 		.4byte	0
 2979              	.LLST4:
 2980 00bc 00000000 		.4byte	.LFB60
 2981 00c0 02000000 		.4byte	.LCFI9
 2982 00c4 0200     		.2byte	0x2
 2983 00c6 7D       		.byte	0x7d
 2984 00c7 00       		.sleb128 0
 2985 00c8 02000000 		.4byte	.LCFI9
 2986 00cc 04000000 		.4byte	.LCFI10
 2987 00d0 0200     		.2byte	0x2
 2988 00d2 7D       		.byte	0x7d
 2989 00d3 08       		.sleb128 8
 2990 00d4 04000000 		.4byte	.LCFI10
 2991 00d8 1C000000 		.4byte	.LFE60
 2992 00dc 0200     		.2byte	0x2
 2993 00de 77       		.byte	0x77
 2994 00df 08       		.sleb128 8
 2995 00e0 00000000 		.4byte	0
 2996 00e4 00000000 		.4byte	0
 2997              	.LLST5:
 2998 00e8 00000000 		.4byte	.LFB61
 2999 00ec 02000000 		.4byte	.LCFI11
 3000 00f0 0200     		.2byte	0x2
 3001 00f2 7D       		.byte	0x7d
 3002 00f3 00       		.sleb128 0
 3003 00f4 02000000 		.4byte	.LCFI11
 3004 00f8 04000000 		.4byte	.LCFI12
 3005 00fc 0200     		.2byte	0x2
 3006 00fe 7D       		.byte	0x7d
 3007 00ff 08       		.sleb128 8
 3008 0100 04000000 		.4byte	.LCFI12
 3009 0104 DE000000 		.4byte	.LFE61
 3010 0108 0200     		.2byte	0x2
 3011 010a 77       		.byte	0x77
 3012 010b 08       		.sleb128 8
 3013 010c 00000000 		.4byte	0
 3014 0110 00000000 		.4byte	0
 3015              	.LLST6:
 3016 0114 00000000 		.4byte	.LFB62
 3017 0118 04000000 		.4byte	.LCFI13
 3018 011c 0200     		.2byte	0x2
 3019 011e 7D       		.byte	0x7d
 3020 011f 00       		.sleb128 0
 3021 0120 04000000 		.4byte	.LCFI13
 3022 0124 06000000 		.4byte	.LCFI14
 3023 0128 0200     		.2byte	0x2
 3024 012a 7D       		.byte	0x7d
 3025 012b 1C       		.sleb128 28
 3026 012c 06000000 		.4byte	.LCFI14
ARM GAS  C:\Users\makij\AppData\Local\Temp\cclyfLhl.s 			page 63


 3027 0130 08000000 		.4byte	.LCFI15
 3028 0134 0300     		.2byte	0x3
 3029 0136 7D       		.byte	0x7d
 3030 0137 C000     		.sleb128 64
 3031 0139 08000000 		.4byte	.LCFI15
 3032 013d C8000000 		.4byte	.LFE62
 3033 0141 0300     		.2byte	0x3
 3034 0143 77       		.byte	0x77
 3035 0144 C000     		.sleb128 64
 3036 0146 00000000 		.4byte	0
 3037 014a 00000000 		.4byte	0
 3038              	.LLST7:
 3039 014e 00000000 		.4byte	.LFB63
 3040 0152 02000000 		.4byte	.LCFI16
 3041 0156 0200     		.2byte	0x2
 3042 0158 7D       		.byte	0x7d
 3043 0159 00       		.sleb128 0
 3044 015a 02000000 		.4byte	.LCFI16
 3045 015e 04000000 		.4byte	.LCFI17
 3046 0162 0200     		.2byte	0x2
 3047 0164 7D       		.byte	0x7d
 3048 0165 08       		.sleb128 8
 3049 0166 04000000 		.4byte	.LCFI17
 3050 016a 06000000 		.4byte	.LCFI18
 3051 016e 0200     		.2byte	0x2
 3052 0170 7D       		.byte	0x7d
 3053 0171 18       		.sleb128 24
 3054 0172 06000000 		.4byte	.LCFI18
 3055 0176 3E000000 		.4byte	.LFE63
 3056 017a 0200     		.2byte	0x2
 3057 017c 77       		.byte	0x77
 3058 017d 18       		.sleb128 24
 3059 017e 00000000 		.4byte	0
 3060 0182 00000000 		.4byte	0
 3061              	.LLST8:
 3062 0186 00000000 		.4byte	.LFB64
 3063 018a 02000000 		.4byte	.LCFI19
 3064 018e 0200     		.2byte	0x2
 3065 0190 7D       		.byte	0x7d
 3066 0191 00       		.sleb128 0
 3067 0192 02000000 		.4byte	.LCFI19
 3068 0196 04000000 		.4byte	.LCFI20
 3069 019a 0200     		.2byte	0x2
 3070 019c 7D       		.byte	0x7d
 3071 019d 08       		.sleb128 8
 3072 019e 04000000 		.4byte	.LCFI20
 3073 01a2 06000000 		.4byte	.LCFI21
 3074 01a6 0200     		.2byte	0x2
 3075 01a8 7D       		.byte	0x7d
 3076 01a9 10       		.sleb128 16
 3077 01aa 06000000 		.4byte	.LCFI21
 3078 01ae 3C000000 		.4byte	.LFE64
 3079 01b2 0200     		.2byte	0x2
 3080 01b4 77       		.byte	0x77
 3081 01b5 10       		.sleb128 16
 3082 01b6 00000000 		.4byte	0
 3083 01ba 00000000 		.4byte	0
ARM GAS  C:\Users\makij\AppData\Local\Temp\cclyfLhl.s 			page 64


 3084              	.LLST9:
 3085 01be 00000000 		.4byte	.LFB65
 3086 01c2 02000000 		.4byte	.LCFI22
 3087 01c6 0200     		.2byte	0x2
 3088 01c8 7D       		.byte	0x7d
 3089 01c9 00       		.sleb128 0
 3090 01ca 02000000 		.4byte	.LCFI22
 3091 01ce 04000000 		.4byte	.LCFI23
 3092 01d2 0200     		.2byte	0x2
 3093 01d4 7D       		.byte	0x7d
 3094 01d5 08       		.sleb128 8
 3095 01d6 04000000 		.4byte	.LCFI23
 3096 01da 06000000 		.4byte	.LCFI24
 3097 01de 0200     		.2byte	0x2
 3098 01e0 7D       		.byte	0x7d
 3099 01e1 18       		.sleb128 24
 3100 01e2 06000000 		.4byte	.LCFI24
 3101 01e6 F8000000 		.4byte	.LFE65
 3102 01ea 0200     		.2byte	0x2
 3103 01ec 77       		.byte	0x77
 3104 01ed 18       		.sleb128 24
 3105 01ee 00000000 		.4byte	0
 3106 01f2 00000000 		.4byte	0
 3107              	.LLST10:
 3108 01f6 00000000 		.4byte	.LFB66
 3109 01fa 02000000 		.4byte	.LCFI25
 3110 01fe 0200     		.2byte	0x2
 3111 0200 7D       		.byte	0x7d
 3112 0201 00       		.sleb128 0
 3113 0202 02000000 		.4byte	.LCFI25
 3114 0206 04000000 		.4byte	.LCFI26
 3115 020a 0200     		.2byte	0x2
 3116 020c 7D       		.byte	0x7d
 3117 020d 08       		.sleb128 8
 3118 020e 04000000 		.4byte	.LCFI26
 3119 0212 06000000 		.4byte	.LCFI27
 3120 0216 0200     		.2byte	0x2
 3121 0218 7D       		.byte	0x7d
 3122 0219 28       		.sleb128 40
 3123 021a 06000000 		.4byte	.LCFI27
 3124 021e DC080000 		.4byte	.LFE66
 3125 0222 0200     		.2byte	0x2
 3126 0224 77       		.byte	0x77
 3127 0225 28       		.sleb128 40
 3128 0226 00000000 		.4byte	0
 3129 022a 00000000 		.4byte	0
 3130              	.LLST11:
 3131 022e 00000000 		.4byte	.LFB67
 3132 0232 02000000 		.4byte	.LCFI28
 3133 0236 0200     		.2byte	0x2
 3134 0238 7D       		.byte	0x7d
 3135 0239 00       		.sleb128 0
 3136 023a 02000000 		.4byte	.LCFI28
 3137 023e 04000000 		.4byte	.LCFI29
 3138 0242 0200     		.2byte	0x2
 3139 0244 7D       		.byte	0x7d
 3140 0245 08       		.sleb128 8
ARM GAS  C:\Users\makij\AppData\Local\Temp\cclyfLhl.s 			page 65


 3141 0246 04000000 		.4byte	.LCFI29
 3142 024a C6000000 		.4byte	.LFE67
 3143 024e 0200     		.2byte	0x2
 3144 0250 77       		.byte	0x77
 3145 0251 08       		.sleb128 8
 3146 0252 00000000 		.4byte	0
 3147 0256 00000000 		.4byte	0
 3148              		.section	.debug_aranges,"",%progbits
 3149 0000 74000000 		.4byte	0x74
 3150 0004 0200     		.2byte	0x2
 3151 0006 00000000 		.4byte	.Ldebug_info0
 3152 000a 04       		.byte	0x4
 3153 000b 00       		.byte	0
 3154 000c 0000     		.2byte	0
 3155 000e 0000     		.2byte	0
 3156 0010 00000000 		.4byte	.LFB56
 3157 0014 30000000 		.4byte	.LFE56-.LFB56
 3158 0018 00000000 		.4byte	.LFB57
 3159 001c 20000000 		.4byte	.LFE57-.LFB57
 3160 0020 00000000 		.4byte	.LFB58
 3161 0024 20000000 		.4byte	.LFE58-.LFB58
 3162 0028 00000000 		.4byte	.LFB59
 3163 002c 1C000000 		.4byte	.LFE59-.LFB59
 3164 0030 00000000 		.4byte	.LFB60
 3165 0034 1C000000 		.4byte	.LFE60-.LFB60
 3166 0038 00000000 		.4byte	.LFB61
 3167 003c DE000000 		.4byte	.LFE61-.LFB61
 3168 0040 00000000 		.4byte	.LFB62
 3169 0044 C8000000 		.4byte	.LFE62-.LFB62
 3170 0048 00000000 		.4byte	.LFB63
 3171 004c 3E000000 		.4byte	.LFE63-.LFB63
 3172 0050 00000000 		.4byte	.LFB64
 3173 0054 3C000000 		.4byte	.LFE64-.LFB64
 3174 0058 00000000 		.4byte	.LFB65
 3175 005c F8000000 		.4byte	.LFE65-.LFB65
 3176 0060 00000000 		.4byte	.LFB66
 3177 0064 DC080000 		.4byte	.LFE66-.LFB66
 3178 0068 00000000 		.4byte	.LFB67
 3179 006c C6000000 		.4byte	.LFE67-.LFB67
 3180 0070 00000000 		.4byte	0
 3181 0074 00000000 		.4byte	0
 3182              		.section	.debug_ranges,"",%progbits
 3183              	.Ldebug_ranges0:
 3184 0000 00000000 		.4byte	.LFB56
 3185 0004 30000000 		.4byte	.LFE56
 3186 0008 00000000 		.4byte	.LFB57
 3187 000c 20000000 		.4byte	.LFE57
 3188 0010 00000000 		.4byte	.LFB58
 3189 0014 20000000 		.4byte	.LFE58
 3190 0018 00000000 		.4byte	.LFB59
 3191 001c 1C000000 		.4byte	.LFE59
 3192 0020 00000000 		.4byte	.LFB60
 3193 0024 1C000000 		.4byte	.LFE60
 3194 0028 00000000 		.4byte	.LFB61
 3195 002c DE000000 		.4byte	.LFE61
 3196 0030 00000000 		.4byte	.LFB62
 3197 0034 C8000000 		.4byte	.LFE62
ARM GAS  C:\Users\makij\AppData\Local\Temp\cclyfLhl.s 			page 66


 3198 0038 00000000 		.4byte	.LFB63
 3199 003c 3E000000 		.4byte	.LFE63
 3200 0040 00000000 		.4byte	.LFB64
 3201 0044 3C000000 		.4byte	.LFE64
 3202 0048 00000000 		.4byte	.LFB65
 3203 004c F8000000 		.4byte	.LFE65
 3204 0050 00000000 		.4byte	.LFB66
 3205 0054 DC080000 		.4byte	.LFE66
 3206 0058 00000000 		.4byte	.LFB67
 3207 005c C6000000 		.4byte	.LFE67
 3208 0060 00000000 		.4byte	0
 3209 0064 00000000 		.4byte	0
 3210              		.section	.debug_line,"",%progbits
 3211              	.Ldebug_line0:
 3212 0000 FE030000 		.section	.debug_str,"MS",%progbits,1
 3212      02000501 
 3212      00000201 
 3212      FB0E0D00 
 3212      01010101 
 3213              	.LASF45:
 3214 0000 7061636B 		.ascii	"packetUSB\000"
 3214      65745553 
 3214      4200
 3215              	.LASF30:
 3216 000a 74656D70 		.ascii	"temp\000"
 3216      00
 3217              	.LASF2:
 3218 000f 73686F72 		.ascii	"short int\000"
 3218      7420696E 
 3218      7400
 3219              	.LASF15:
 3220 0019 73697A65 		.ascii	"sizetype\000"
 3220      74797065 
 3220      00
 3221              	.LASF46:
 3222 0022 7061636B 		.ascii	"packetMessage\000"
 3222      65744D65 
 3222      73736167 
 3222      6500
 3223              	.LASF34:
 3224 0030 6D61696E 		.ascii	"main\000"
 3224      00
 3225              	.LASF11:
 3226 0035 75696E74 		.ascii	"uint16\000"
 3226      313600
 3227              	.LASF51:
 3228 003c 6D657373 		.ascii	"messageBufferPosition\000"
 3228      61676542 
 3228      75666665 
 3228      72506F73 
 3228      6974696F 
 3229              	.LASF10:
 3230 0052 75696E74 		.ascii	"uint8\000"
 3230      3800
 3231              	.LASF40:
 3232 0058 7061636B 		.ascii	"packetBin\000"
 3232      65744269 
ARM GAS  C:\Users\makij\AppData\Local\Temp\cclyfLhl.s 			page 67


 3232      6E00
 3233              	.LASF17:
 3234 0062 49444C45 		.ascii	"IDLE\000"
 3234      00
 3235              	.LASF50:
 3236 0067 695F7365 		.ascii	"i_send\000"
 3236      6E6400
 3237              	.LASF0:
 3238 006e 7369676E 		.ascii	"signed char\000"
 3238      65642063 
 3238      68617200 
 3239              	.LASF29:
 3240 007a 6C656E67 		.ascii	"length\000"
 3240      746800
 3241              	.LASF12:
 3242 0081 666C6F61 		.ascii	"float\000"
 3242      7400
 3243              	.LASF6:
 3244 0087 6C6F6E67 		.ascii	"long long int\000"
 3244      206C6F6E 
 3244      6720696E 
 3244      7400
 3245              	.LASF32:
 3246 0095 7072696E 		.ascii	"printStringAsBinary\000"
 3246      74537472 
 3246      696E6741 
 3246      7342696E 
 3246      61727900 
 3247              	.LASF20:
 3248 00a9 53746174 		.ascii	"State\000"
 3248      6500
 3249              	.LASF25:
 3250 00af 6973725F 		.ascii	"isr_sendData\000"
 3250      73656E64 
 3250      44617461 
 3250      00
 3251              	.LASF4:
 3252 00bc 6C6F6E67 		.ascii	"long int\000"
 3252      20696E74 
 3252      00
 3253              	.LASF19:
 3254 00c5 434F4C4C 		.ascii	"COLLISION\000"
 3254      4953494F 
 3254      4E00
 3255              	.LASF18:
 3256 00cf 42555359 		.ascii	"BUSY\000"
 3256      00
 3257              	.LASF16:
 3258 00d4 6C6F6E67 		.ascii	"long double\000"
 3258      20646F75 
 3258      626C6500 
 3259              	.LASF36:
 3260 00e0 6D657373 		.ascii	"messageReady\000"
 3260      61676552 
 3260      65616479 
 3260      00
 3261              	.LASF1:
ARM GAS  C:\Users\makij\AppData\Local\Temp\cclyfLhl.s 			page 68


 3262 00ed 756E7369 		.ascii	"unsigned char\000"
 3262      676E6564 
 3262      20636861 
 3262      7200
 3263              	.LASF28:
 3264 00fb 636F756E 		.ascii	"counter\000"
 3264      74657200 
 3265              	.LASF22:
 3266 0103 6973725F 		.ascii	"isr_RisingEdgeDetected\000"
 3266      52697369 
 3266      6E674564 
 3266      67654465 
 3266      74656374 
 3267              	.LASF42:
 3268 011a 6D657373 		.ascii	"messageSize\000"
 3268      61676553 
 3268      697A6500 
 3269              	.LASF23:
 3270 0126 6973725F 		.ascii	"isr_BusyToIdle\000"
 3270      42757379 
 3270      546F4964 
 3270      6C6500
 3271              	.LASF7:
 3272 0135 6C6F6E67 		.ascii	"long long unsigned int\000"
 3272      206C6F6E 
 3272      6720756E 
 3272      7369676E 
 3272      65642069 
 3273              	.LASF47:
 3274 014c 7061636B 		.ascii	"packetHex\000"
 3274      65744865 
 3274      7800
 3275              	.LASF8:
 3276 0156 756E7369 		.ascii	"unsigned int\000"
 3276      676E6564 
 3276      20696E74 
 3276      00
 3277              	.LASF48:
 3278 0163 7061636B 		.ascii	"packetBinary\000"
 3278      65744269 
 3278      6E617279 
 3278      00
 3279              	.LASF33:
 3280 0170 64656369 		.ascii	"decimal_hex\000"
 3280      6D616C5F 
 3280      68657800 
 3281              	.LASF26:
 3282 017c 7072696E 		.ascii	"printbinchar\000"
 3282      7462696E 
 3282      63686172 
 3282      00
 3283              	.LASF53:
 3284 0189 474E5520 		.ascii	"GNU C 4.7.3 20130312 (release) [ARM/embedded-4_7-br"
 3284      4320342E 
 3284      372E3320 
 3284      32303133 
 3284      30333132 
ARM GAS  C:\Users\makij\AppData\Local\Temp\cclyfLhl.s 			page 69


 3285 01bc 616E6368 		.ascii	"anch revision 196615]\000"
 3285      20726576 
 3285      6973696F 
 3285      6E203139 
 3285      36363135 
 3286              	.LASF3:
 3287 01d2 73686F72 		.ascii	"short unsigned int\000"
 3287      7420756E 
 3287      7369676E 
 3287      65642069 
 3287      6E7400
 3288              	.LASF31:
 3289 01e5 7072696E 		.ascii	"printCharAsBinary\000"
 3289      74436861 
 3289      72417342 
 3289      696E6172 
 3289      7900
 3290              	.LASF14:
 3291 01f7 63686172 		.ascii	"char\000"
 3291      00
 3292              	.LASF44:
 3293 01fc 7369676E 		.ascii	"signal\000"
 3293      616C00
 3294              	.LASF21:
 3295 0203 6973725F 		.ascii	"isr_FallingEdgeDetected\000"
 3295      46616C6C 
 3295      696E6745 
 3295      64676544 
 3295      65746563 
 3296              	.LASF9:
 3297 021b 696E7433 		.ascii	"int32_t\000"
 3297      325F7400 
 3298              	.LASF52:
 3299 0223 63757272 		.ascii	"currentState\000"
 3299      656E7453 
 3299      74617465 
 3299      00
 3300              	.LASF37:
 3301 0230 5F426F6F 		.ascii	"_Bool\000"
 3301      6C00
 3302              	.LASF49:
 3303 0236 64617461 		.ascii	"dataReady\000"
 3303      52656164 
 3303      7900
 3304              	.LASF43:
 3305 0240 72657475 		.ascii	"returnFound\000"
 3305      726E466F 
 3305      756E6400 
 3306              	.LASF39:
 3307 024c 62756666 		.ascii	"buffer\000"
 3307      657200
 3308              	.LASF24:
 3309 0253 6973725F 		.ascii	"isr_BusyToCollision\000"
 3309      42757379 
 3309      546F436F 
 3309      6C6C6973 
 3309      696F6E00 
ARM GAS  C:\Users\makij\AppData\Local\Temp\cclyfLhl.s 			page 70


 3310              	.LASF55:
 3311 0267 443A5C4D 		.ascii	"D:\\MSOE\\2014-2015\\Winter\\CE4950_021_Network\\la"
 3311      534F455C 
 3311      32303134 
 3311      2D323031 
 3311      355C5769 
 3312 0295 625C5072 		.ascii	"b\\Project\\ce4950Project\\Networking\\Networking P"
 3312      6F6A6563 
 3312      745C6365 
 3312      34393530 
 3312      50726F6A 
 3313 02c4 726F6A65 		.ascii	"roject\\Networking Project.cydsn\000"
 3313      63745C4E 
 3313      6574776F 
 3313      726B696E 
 3313      67205072 
 3314              	.LASF5:
 3315 02e4 6C6F6E67 		.ascii	"long unsigned int\000"
 3315      20756E73 
 3315      69676E65 
 3315      6420696E 
 3315      7400
 3316              	.LASF13:
 3317 02f6 646F7562 		.ascii	"double\000"
 3317      6C6500
 3318              	.LASF35:
 3319 02fd 636F756E 		.ascii	"count\000"
 3319      7400
 3320              	.LASF54:
 3321 0303 2E5C6D61 		.ascii	".\\main.c\000"
 3321      696E2E63 
 3321      00
 3322              	.LASF41:
 3323 030c 7061636B 		.ascii	"packetSend\000"
 3323      65745365 
 3323      6E6400
 3324              	.LASF38:
 3325 0317 49544D5F 		.ascii	"ITM_RxBuffer\000"
 3325      52784275 
 3325      66666572 
 3325      00
 3326              	.LASF27:
 3327 0324 6D797374 		.ascii	"mystrrev\000"
 3327      72726576 
 3327      00
 3328              	.LASF56:
 3329 032d 696E6974 		.ascii	"init\000"
 3329      00
 3330              		.ident	"GCC: (GNU Tools for ARM Embedded Processors) 4.7.3 20130312 (release) [ARM/embedded-4_7-br
