ARM GAS  C:\Users\makij\AppData\Local\Temp\ccllLF1a.s 			page 1


   1              		.syntax unified
   2              		.cpu cortex-m3
   3              		.fpu softvfp
   4              		.eabi_attribute 20, 1
   5              		.eabi_attribute 21, 1
   6              		.eabi_attribute 23, 3
   7              		.eabi_attribute 24, 1
   8              		.eabi_attribute 25, 1
   9              		.eabi_attribute 26, 1
  10              		.eabi_attribute 30, 6
  11              		.eabi_attribute 34, 1
  12              		.eabi_attribute 18, 4
  13              		.thumb
  14              		.file	"main.c"
  15              		.text
  16              	.Ltext0:
  17              		.cfi_sections	.debug_frame
  18              		.global	currentState
  19              		.bss
  20              		.type	currentState, %object
  21              		.size	currentState, 1
  22              	currentState:
  23 0000 00       		.space	1
  24              		.comm	packetUSB,80,4
  25              		.comm	packetMessage,80,4
  26              		.comm	packetHex,160,4
  27              		.comm	packetBinary,4,4
  28              		.comm	packetSend,640,4
  29              		.comm	dec,1,1
  30              		.global	flag
  31              		.data
  32              		.type	flag, %object
  33              		.size	flag, 1
  34              	flag:
  35 0000 01       		.byte	1
  36              		.global	dataReady
  37              		.bss
  38 0001 000000   		.align	2
  39              		.type	dataReady, %object
  40              		.size	dataReady, 4
  41              	dataReady:
  42 0004 00000000 		.space	4
  43              		.global	i_send
  44              		.align	2
  45              		.type	i_send, %object
  46              		.size	i_send, 4
  47              	i_send:
  48 0008 00000000 		.space	4
  49              		.global	messageBufferPosition
  50              		.type	messageBufferPosition, %object
  51              		.size	messageBufferPosition, 1
  52              	messageBufferPosition:
  53 000c 00       		.space	1
  54 000d 000000   		.section	.text.printbinchar,"ax",%progbits
  55              		.align	2
  56              		.global	printbinchar
  57              		.thumb
ARM GAS  C:\Users\makij\AppData\Local\Temp\ccllLF1a.s 			page 2


  58              		.thumb_func
  59              		.type	printbinchar, %function
  60              	printbinchar:
  61              	.LFB56:
  62              		.file 1 ".\\main.c"
   1:.\main.c      **** /* ========================================
   2:.\main.c      ****  *
   3:.\main.c      ****  * Copyright YOUR COMPANY, THE YEAR
   4:.\main.c      ****  * All Rights Reserved
   5:.\main.c      ****  * UNPUBLISHED, LICENSED SOFTWARE.
   6:.\main.c      ****  *
   7:.\main.c      ****  * CONFIDENTIAL AND PROPRIETARY INFORMATION
   8:.\main.c      ****  * WHICH IS THE PROPERTY OF your company.
   9:.\main.c      ****  *
  10:.\main.c      ****  * ========================================
  11:.\main.c      **** */
  12:.\main.c      **** #include <project.h>
  13:.\main.c      **** 
  14:.\main.c      **** #include <stdio.h>
  15:.\main.c      **** #include <stdlib.h>
  16:.\main.c      **** #include <math.h>
  17:.\main.c      **** 
  18:.\main.c      **** #include "main.h"
  19:.\main.c      **** 
  20:.\main.c      **** // the state variable
  21:.\main.c      **** State currentState = IDLE;
  22:.\main.c      **** 
  23:.\main.c      **** //usb and sending data
  24:.\main.c      **** char packetUSB[80];
  25:.\main.c      **** char packetMessage[80];
  26:.\main.c      **** char packetHex[80*2];
  27:.\main.c      **** uint8 packetBinary[4];
  28:.\main.c      **** uint8 packetSend[80*8];
  29:.\main.c      **** uint8 dec;
  30:.\main.c      **** uint8 flag = 1;
  31:.\main.c      **** bool dataReady = false;
  32:.\main.c      **** int i_send = 0;
  33:.\main.c      **** uint8 messageBufferPosition = 0;
  34:.\main.c      **** 
  35:.\main.c      **** void printbinchar(char c)
  36:.\main.c      **** {
  63              		.loc 1 36 0
  64              		.cfi_startproc
  65              		@ args = 0, pretend = 0, frame = 16
  66              		@ frame_needed = 1, uses_anonymous_args = 0
  67 0000 80B5     		push	{r7, lr}
  68              	.LCFI0:
  69              		.cfi_def_cfa_offset 8
  70              		.cfi_offset 7, -8
  71              		.cfi_offset 14, -4
  72 0002 84B0     		sub	sp, sp, #16
  73              	.LCFI1:
  74              		.cfi_def_cfa_offset 24
  75 0004 00AF     		add	r7, sp, #0
  76              	.LCFI2:
  77              		.cfi_def_cfa_register 7
  78 0006 0346     		mov	r3, r0
ARM GAS  C:\Users\makij\AppData\Local\Temp\ccllLF1a.s 			page 3


  79 0008 FB71     		strb	r3, [r7, #7]
  37:.\main.c      **** 	int counter;
  38:.\main.c      **** 	for(counter = 7; counter >= 0; --counter)
  80              		.loc 1 38 0
  81 000a 4FF00703 		mov	r3, #7
  82 000e FB60     		str	r3, [r7, #12]
  83 0010 03E0     		b	.L2
  84              	.L3:
  85              		.loc 1 38 0 is_stmt 0 discriminator 2
  86 0012 FB68     		ldr	r3, [r7, #12]
  87 0014 03F1FF33 		add	r3, r3, #-1
  88 0018 FB60     		str	r3, [r7, #12]
  89              	.L2:
  90              		.loc 1 38 0 discriminator 1
  91 001a FB68     		ldr	r3, [r7, #12]
  92 001c 002B     		cmp	r3, #0
  93 001e F8DA     		bge	.L3
  39:.\main.c      **** 	{
  40:.\main.c      **** 		//USB_PutChar( (c & (1 << counter)) ? '1' : '0' );	
  41:.\main.c      **** 	}
  42:.\main.c      **** 	USB_PutChar('\r');
  94              		.loc 1 42 0 is_stmt 1
  95 0020 4FF00D00 		mov	r0, #13
  96 0024 FFF7FEFF 		bl	USB_PutChar
  43:.\main.c      **** 	USB_PutChar('\n');
  97              		.loc 1 43 0
  98 0028 4FF00A00 		mov	r0, #10
  99 002c FFF7FEFF 		bl	USB_PutChar
  44:.\main.c      **** }
 100              		.loc 1 44 0
 101 0030 07F11007 		add	r7, r7, #16
 102 0034 BD46     		mov	sp, r7
 103 0036 80BD     		pop	{r7, pc}
 104              		.cfi_endproc
 105              	.LFE56:
 106              		.size	printbinchar, .-printbinchar
 107              		.section	.text.isr_FallingEdgeDetected,"ax",%progbits
 108              		.align	2
 109              		.global	isr_FallingEdgeDetected
 110              		.thumb
 111              		.thumb_func
 112              		.type	isr_FallingEdgeDetected, %function
 113              	isr_FallingEdgeDetected:
 114              	.LFB57:
  45:.\main.c      **** 
  46:.\main.c      **** CY_ISR(isr_FallingEdgeDetected)
  47:.\main.c      **** {	
 115              		.loc 1 47 0
 116              		.cfi_startproc
 117              		@ args = 0, pretend = 0, frame = 0
 118              		@ frame_needed = 1, uses_anonymous_args = 0
 119 0000 80B5     		push	{r7, lr}
 120              	.LCFI3:
 121              		.cfi_def_cfa_offset 8
 122              		.cfi_offset 7, -8
 123              		.cfi_offset 14, -4
 124 0002 00AF     		add	r7, sp, #0
ARM GAS  C:\Users\makij\AppData\Local\Temp\ccllLF1a.s 			page 4


 125              	.LCFI4:
 126              		.cfi_def_cfa_register 7
  48:.\main.c      **** 	Timer_BusyToCollision_WriteCounter(11292);
 127              		.loc 1 48 0
 128 0004 42F61C40 		movw	r0, #11292
 129 0008 FFF7FEFF 		bl	Timer_BusyToCollision_WriteCounter
  49:.\main.c      **** 	currentState = BUSY;
 130              		.loc 1 49 0
 131 000c 40F20003 		movw	r3, #:lower16:currentState
 132 0010 C0F20003 		movt	r3, #:upper16:currentState
 133 0014 4FF00102 		mov	r2, #1
 134 0018 1A70     		strb	r2, [r3, #0]
  50:.\main.c      **** 	Timer_BusyToCollision_Start();
 135              		.loc 1 50 0
 136 001a FFF7FEFF 		bl	Timer_BusyToCollision_Start
  51:.\main.c      **** }
 137              		.loc 1 51 0
 138 001e 80BD     		pop	{r7, pc}
 139              		.cfi_endproc
 140              	.LFE57:
 141              		.size	isr_FallingEdgeDetected, .-isr_FallingEdgeDetected
 142              		.section	.text.isr_RisingEdgeDetected,"ax",%progbits
 143              		.align	2
 144              		.global	isr_RisingEdgeDetected
 145              		.thumb
 146              		.thumb_func
 147              		.type	isr_RisingEdgeDetected, %function
 148              	isr_RisingEdgeDetected:
 149              	.LFB58:
  52:.\main.c      **** 
  53:.\main.c      **** CY_ISR(isr_RisingEdgeDetected)
  54:.\main.c      **** {
 150              		.loc 1 54 0
 151              		.cfi_startproc
 152              		@ args = 0, pretend = 0, frame = 0
 153              		@ frame_needed = 1, uses_anonymous_args = 0
 154 0000 80B5     		push	{r7, lr}
 155              	.LCFI5:
 156              		.cfi_def_cfa_offset 8
 157              		.cfi_offset 7, -8
 158              		.cfi_offset 14, -4
 159 0002 00AF     		add	r7, sp, #0
 160              	.LCFI6:
 161              		.cfi_def_cfa_register 7
  55:.\main.c      **** 	Timer_BusyToIdle_WriteCounter(11292);
 162              		.loc 1 55 0
 163 0004 42F61C40 		movw	r0, #11292
 164 0008 FFF7FEFF 		bl	Timer_BusyToIdle_WriteCounter
  56:.\main.c      **** 	currentState = BUSY;
 165              		.loc 1 56 0
 166 000c 40F20003 		movw	r3, #:lower16:currentState
 167 0010 C0F20003 		movt	r3, #:upper16:currentState
 168 0014 4FF00102 		mov	r2, #1
 169 0018 1A70     		strb	r2, [r3, #0]
  57:.\main.c      **** 	Timer_BusyToIdle_Start();
 170              		.loc 1 57 0
 171 001a FFF7FEFF 		bl	Timer_BusyToIdle_Start
ARM GAS  C:\Users\makij\AppData\Local\Temp\ccllLF1a.s 			page 5


  58:.\main.c      **** }
 172              		.loc 1 58 0
 173 001e 80BD     		pop	{r7, pc}
 174              		.cfi_endproc
 175              	.LFE58:
 176              		.size	isr_RisingEdgeDetected, .-isr_RisingEdgeDetected
 177              		.section	.text.isr_BusyToIdle,"ax",%progbits
 178              		.align	2
 179              		.global	isr_BusyToIdle
 180              		.thumb
 181              		.thumb_func
 182              		.type	isr_BusyToIdle, %function
 183              	isr_BusyToIdle:
 184              	.LFB59:
  59:.\main.c      **** 
  60:.\main.c      **** // Fires when the line has been high too long, Back to Idle
  61:.\main.c      **** CY_ISR(isr_BusyToIdle)
  62:.\main.c      **** {
 185              		.loc 1 62 0
 186              		.cfi_startproc
 187              		@ args = 0, pretend = 0, frame = 0
 188              		@ frame_needed = 1, uses_anonymous_args = 0
 189 0000 80B5     		push	{r7, lr}
 190              	.LCFI7:
 191              		.cfi_def_cfa_offset 8
 192              		.cfi_offset 7, -8
 193              		.cfi_offset 14, -4
 194 0002 00AF     		add	r7, sp, #0
 195              	.LCFI8:
 196              		.cfi_def_cfa_register 7
  63:.\main.c      **** 	Timer_BusyToIdle_WriteCounter(11292);
 197              		.loc 1 63 0
 198 0004 42F61C40 		movw	r0, #11292
 199 0008 FFF7FEFF 		bl	Timer_BusyToIdle_WriteCounter
  64:.\main.c      **** 	currentState = IDLE;
 200              		.loc 1 64 0
 201 000c 40F20003 		movw	r3, #:lower16:currentState
 202 0010 C0F20003 		movt	r3, #:upper16:currentState
 203 0014 4FF00002 		mov	r2, #0
 204 0018 1A70     		strb	r2, [r3, #0]
  65:.\main.c      **** }
 205              		.loc 1 65 0
 206 001a 80BD     		pop	{r7, pc}
 207              		.cfi_endproc
 208              	.LFE59:
 209              		.size	isr_BusyToIdle, .-isr_BusyToIdle
 210              		.section	.text.isr_BusyToCollision,"ax",%progbits
 211              		.align	2
 212              		.global	isr_BusyToCollision
 213              		.thumb
 214              		.thumb_func
 215              		.type	isr_BusyToCollision, %function
 216              	isr_BusyToCollision:
 217              	.LFB60:
  66:.\main.c      **** 
  67:.\main.c      **** // Fires when the line has been low too long, Go to Collision
  68:.\main.c      **** CY_ISR(isr_BusyToCollision)
ARM GAS  C:\Users\makij\AppData\Local\Temp\ccllLF1a.s 			page 6


  69:.\main.c      **** {
 218              		.loc 1 69 0
 219              		.cfi_startproc
 220              		@ args = 0, pretend = 0, frame = 0
 221              		@ frame_needed = 1, uses_anonymous_args = 0
 222 0000 80B5     		push	{r7, lr}
 223              	.LCFI9:
 224              		.cfi_def_cfa_offset 8
 225              		.cfi_offset 7, -8
 226              		.cfi_offset 14, -4
 227 0002 00AF     		add	r7, sp, #0
 228              	.LCFI10:
 229              		.cfi_def_cfa_register 7
  70:.\main.c      **** 	Timer_BusyToCollision_WriteCounter(11292);
 230              		.loc 1 70 0
 231 0004 42F61C40 		movw	r0, #11292
 232 0008 FFF7FEFF 		bl	Timer_BusyToCollision_WriteCounter
  71:.\main.c      **** 	currentState = COLLISION;
 233              		.loc 1 71 0
 234 000c 40F20003 		movw	r3, #:lower16:currentState
 235 0010 C0F20003 		movt	r3, #:upper16:currentState
 236 0014 4FF00202 		mov	r2, #2
 237 0018 1A70     		strb	r2, [r3, #0]
  72:.\main.c      **** }
 238              		.loc 1 72 0
 239 001a 80BD     		pop	{r7, pc}
 240              		.cfi_endproc
 241              	.LFE60:
 242              		.size	isr_BusyToCollision, .-isr_BusyToCollision
 243              		.section	.text.isr_sendingData,"ax",%progbits
 244              		.align	2
 245              		.global	isr_sendingData
 246              		.thumb
 247              		.thumb_func
 248              		.type	isr_sendingData, %function
 249              	isr_sendingData:
 250              	.LFB61:
  73:.\main.c      **** 
  74:.\main.c      **** CY_ISR(isr_sendingData)
  75:.\main.c      **** {
 251              		.loc 1 75 0
 252              		.cfi_startproc
 253              		@ args = 0, pretend = 0, frame = 0
 254              		@ frame_needed = 1, uses_anonymous_args = 0
 255 0000 80B5     		push	{r7, lr}
 256              	.LCFI11:
 257              		.cfi_def_cfa_offset 8
 258              		.cfi_offset 7, -8
 259              		.cfi_offset 14, -4
 260 0002 00AF     		add	r7, sp, #0
 261              	.LCFI12:
 262              		.cfi_def_cfa_register 7
  76:.\main.c      **** 	//flag = !flag;
  77:.\main.c      **** 	//Transm_Output_Write(flag);
  78:.\main.c      **** 	Transm_Output_Write(packetSend[i_send]);
 263              		.loc 1 78 0
 264 0004 40F20003 		movw	r3, #:lower16:i_send
ARM GAS  C:\Users\makij\AppData\Local\Temp\ccllLF1a.s 			page 7


 265 0008 C0F20003 		movt	r3, #:upper16:i_send
 266 000c 1A68     		ldr	r2, [r3, #0]
 267 000e 40F20003 		movw	r3, #:lower16:packetSend
 268 0012 C0F20003 		movt	r3, #:upper16:packetSend
 269 0016 9B5C     		ldrb	r3, [r3, r2]	@ zero_extendqisi2
 270 0018 1846     		mov	r0, r3
 271 001a FFF7FEFF 		bl	Transm_Output_Write
  79:.\main.c      **** 	//printCharAsBinary(packetSend[i_send]);
  80:.\main.c      **** 	i_send++;
 272              		.loc 1 80 0
 273 001e 40F20003 		movw	r3, #:lower16:i_send
 274 0022 C0F20003 		movt	r3, #:upper16:i_send
 275 0026 1B68     		ldr	r3, [r3, #0]
 276 0028 03F10102 		add	r2, r3, #1
 277 002c 40F20003 		movw	r3, #:lower16:i_send
 278 0030 C0F20003 		movt	r3, #:upper16:i_send
 279 0034 1A60     		str	r2, [r3, #0]
  81:.\main.c      **** }
 280              		.loc 1 81 0
 281 0036 80BD     		pop	{r7, pc}
 282              		.cfi_endproc
 283              	.LFE61:
 284              		.size	isr_sendingData, .-isr_sendingData
 285              		.section	.text.mystrrev,"ax",%progbits
 286              		.align	2
 287              		.global	mystrrev
 288              		.thumb
 289              		.thumb_func
 290              		.type	mystrrev, %function
 291              	mystrrev:
 292              	.LFB62:
  82:.\main.c      **** 
  83:.\main.c      **** void mystrrev(char hex[])
  84:.\main.c      **** {
 293              		.loc 1 84 0
 294              		.cfi_startproc
 295              		@ args = 0, pretend = 0, frame = 32
 296              		@ frame_needed = 1, uses_anonymous_args = 0
 297 0000 2DE9F043 		push	{r4, r5, r6, r7, r8, r9, lr}
 298              	.LCFI13:
 299              		.cfi_def_cfa_offset 28
 300              		.cfi_offset 4, -28
 301              		.cfi_offset 5, -24
 302              		.cfi_offset 6, -20
 303              		.cfi_offset 7, -16
 304              		.cfi_offset 8, -12
 305              		.cfi_offset 9, -8
 306              		.cfi_offset 14, -4
 307 0004 89B0     		sub	sp, sp, #36
 308              	.LCFI14:
 309              		.cfi_def_cfa_offset 64
 310 0006 00AF     		add	r7, sp, #0
 311              	.LCFI15:
 312              		.cfi_def_cfa_register 7
 313 0008 7860     		str	r0, [r7, #4]
  85:.\main.c      **** 	int length;
  86:.\main.c      **** 	for(length = 0; hex[length] != '\0'; ++length);
ARM GAS  C:\Users\makij\AppData\Local\Temp\ccllLF1a.s 			page 8


 314              		.loc 1 86 0
 315 000a 4FF00003 		mov	r3, #0
 316 000e FB61     		str	r3, [r7, #28]
 317 0010 03E0     		b	.L10
 318              	.L11:
 319              		.loc 1 86 0 is_stmt 0 discriminator 2
 320 0012 FB69     		ldr	r3, [r7, #28]
 321 0014 03F10103 		add	r3, r3, #1
 322 0018 FB61     		str	r3, [r7, #28]
 323              	.L10:
 324              		.loc 1 86 0 discriminator 1
 325 001a FB69     		ldr	r3, [r7, #28]
 326 001c 7A68     		ldr	r2, [r7, #4]
 327 001e D318     		adds	r3, r2, r3
 328 0020 1B78     		ldrb	r3, [r3, #0]	@ zero_extendqisi2
 329 0022 002B     		cmp	r3, #0
 330 0024 F5D1     		bne	.L11
  87:.\main.c      **** 	
  88:.\main.c      **** 	char temp[length];
 331              		.loc 1 88 0 is_stmt 1
 332 0026 F969     		ldr	r1, [r7, #28]
 333 0028 6B46     		mov	r3, sp
 334 002a 1E46     		mov	r6, r3
 335 002c 01F1FF33 		add	r3, r1, #-1
 336 0030 3B61     		str	r3, [r7, #16]
 337 0032 0846     		mov	r0, r1
 338 0034 0246     		mov	r2, r0
 339 0036 4FF00003 		mov	r3, #0
 340 003a 4FEA5270 		lsr	r0, r2, #29
 341 003e 4FEAC309 		lsl	r9, r3, #3
 342 0042 40EA0909 		orr	r9, r0, r9
 343 0046 4FEAC208 		lsl	r8, r2, #3
 344 004a 0846     		mov	r0, r1
 345 004c 0246     		mov	r2, r0
 346 004e 4FF00003 		mov	r3, #0
 347 0052 4FEA5270 		lsr	r0, r2, #29
 348 0056 4FEAC305 		lsl	r5, r3, #3
 349 005a 0543     		orrs	r5, r5, r0
 350 005c 4FEAC204 		lsl	r4, r2, #3
 351 0060 0B46     		mov	r3, r1
 352 0062 03F10703 		add	r3, r3, #7
 353 0066 4FEAD303 		lsr	r3, r3, #3
 354 006a 4FEAC303 		lsl	r3, r3, #3
 355 006e ADEB030D 		sub	sp, sp, r3
 356 0072 6B46     		mov	r3, sp
 357 0074 03F10003 		add	r3, r3, #0
 358 0078 FB60     		str	r3, [r7, #12]
  89:.\main.c      **** 	strcpy(temp, hex);
 359              		.loc 1 89 0
 360 007a FB68     		ldr	r3, [r7, #12]
 361 007c 1846     		mov	r0, r3
 362 007e 7968     		ldr	r1, [r7, #4]
 363 0080 FFF7FEFF 		bl	strcpy
  90:.\main.c      **** 	int i, i2;
  91:.\main.c      **** 	i2 = length-1;
 364              		.loc 1 91 0
 365 0084 FB69     		ldr	r3, [r7, #28]
ARM GAS  C:\Users\makij\AppData\Local\Temp\ccllLF1a.s 			page 9


 366 0086 03F1FF33 		add	r3, r3, #-1
 367 008a 7B61     		str	r3, [r7, #20]
  92:.\main.c      **** 	for(i = 0; i <length; i++)
 368              		.loc 1 92 0
 369 008c 4FF00003 		mov	r3, #0
 370 0090 BB61     		str	r3, [r7, #24]
 371 0092 0FE0     		b	.L12
 372              	.L13:
  93:.\main.c      **** 	{
  94:.\main.c      **** 		hex[i] = temp[i2];	
 373              		.loc 1 94 0 discriminator 2
 374 0094 BB69     		ldr	r3, [r7, #24]
 375 0096 7A68     		ldr	r2, [r7, #4]
 376 0098 D318     		adds	r3, r2, r3
 377 009a F968     		ldr	r1, [r7, #12]
 378 009c 7A69     		ldr	r2, [r7, #20]
 379 009e 8A18     		adds	r2, r1, r2
 380 00a0 1278     		ldrb	r2, [r2, #0]	@ zero_extendqisi2
 381 00a2 1A70     		strb	r2, [r3, #0]
  95:.\main.c      **** 		i2--;
 382              		.loc 1 95 0 discriminator 2
 383 00a4 7B69     		ldr	r3, [r7, #20]
 384 00a6 03F1FF33 		add	r3, r3, #-1
 385 00aa 7B61     		str	r3, [r7, #20]
  92:.\main.c      **** 	for(i = 0; i <length; i++)
 386              		.loc 1 92 0 discriminator 2
 387 00ac BB69     		ldr	r3, [r7, #24]
 388 00ae 03F10103 		add	r3, r3, #1
 389 00b2 BB61     		str	r3, [r7, #24]
 390              	.L12:
  92:.\main.c      **** 	for(i = 0; i <length; i++)
 391              		.loc 1 92 0 is_stmt 0 discriminator 1
 392 00b4 BA69     		ldr	r2, [r7, #24]
 393 00b6 FB69     		ldr	r3, [r7, #28]
 394 00b8 9A42     		cmp	r2, r3
 395 00ba EBDB     		blt	.L13
 396 00bc B546     		mov	sp, r6
  96:.\main.c      **** 	}
  97:.\main.c      **** }
 397              		.loc 1 97 0 is_stmt 1
 398 00be 07F12407 		add	r7, r7, #36
 399 00c2 BD46     		mov	sp, r7
 400 00c4 BDE8F083 		pop	{r4, r5, r6, r7, r8, r9, pc}
 401              		.cfi_endproc
 402              	.LFE62:
 403              		.size	mystrrev, .-mystrrev
 404              		.section	.text.printCharAsBinary,"ax",%progbits
 405              		.align	2
 406              		.global	printCharAsBinary
 407              		.thumb
 408              		.thumb_func
 409              		.type	printCharAsBinary, %function
 410              	printCharAsBinary:
 411              	.LFB63:
  98:.\main.c      **** void printCharAsBinary(char c) {
 412              		.loc 1 98 0
 413              		.cfi_startproc
ARM GAS  C:\Users\makij\AppData\Local\Temp\ccllLF1a.s 			page 10


 414              		@ args = 0, pretend = 0, frame = 16
 415              		@ frame_needed = 1, uses_anonymous_args = 0
 416 0000 80B5     		push	{r7, lr}
 417              	.LCFI16:
 418              		.cfi_def_cfa_offset 8
 419              		.cfi_offset 7, -8
 420              		.cfi_offset 14, -4
 421 0002 84B0     		sub	sp, sp, #16
 422              	.LCFI17:
 423              		.cfi_def_cfa_offset 24
 424 0004 00AF     		add	r7, sp, #0
 425              	.LCFI18:
 426              		.cfi_def_cfa_register 7
 427 0006 0346     		mov	r3, r0
 428 0008 FB71     		strb	r3, [r7, #7]
  99:.\main.c      **** 	int i;
 100:.\main.c      **** 	for(i = 0; i < 8; i++){
 429              		.loc 1 100 0
 430 000a 4FF00003 		mov	r3, #0
 431 000e FB60     		str	r3, [r7, #12]
 432 0010 0EE0     		b	.L15
 433              	.L16:
 101:.\main.c      **** 		USB_PutChar((c >> i) & 0x1);
 434              		.loc 1 101 0 discriminator 2
 435 0012 FA79     		ldrb	r2, [r7, #7]	@ zero_extendqisi2
 436 0014 FB68     		ldr	r3, [r7, #12]
 437 0016 42FA03F3 		asr	r3, r2, r3
 438 001a DBB2     		uxtb	r3, r3
 439 001c 03F00103 		and	r3, r3, #1
 440 0020 DBB2     		uxtb	r3, r3
 441 0022 1846     		mov	r0, r3
 442 0024 FFF7FEFF 		bl	USB_PutChar
 100:.\main.c      **** 	for(i = 0; i < 8; i++){
 443              		.loc 1 100 0 discriminator 2
 444 0028 FB68     		ldr	r3, [r7, #12]
 445 002a 03F10103 		add	r3, r3, #1
 446 002e FB60     		str	r3, [r7, #12]
 447              	.L15:
 100:.\main.c      **** 	for(i = 0; i < 8; i++){
 448              		.loc 1 100 0 is_stmt 0 discriminator 1
 449 0030 FB68     		ldr	r3, [r7, #12]
 450 0032 072B     		cmp	r3, #7
 451 0034 EDDD     		ble	.L16
 102:.\main.c      **** 	}
 103:.\main.c      **** }
 452              		.loc 1 103 0 is_stmt 1
 453 0036 07F11007 		add	r7, r7, #16
 454 003a BD46     		mov	sp, r7
 455 003c 80BD     		pop	{r7, pc}
 456              		.cfi_endproc
 457              	.LFE63:
 458              		.size	printCharAsBinary, .-printCharAsBinary
 459 003e 00BF     		.section	.text.printStringAsBinary,"ax",%progbits
 460              		.align	2
 461              		.global	printStringAsBinary
 462              		.thumb
 463              		.thumb_func
ARM GAS  C:\Users\makij\AppData\Local\Temp\ccllLF1a.s 			page 11


 464              		.type	printStringAsBinary, %function
 465              	printStringAsBinary:
 466              	.LFB64:
 104:.\main.c      ****  
 105:.\main.c      **** void printStringAsBinary(char* s){
 467              		.loc 1 105 0
 468              		.cfi_startproc
 469              		@ args = 0, pretend = 0, frame = 8
 470              		@ frame_needed = 1, uses_anonymous_args = 0
 471 0000 80B5     		push	{r7, lr}
 472              	.LCFI19:
 473              		.cfi_def_cfa_offset 8
 474              		.cfi_offset 7, -8
 475              		.cfi_offset 14, -4
 476 0002 82B0     		sub	sp, sp, #8
 477              	.LCFI20:
 478              		.cfi_def_cfa_offset 16
 479 0004 00AF     		add	r7, sp, #0
 480              	.LCFI21:
 481              		.cfi_def_cfa_register 7
 482 0006 7860     		str	r0, [r7, #4]
 106:.\main.c      **** 	for(; *s; s++){
 483              		.loc 1 106 0
 484 0008 0CE0     		b	.L18
 485              	.L19:
 107:.\main.c      **** 		printCharAsBinary(*s);
 486              		.loc 1 107 0 discriminator 2
 487 000a 7B68     		ldr	r3, [r7, #4]
 488 000c 1B78     		ldrb	r3, [r3, #0]	@ zero_extendqisi2
 489 000e 1846     		mov	r0, r3
 490 0010 FFF7FEFF 		bl	printCharAsBinary
 108:.\main.c      **** 		USB_PutChar(' ');
 491              		.loc 1 108 0 discriminator 2
 492 0014 4FF02000 		mov	r0, #32
 493 0018 FFF7FEFF 		bl	USB_PutChar
 106:.\main.c      **** 	for(; *s; s++){
 494              		.loc 1 106 0 discriminator 2
 495 001c 7B68     		ldr	r3, [r7, #4]
 496 001e 03F10103 		add	r3, r3, #1
 497 0022 7B60     		str	r3, [r7, #4]
 498              	.L18:
 106:.\main.c      **** 	for(; *s; s++){
 499              		.loc 1 106 0 is_stmt 0 discriminator 1
 500 0024 7B68     		ldr	r3, [r7, #4]
 501 0026 1B78     		ldrb	r3, [r3, #0]	@ zero_extendqisi2
 502 0028 002B     		cmp	r3, #0
 503 002a EED1     		bne	.L19
 109:.\main.c      **** 	}
 110:.\main.c      **** 	USB_PutChar('\n');
 504              		.loc 1 110 0 is_stmt 1
 505 002c 4FF00A00 		mov	r0, #10
 506 0030 FFF7FEFF 		bl	USB_PutChar
 111:.\main.c      **** }
 507              		.loc 1 111 0
 508 0034 07F10807 		add	r7, r7, #8
 509 0038 BD46     		mov	sp, r7
 510 003a 80BD     		pop	{r7, pc}
ARM GAS  C:\Users\makij\AppData\Local\Temp\ccllLF1a.s 			page 12


 511              		.cfi_endproc
 512              	.LFE64:
 513              		.size	printStringAsBinary, .-printStringAsBinary
 514              		.section	.text.decimal_hex,"ax",%progbits
 515              		.align	2
 516              		.global	decimal_hex
 517              		.thumb
 518              		.thumb_func
 519              		.type	decimal_hex, %function
 520              	decimal_hex:
 521              	.LFB65:
 112:.\main.c      **** void decimal_hex(int n, char hex[]) /* Function to convert decimal to hexadecimal. */
 113:.\main.c      **** {
 522              		.loc 1 113 0
 523              		.cfi_startproc
 524              		@ args = 0, pretend = 0, frame = 16
 525              		@ frame_needed = 1, uses_anonymous_args = 0
 526 0000 80B5     		push	{r7, lr}
 527              	.LCFI22:
 528              		.cfi_def_cfa_offset 8
 529              		.cfi_offset 7, -8
 530              		.cfi_offset 14, -4
 531 0002 84B0     		sub	sp, sp, #16
 532              	.LCFI23:
 533              		.cfi_def_cfa_offset 24
 534 0004 00AF     		add	r7, sp, #0
 535              	.LCFI24:
 536              		.cfi_def_cfa_register 7
 537 0006 7860     		str	r0, [r7, #4]
 538 0008 3960     		str	r1, [r7, #0]
 114:.\main.c      ****     int i=0,rem;
 539              		.loc 1 114 0
 540 000a 4FF00003 		mov	r3, #0
 541 000e FB60     		str	r3, [r7, #12]
 115:.\main.c      ****     while (n!=0)
 542              		.loc 1 115 0
 543 0010 62E0     		b	.L21
 544              	.L33:
 116:.\main.c      ****     {
 117:.\main.c      ****         rem=n%16;
 545              		.loc 1 117 0
 546 0012 7A68     		ldr	r2, [r7, #4]
 547 0014 4FF00F03 		mov	r3, #15
 548 0018 C8F20003 		movt	r3, 32768
 549 001c 1340     		ands	r3, r3, r2
 550 001e 002B     		cmp	r3, #0
 551 0020 05DA     		bge	.L22
 552 0022 03F1FF33 		add	r3, r3, #-1
 553 0026 63F00F03 		orn	r3, r3, #15
 554 002a 03F10103 		add	r3, r3, #1
 555              	.L22:
 556 002e BB60     		str	r3, [r7, #8]
 118:.\main.c      ****         switch(rem)
 557              		.loc 1 118 0
 558 0030 BB68     		ldr	r3, [r7, #8]
 559 0032 A3F10A03 		sub	r3, r3, #10
 560 0036 052B     		cmp	r3, #5
ARM GAS  C:\Users\makij\AppData\Local\Temp\ccllLF1a.s 			page 13


 561 0038 38D8     		bhi	.L23
 562 003a 01A2     		adr	r2, .L30
 563 003c 52F823F0 		ldr	pc, [r2, r3, lsl #2]
 564              		.align	2
 565              	.L30:
 566 0040 59000000 		.word	.L24+1
 567 0044 67000000 		.word	.L25+1
 568 0048 75000000 		.word	.L26+1
 569 004c 83000000 		.word	.L27+1
 570 0050 91000000 		.word	.L28+1
 571 0054 9F000000 		.word	.L29+1
 572              	.L24:
 119:.\main.c      ****         {
 120:.\main.c      ****             case 10:
 121:.\main.c      ****               hex[i]='A';
 573              		.loc 1 121 0
 574 0058 FB68     		ldr	r3, [r7, #12]
 575 005a 3A68     		ldr	r2, [r7, #0]
 576 005c D318     		adds	r3, r2, r3
 577 005e 4FF04102 		mov	r2, #65
 578 0062 1A70     		strb	r2, [r3, #0]
 122:.\main.c      ****               break;
 579              		.loc 1 122 0
 580 0064 2CE0     		b	.L31
 581              	.L25:
 123:.\main.c      ****             case 11:
 124:.\main.c      ****               hex[i]='B';
 582              		.loc 1 124 0
 583 0066 FB68     		ldr	r3, [r7, #12]
 584 0068 3A68     		ldr	r2, [r7, #0]
 585 006a D318     		adds	r3, r2, r3
 586 006c 4FF04202 		mov	r2, #66
 587 0070 1A70     		strb	r2, [r3, #0]
 125:.\main.c      ****               break;
 588              		.loc 1 125 0
 589 0072 25E0     		b	.L31
 590              	.L26:
 126:.\main.c      ****             case 12:
 127:.\main.c      ****               hex[i]='C';
 591              		.loc 1 127 0
 592 0074 FB68     		ldr	r3, [r7, #12]
 593 0076 3A68     		ldr	r2, [r7, #0]
 594 0078 D318     		adds	r3, r2, r3
 595 007a 4FF04302 		mov	r2, #67
 596 007e 1A70     		strb	r2, [r3, #0]
 128:.\main.c      ****               break;
 597              		.loc 1 128 0
 598 0080 1EE0     		b	.L31
 599              	.L27:
 129:.\main.c      ****             case 13:
 130:.\main.c      ****               hex[i]='D';
 600              		.loc 1 130 0
 601 0082 FB68     		ldr	r3, [r7, #12]
 602 0084 3A68     		ldr	r2, [r7, #0]
 603 0086 D318     		adds	r3, r2, r3
 604 0088 4FF04402 		mov	r2, #68
 605 008c 1A70     		strb	r2, [r3, #0]
ARM GAS  C:\Users\makij\AppData\Local\Temp\ccllLF1a.s 			page 14


 131:.\main.c      ****               break;
 606              		.loc 1 131 0
 607 008e 17E0     		b	.L31
 608              	.L28:
 132:.\main.c      ****             case 14:
 133:.\main.c      ****               hex[i]='E';
 609              		.loc 1 133 0
 610 0090 FB68     		ldr	r3, [r7, #12]
 611 0092 3A68     		ldr	r2, [r7, #0]
 612 0094 D318     		adds	r3, r2, r3
 613 0096 4FF04502 		mov	r2, #69
 614 009a 1A70     		strb	r2, [r3, #0]
 134:.\main.c      ****               break;
 615              		.loc 1 134 0
 616 009c 10E0     		b	.L31
 617              	.L29:
 135:.\main.c      ****             case 15:
 136:.\main.c      ****               hex[i]='F';
 618              		.loc 1 136 0
 619 009e FB68     		ldr	r3, [r7, #12]
 620 00a0 3A68     		ldr	r2, [r7, #0]
 621 00a2 D318     		adds	r3, r2, r3
 622 00a4 4FF04602 		mov	r2, #70
 623 00a8 1A70     		strb	r2, [r3, #0]
 137:.\main.c      ****               break;
 624              		.loc 1 137 0
 625 00aa 09E0     		b	.L31
 626              	.L23:
 138:.\main.c      ****             default:
 139:.\main.c      ****               hex[i]=rem+'0';
 627              		.loc 1 139 0
 628 00ac FB68     		ldr	r3, [r7, #12]
 629 00ae 3A68     		ldr	r2, [r7, #0]
 630 00b0 D318     		adds	r3, r2, r3
 631 00b2 BA68     		ldr	r2, [r7, #8]
 632 00b4 D2B2     		uxtb	r2, r2
 633 00b6 02F13002 		add	r2, r2, #48
 634 00ba D2B2     		uxtb	r2, r2
 635 00bc 1A70     		strb	r2, [r3, #0]
 140:.\main.c      ****               break;
 636              		.loc 1 140 0
 637 00be 00BF     		nop
 638              	.L31:
 141:.\main.c      ****         }
 142:.\main.c      ****         ++i;
 639              		.loc 1 142 0
 640 00c0 FB68     		ldr	r3, [r7, #12]
 641 00c2 03F10103 		add	r3, r3, #1
 642 00c6 FB60     		str	r3, [r7, #12]
 143:.\main.c      ****         n/=16;
 643              		.loc 1 143 0
 644 00c8 7B68     		ldr	r3, [r7, #4]
 645 00ca 002B     		cmp	r3, #0
 646 00cc 01DA     		bge	.L32
 647 00ce 03F10F03 		add	r3, r3, #15
 648              	.L32:
 649 00d2 4FEA2313 		asr	r3, r3, #4
ARM GAS  C:\Users\makij\AppData\Local\Temp\ccllLF1a.s 			page 15


 650 00d6 7B60     		str	r3, [r7, #4]
 651              	.L21:
 115:.\main.c      ****     while (n!=0)
 652              		.loc 1 115 0 discriminator 1
 653 00d8 7B68     		ldr	r3, [r7, #4]
 654 00da 002B     		cmp	r3, #0
 655 00dc 99D1     		bne	.L33
 144:.\main.c      ****     }
 145:.\main.c      ****     hex[i]='\0';
 656              		.loc 1 145 0
 657 00de FB68     		ldr	r3, [r7, #12]
 658 00e0 3A68     		ldr	r2, [r7, #0]
 659 00e2 D318     		adds	r3, r2, r3
 660 00e4 4FF00002 		mov	r2, #0
 661 00e8 1A70     		strb	r2, [r3, #0]
 146:.\main.c      ****     mystrrev(hex);   /* Reverse string */
 662              		.loc 1 146 0
 663 00ea 3868     		ldr	r0, [r7, #0]
 664 00ec FFF7FEFF 		bl	mystrrev
 147:.\main.c      **** }
 665              		.loc 1 147 0
 666 00f0 07F11007 		add	r7, r7, #16
 667 00f4 BD46     		mov	sp, r7
 668 00f6 80BD     		pop	{r7, pc}
 669              		.cfi_endproc
 670              	.LFE65:
 671              		.size	decimal_hex, .-decimal_hex
 672              		.section	.text.main,"ax",%progbits
 673              		.align	2
 674              		.global	main
 675              		.thumb
 676              		.thumb_func
 677              		.type	main, %function
 678              	main:
 679              	.LFB66:
 148:.\main.c      **** 
 149:.\main.c      **** 
 150:.\main.c      **** 
 151:.\main.c      **** int main()
 152:.\main.c      **** {
 680              		.loc 1 152 0
 681              		.cfi_startproc
 682              		@ args = 0, pretend = 0, frame = 32
 683              		@ frame_needed = 1, uses_anonymous_args = 0
 684 0000 80B5     		push	{r7, lr}
 685              	.LCFI25:
 686              		.cfi_def_cfa_offset 8
 687              		.cfi_offset 7, -8
 688              		.cfi_offset 14, -4
 689 0002 88B0     		sub	sp, sp, #32
 690              	.LCFI26:
 691              		.cfi_def_cfa_offset 40
 692 0004 00AF     		add	r7, sp, #0
 693              	.LCFI27:
 694              		.cfi_def_cfa_register 7
 153:.\main.c      **** 	// Initialize all components
 154:.\main.c      **** 	init();
ARM GAS  C:\Users\makij\AppData\Local\Temp\ccllLF1a.s 			page 16


 695              		.loc 1 154 0
 696 0006 FFF7FEFF 		bl	init
 155:.\main.c      **** 	uint16 count;
 156:.\main.c      **** 	bool messageReady = false;
 697              		.loc 1 156 0
 698 000a 4FF00003 		mov	r3, #0
 699 000e FB61     		str	r3, [r7, #28]
 700              	.L72:
 157:.\main.c      **** 	uint16 forLoopCounter;
 158:.\main.c      **** 	// main program loop
 159:.\main.c      **** 	for(;;)
 160:.\main.c      ****     {
 161:.\main.c      **** 		// these states are switched in the various ISR's
 162:.\main.c      **** 		switch(currentState)
 701              		.loc 1 162 0
 702 0010 40F20003 		movw	r3, #:lower16:currentState
 703 0014 C0F20003 		movt	r3, #:upper16:currentState
 704 0018 1B78     		ldrb	r3, [r3, #0]	@ zero_extendqisi2
 705 001a 012B     		cmp	r3, #1
 706 001c 00F09D83 		beq	.L37
 707 0020 022B     		cmp	r3, #2
 708 0022 00F0A783 		beq	.L38
 709 0026 002B     		cmp	r3, #0
 710 0028 40F0BF83 		bne	.L35
 711              	.L36:
 163:.\main.c      **** 		{
 164:.\main.c      **** 			case IDLE:
 165:.\main.c      **** 			/****************************************
 166:.\main.c      **** 			uncommented as the current state was not changing
 167:.\main.c      **** 			*********************************************/
 168:.\main.c      **** 			/*
 169:.\main.c      **** 			if(i_send == 0 || i_send == forLoopCounter)
 170:.\main.c      **** 			{
 171:.\main.c      **** 				Timer_sendData_Sleep();
 172:.\main.c      **** 			}
 173:.\main.c      **** 			*/
 174:.\main.c      **** 			
 175:.\main.c      **** 			/*
 176:.\main.c      **** 				Transm_Output_Write(1);
 177:.\main.c      **** 			*/
 178:.\main.c      **** 				dataReady = false;
 712              		.loc 1 178 0
 713 002c 40F20003 		movw	r3, #:lower16:dataReady
 714 0030 C0F20003 		movt	r3, #:upper16:dataReady
 715 0034 4FF00002 		mov	r2, #0
 716 0038 1A60     		str	r2, [r3, #0]
 179:.\main.c      **** 			
 180:.\main.c      **** 				memset(packetSend,  0, (80*8));
 717              		.loc 1 180 0
 718 003a 40F20000 		movw	r0, #:lower16:packetSend
 719 003e C0F20000 		movt	r0, #:upper16:packetSend
 720 0042 4FF00001 		mov	r1, #0
 721 0046 4FF42072 		mov	r2, #640
 722 004a FFF7FEFF 		bl	memset
 181:.\main.c      **** 				Pin_LEDBusy_Write(0);			
 723              		.loc 1 181 0
 724 004e 4FF00000 		mov	r0, #0
ARM GAS  C:\Users\makij\AppData\Local\Temp\ccllLF1a.s 			page 17


 725 0052 FFF7FEFF 		bl	Pin_LEDBusy_Write
 182:.\main.c      **** 				Pin_LEDIdle_Write(1);
 726              		.loc 1 182 0
 727 0056 4FF00100 		mov	r0, #1
 728 005a FFF7FEFF 		bl	Pin_LEDIdle_Write
 183:.\main.c      **** 				Pin_LEDCollision_Write(0);
 729              		.loc 1 183 0
 730 005e 4FF00000 		mov	r0, #0
 731 0062 FFF7FEFF 		bl	Pin_LEDCollision_Write
 184:.\main.c      **** 				/*****************************************************************************
 185:.\main.c      **** 				
 186:.\main.c      **** 				The USB need to watch for the return key before it creates the buffer
 187:.\main.c      **** 				Currently it fires on every key press (1/8/2015) James Maki
 188:.\main.c      **** 				
 189:.\main.c      **** 				******************************************************************************/
 190:.\main.c      **** 				
 191:.\main.c      **** 				
 192:.\main.c      **** 				//check message from usb
 193:.\main.c      **** 				if(USB_DataIsReady() != 0u)               /* Check for input data from PC */
 732              		.loc 1 193 0
 733 0066 FFF7FEFF 		bl	USB_DataIsReady
 734 006a 0346     		mov	r3, r0
 735 006c 002B     		cmp	r3, #0
 736 006e 00F04D83 		beq	.L39
 737              	.LBB2:
 194:.\main.c      **** 	       	{   
 195:.\main.c      **** 		           count = USB_GetAll(packetUSB);           /* Read received data and re-enable OUT endpo
 738              		.loc 1 195 0
 739 0072 40F20000 		movw	r0, #:lower16:packetUSB
 740 0076 C0F20000 		movt	r0, #:upper16:packetUSB
 741 007a FFF7FEFF 		bl	USB_GetAll
 742 007e 0346     		mov	r3, r0
 743 0080 FB80     		strh	r3, [r7, #6]	@ movhi
 196:.\main.c      **** 		           if(count != 0u)
 744              		.loc 1 196 0
 745 0082 FB88     		ldrh	r3, [r7, #6]
 746 0084 002B     		cmp	r3, #0
 747 0086 4FD0     		beq	.L73
 197:.\main.c      **** 		           {
 198:.\main.c      **** 						for(forLoopCounter=0; forLoopCounter<count;forLoopCounter++)
 748              		.loc 1 198 0
 749 0088 4FF00003 		mov	r3, #0
 750 008c 7B83     		strh	r3, [r7, #26]	@ movhi
 751 008e 47E0     		b	.L41
 752              	.L45:
 199:.\main.c      **** 						//USB_PutData(packetUSB, count); 
 200:.\main.c      **** 		               /* If the last sent packet is exactly maximum packet size, 
 201:.\main.c      **** 		               *  it shall be followed by a zero-length packet to assure the
 202:.\main.c      **** 		               *  end of segment is properly identified by the terminal.
 203:.\main.c      **** 		               */
 204:.\main.c      **** 		               if(packetUSB[forLoopCounter] == '\r' || count == 80)
 753              		.loc 1 204 0
 754 0090 7A8B     		ldrh	r2, [r7, #26]
 755 0092 40F20003 		movw	r3, #:lower16:packetUSB
 756 0096 C0F20003 		movt	r3, #:upper16:packetUSB
 757 009a 9B5C     		ldrb	r3, [r3, r2]	@ zero_extendqisi2
 758 009c 0D2B     		cmp	r3, #13
ARM GAS  C:\Users\makij\AppData\Local\Temp\ccllLF1a.s 			page 18


 759 009e 02D0     		beq	.L42
 760              		.loc 1 204 0 is_stmt 0 discriminator 1
 761 00a0 FB88     		ldrh	r3, [r7, #6]
 762 00a2 502B     		cmp	r3, #80
 763 00a4 17D1     		bne	.L43
 764              	.L42:
 205:.\main.c      **** 		               {
 206:.\main.c      **** 							messageReady = true;
 765              		.loc 1 206 0 is_stmt 1
 766 00a6 4FF00103 		mov	r3, #1
 767 00aa FB61     		str	r3, [r7, #28]
 207:.\main.c      **** 		                   packetMessage[messageBufferPosition] = 0;
 768              		.loc 1 207 0
 769 00ac 40F20003 		movw	r3, #:lower16:messageBufferPosition
 770 00b0 C0F20003 		movt	r3, #:upper16:messageBufferPosition
 771 00b4 1B78     		ldrb	r3, [r3, #0]	@ zero_extendqisi2
 772 00b6 1A46     		mov	r2, r3
 773 00b8 40F20003 		movw	r3, #:lower16:packetMessage
 774 00bc C0F20003 		movt	r3, #:upper16:packetMessage
 775 00c0 4FF00001 		mov	r1, #0
 776 00c4 9954     		strb	r1, [r3, r2]
 208:.\main.c      **** 							messageBufferPosition=0;
 777              		.loc 1 208 0
 778 00c6 40F20003 		movw	r3, #:lower16:messageBufferPosition
 779 00ca C0F20003 		movt	r3, #:upper16:messageBufferPosition
 780 00ce 4FF00002 		mov	r2, #0
 781 00d2 1A70     		strb	r2, [r3, #0]
 782 00d4 20E0     		b	.L44
 783              	.L43:
 209:.\main.c      **** 							}
 210:.\main.c      **** 						else{
 211:.\main.c      **** 							messageReady = false;
 784              		.loc 1 211 0
 785 00d6 4FF00003 		mov	r3, #0
 786 00da FB61     		str	r3, [r7, #28]
 212:.\main.c      **** 							messageBufferPosition++;
 787              		.loc 1 212 0
 788 00dc 40F20003 		movw	r3, #:lower16:messageBufferPosition
 789 00e0 C0F20003 		movt	r3, #:upper16:messageBufferPosition
 790 00e4 1B78     		ldrb	r3, [r3, #0]	@ zero_extendqisi2
 791 00e6 03F10103 		add	r3, r3, #1
 792 00ea DAB2     		uxtb	r2, r3
 793 00ec 40F20003 		movw	r3, #:lower16:messageBufferPosition
 794 00f0 C0F20003 		movt	r3, #:upper16:messageBufferPosition
 795 00f4 1A70     		strb	r2, [r3, #0]
 213:.\main.c      **** 							packetMessage[messageBufferPosition]=packetUSB[forLoopCounter];
 796              		.loc 1 213 0
 797 00f6 40F20003 		movw	r3, #:lower16:messageBufferPosition
 798 00fa C0F20003 		movt	r3, #:upper16:messageBufferPosition
 799 00fe 1B78     		ldrb	r3, [r3, #0]	@ zero_extendqisi2
 800 0100 1A46     		mov	r2, r3
 801 0102 798B     		ldrh	r1, [r7, #26]
 802 0104 40F20003 		movw	r3, #:lower16:packetUSB
 803 0108 C0F20003 		movt	r3, #:upper16:packetUSB
 804 010c 595C     		ldrb	r1, [r3, r1]	@ zero_extendqisi2
 805 010e 40F20003 		movw	r3, #:lower16:packetMessage
 806 0112 C0F20003 		movt	r3, #:upper16:packetMessage
ARM GAS  C:\Users\makij\AppData\Local\Temp\ccllLF1a.s 			page 19


 807 0116 9954     		strb	r1, [r3, r2]
 808              	.L44:
 198:.\main.c      **** 						for(forLoopCounter=0; forLoopCounter<count;forLoopCounter++)
 809              		.loc 1 198 0
 810 0118 7B8B     		ldrh	r3, [r7, #26]	@ movhi
 811 011a 03F10103 		add	r3, r3, #1
 812 011e 7B83     		strh	r3, [r7, #26]	@ movhi
 813              	.L41:
 198:.\main.c      **** 						for(forLoopCounter=0; forLoopCounter<count;forLoopCounter++)
 814              		.loc 1 198 0 is_stmt 0 discriminator 1
 815 0120 7A8B     		ldrh	r2, [r7, #26]
 816 0122 FB88     		ldrh	r3, [r7, #6]
 817 0124 9A42     		cmp	r2, r3
 818 0126 B3D3     		bcc	.L45
 819              	.L73:
 214:.\main.c      **** 						}
 215:.\main.c      **** 		           }
 216:.\main.c      **** 					while(USB_CDCIsReady() == 0u); /* Wait till component is ready to send more data to the PC */
 820              		.loc 1 216 0 is_stmt 1
 821 0128 00BF     		nop
 822              	.L46:
 823              		.loc 1 216 0 is_stmt 0 discriminator 1
 824 012a FFF7FEFF 		bl	USB_CDCIsReady
 825 012e 0346     		mov	r3, r0
 826 0130 002B     		cmp	r3, #0
 827 0132 FAD0     		beq	.L46
 217:.\main.c      **** 		                   USB_PutData(packetUSB, count);         /* Send zero-length packet to PC */
 828              		.loc 1 217 0 is_stmt 1
 829 0134 FB88     		ldrh	r3, [r7, #6]
 830 0136 40F20000 		movw	r0, #:lower16:packetUSB
 831 013a C0F20000 		movt	r0, #:upper16:packetUSB
 832 013e 1946     		mov	r1, r3
 833 0140 FFF7FEFF 		bl	USB_PutData
 218:.\main.c      **** 					//generate packet and send packet
 219:.\main.c      **** 					i_send = 0;
 834              		.loc 1 219 0
 835 0144 40F20003 		movw	r3, #:lower16:i_send
 836 0148 C0F20003 		movt	r3, #:upper16:i_send
 837 014c 4FF00002 		mov	r2, #0
 838 0150 1A60     		str	r2, [r3, #0]
 220:.\main.c      **** 
 221:.\main.c      **** 					
 222:.\main.c      **** 					int l, l2;
 223:.\main.c      **** 						USB_PutChar('b');
 839              		.loc 1 223 0
 840 0152 4FF06200 		mov	r0, #98
 841 0156 FFF7FEFF 		bl	USB_PutChar
 224:.\main.c      **** 						USB_PutChar(packetMessage[0]);
 842              		.loc 1 224 0
 843 015a 40F20003 		movw	r3, #:lower16:packetMessage
 844 015e C0F20003 		movt	r3, #:upper16:packetMessage
 845 0162 1B78     		ldrb	r3, [r3, #0]	@ zero_extendqisi2
 846 0164 1846     		mov	r0, r3
 847 0166 FFF7FEFF 		bl	USB_PutChar
 225:.\main.c      **** 						
 226:.\main.c      **** 					for(l = 0; packetMessage[l] != '\0'; l++)
 848              		.loc 1 226 0
ARM GAS  C:\Users\makij\AppData\Local\Temp\ccllLF1a.s 			page 20


 849 016a 4FF00003 		mov	r3, #0
 850 016e 7B61     		str	r3, [r7, #20]
 851 0170 BBE2     		b	.L47
 852              	.L68:
 227:.\main.c      **** 					{
 228:.\main.c      **** 						USB_PutChar('a');
 853              		.loc 1 228 0
 854 0172 4FF06100 		mov	r0, #97
 855 0176 FFF7FEFF 		bl	USB_PutChar
 229:.\main.c      **** 						dec = (unsigned int) packetUSB[l];
 856              		.loc 1 229 0
 857 017a 40F20003 		movw	r3, #:lower16:packetUSB
 858 017e C0F20003 		movt	r3, #:upper16:packetUSB
 859 0182 7A69     		ldr	r2, [r7, #20]
 860 0184 9B18     		adds	r3, r3, r2
 861 0186 1A78     		ldrb	r2, [r3, #0]	@ zero_extendqisi2
 862 0188 40F20003 		movw	r3, #:lower16:dec
 863 018c C0F20003 		movt	r3, #:upper16:dec
 864 0190 1A70     		strb	r2, [r3, #0]
 230:.\main.c      **** 						//USB_PutChar((char *)dec);
 231:.\main.c      **** 						
 232:.\main.c      **** 						decimal_hex(dec, packetHex);
 865              		.loc 1 232 0
 866 0192 40F20003 		movw	r3, #:lower16:dec
 867 0196 C0F20003 		movt	r3, #:upper16:dec
 868 019a 1B78     		ldrb	r3, [r3, #0]	@ zero_extendqisi2
 869 019c 1846     		mov	r0, r3
 870 019e 40F20001 		movw	r1, #:lower16:packetHex
 871 01a2 C0F20001 		movt	r1, #:upper16:packetHex
 872 01a6 FFF7FEFF 		bl	decimal_hex
 233:.\main.c      **** 						//printStringAsBinary(packetHex);
 234:.\main.c      **** 						//LCD_Position(1,0);
 235:.\main.c      **** 						
 236:.\main.c      **** 						
 237:.\main.c      **** 						for(l2 = 0; packetHex[l2] != '\0'; l2++)
 873              		.loc 1 237 0
 874 01aa 4FF00003 		mov	r3, #0
 875 01ae 3B61     		str	r3, [r7, #16]
 876 01b0 8DE2     		b	.L48
 877              	.L67:
 878              	.LBB3:
 238:.\main.c      **** 						{
 239:.\main.c      **** 							printbinchar(packetHex[l2]);
 879              		.loc 1 239 0
 880 01b2 40F20003 		movw	r3, #:lower16:packetHex
 881 01b6 C0F20003 		movt	r3, #:upper16:packetHex
 882 01ba 3A69     		ldr	r2, [r7, #16]
 883 01bc 9B18     		adds	r3, r3, r2
 884 01be 1B78     		ldrb	r3, [r3, #0]	@ zero_extendqisi2
 885 01c0 1846     		mov	r0, r3
 886 01c2 FFF7FEFF 		bl	printbinchar
 240:.\main.c      **** 							if(packetHex[l2] == '0'){
 887              		.loc 1 240 0
 888 01c6 40F20003 		movw	r3, #:lower16:packetHex
 889 01ca C0F20003 		movt	r3, #:upper16:packetHex
 890 01ce 3A69     		ldr	r2, [r7, #16]
 891 01d0 9B18     		adds	r3, r3, r2
ARM GAS  C:\Users\makij\AppData\Local\Temp\ccllLF1a.s 			page 21


 892 01d2 1B78     		ldrb	r3, [r3, #0]	@ zero_extendqisi2
 893 01d4 302B     		cmp	r3, #48
 894 01d6 1CD1     		bne	.L49
 241:.\main.c      **** 								packetBinary[0] = 0;
 895              		.loc 1 241 0
 896 01d8 40F20003 		movw	r3, #:lower16:packetBinary
 897 01dc C0F20003 		movt	r3, #:upper16:packetBinary
 898 01e0 4FF00002 		mov	r2, #0
 899 01e4 1A70     		strb	r2, [r3, #0]
 242:.\main.c      **** 								packetBinary[1] = 0;
 900              		.loc 1 242 0
 901 01e6 40F20003 		movw	r3, #:lower16:packetBinary
 902 01ea C0F20003 		movt	r3, #:upper16:packetBinary
 903 01ee 4FF00002 		mov	r2, #0
 904 01f2 5A70     		strb	r2, [r3, #1]
 243:.\main.c      **** 								packetBinary[2] = 0;
 905              		.loc 1 243 0
 906 01f4 40F20003 		movw	r3, #:lower16:packetBinary
 907 01f8 C0F20003 		movt	r3, #:upper16:packetBinary
 908 01fc 4FF00002 		mov	r2, #0
 909 0200 9A70     		strb	r2, [r3, #2]
 244:.\main.c      **** 								packetBinary[3] = 0;
 910              		.loc 1 244 0
 911 0202 40F20003 		movw	r3, #:lower16:packetBinary
 912 0206 C0F20003 		movt	r3, #:upper16:packetBinary
 913 020a 4FF00002 		mov	r2, #0
 914 020e DA70     		strb	r2, [r3, #3]
 915 0210 2FE2     		b	.L50
 916              	.L49:
 245:.\main.c      **** 							}else if(packetHex[l2] == '1'){
 917              		.loc 1 245 0
 918 0212 40F20003 		movw	r3, #:lower16:packetHex
 919 0216 C0F20003 		movt	r3, #:upper16:packetHex
 920 021a 3A69     		ldr	r2, [r7, #16]
 921 021c 9B18     		adds	r3, r3, r2
 922 021e 1B78     		ldrb	r3, [r3, #0]	@ zero_extendqisi2
 923 0220 312B     		cmp	r3, #49
 924 0222 1CD1     		bne	.L51
 246:.\main.c      **** 								packetBinary[0] = 0;
 925              		.loc 1 246 0
 926 0224 40F20003 		movw	r3, #:lower16:packetBinary
 927 0228 C0F20003 		movt	r3, #:upper16:packetBinary
 928 022c 4FF00002 		mov	r2, #0
 929 0230 1A70     		strb	r2, [r3, #0]
 247:.\main.c      **** 								packetBinary[1] = 0;
 930              		.loc 1 247 0
 931 0232 40F20003 		movw	r3, #:lower16:packetBinary
 932 0236 C0F20003 		movt	r3, #:upper16:packetBinary
 933 023a 4FF00002 		mov	r2, #0
 934 023e 5A70     		strb	r2, [r3, #1]
 248:.\main.c      **** 								packetBinary[2] = 0;
 935              		.loc 1 248 0
 936 0240 40F20003 		movw	r3, #:lower16:packetBinary
 937 0244 C0F20003 		movt	r3, #:upper16:packetBinary
 938 0248 4FF00002 		mov	r2, #0
 939 024c 9A70     		strb	r2, [r3, #2]
 249:.\main.c      **** 								packetBinary[3] = 1;
ARM GAS  C:\Users\makij\AppData\Local\Temp\ccllLF1a.s 			page 22


 940              		.loc 1 249 0
 941 024e 40F20003 		movw	r3, #:lower16:packetBinary
 942 0252 C0F20003 		movt	r3, #:upper16:packetBinary
 943 0256 4FF00102 		mov	r2, #1
 944 025a DA70     		strb	r2, [r3, #3]
 945 025c 09E2     		b	.L50
 946              	.L51:
 250:.\main.c      **** 							}else if(packetHex[l2] == '2'){
 947              		.loc 1 250 0
 948 025e 40F20003 		movw	r3, #:lower16:packetHex
 949 0262 C0F20003 		movt	r3, #:upper16:packetHex
 950 0266 3A69     		ldr	r2, [r7, #16]
 951 0268 9B18     		adds	r3, r3, r2
 952 026a 1B78     		ldrb	r3, [r3, #0]	@ zero_extendqisi2
 953 026c 322B     		cmp	r3, #50
 954 026e 1CD1     		bne	.L52
 251:.\main.c      **** 								packetBinary[0] = 0;
 955              		.loc 1 251 0
 956 0270 40F20003 		movw	r3, #:lower16:packetBinary
 957 0274 C0F20003 		movt	r3, #:upper16:packetBinary
 958 0278 4FF00002 		mov	r2, #0
 959 027c 1A70     		strb	r2, [r3, #0]
 252:.\main.c      **** 								packetBinary[1] = 0;
 960              		.loc 1 252 0
 961 027e 40F20003 		movw	r3, #:lower16:packetBinary
 962 0282 C0F20003 		movt	r3, #:upper16:packetBinary
 963 0286 4FF00002 		mov	r2, #0
 964 028a 5A70     		strb	r2, [r3, #1]
 253:.\main.c      **** 								packetBinary[2] = 1;
 965              		.loc 1 253 0
 966 028c 40F20003 		movw	r3, #:lower16:packetBinary
 967 0290 C0F20003 		movt	r3, #:upper16:packetBinary
 968 0294 4FF00102 		mov	r2, #1
 969 0298 9A70     		strb	r2, [r3, #2]
 254:.\main.c      **** 								packetBinary[3] = 0;
 970              		.loc 1 254 0
 971 029a 40F20003 		movw	r3, #:lower16:packetBinary
 972 029e C0F20003 		movt	r3, #:upper16:packetBinary
 973 02a2 4FF00002 		mov	r2, #0
 974 02a6 DA70     		strb	r2, [r3, #3]
 975 02a8 E3E1     		b	.L50
 976              	.L52:
 255:.\main.c      **** 							}else if(packetHex[l2] == '3'){
 977              		.loc 1 255 0
 978 02aa 40F20003 		movw	r3, #:lower16:packetHex
 979 02ae C0F20003 		movt	r3, #:upper16:packetHex
 980 02b2 3A69     		ldr	r2, [r7, #16]
 981 02b4 9B18     		adds	r3, r3, r2
 982 02b6 1B78     		ldrb	r3, [r3, #0]	@ zero_extendqisi2
 983 02b8 332B     		cmp	r3, #51
 984 02ba 1CD1     		bne	.L53
 256:.\main.c      **** 								packetBinary[0] = 0;
 985              		.loc 1 256 0
 986 02bc 40F20003 		movw	r3, #:lower16:packetBinary
 987 02c0 C0F20003 		movt	r3, #:upper16:packetBinary
 988 02c4 4FF00002 		mov	r2, #0
 989 02c8 1A70     		strb	r2, [r3, #0]
ARM GAS  C:\Users\makij\AppData\Local\Temp\ccllLF1a.s 			page 23


 257:.\main.c      **** 								packetBinary[1] = 0;
 990              		.loc 1 257 0
 991 02ca 40F20003 		movw	r3, #:lower16:packetBinary
 992 02ce C0F20003 		movt	r3, #:upper16:packetBinary
 993 02d2 4FF00002 		mov	r2, #0
 994 02d6 5A70     		strb	r2, [r3, #1]
 258:.\main.c      **** 								packetBinary[2] = 1;
 995              		.loc 1 258 0
 996 02d8 40F20003 		movw	r3, #:lower16:packetBinary
 997 02dc C0F20003 		movt	r3, #:upper16:packetBinary
 998 02e0 4FF00102 		mov	r2, #1
 999 02e4 9A70     		strb	r2, [r3, #2]
 259:.\main.c      **** 								packetBinary[3] = 1;
 1000              		.loc 1 259 0
 1001 02e6 40F20003 		movw	r3, #:lower16:packetBinary
 1002 02ea C0F20003 		movt	r3, #:upper16:packetBinary
 1003 02ee 4FF00102 		mov	r2, #1
 1004 02f2 DA70     		strb	r2, [r3, #3]
 1005 02f4 BDE1     		b	.L50
 1006              	.L53:
 260:.\main.c      **** 							}else if(packetHex[l2] == '4'){
 1007              		.loc 1 260 0
 1008 02f6 40F20003 		movw	r3, #:lower16:packetHex
 1009 02fa C0F20003 		movt	r3, #:upper16:packetHex
 1010 02fe 3A69     		ldr	r2, [r7, #16]
 1011 0300 9B18     		adds	r3, r3, r2
 1012 0302 1B78     		ldrb	r3, [r3, #0]	@ zero_extendqisi2
 1013 0304 342B     		cmp	r3, #52
 1014 0306 1CD1     		bne	.L54
 261:.\main.c      **** 								packetBinary[0] = 0;
 1015              		.loc 1 261 0
 1016 0308 40F20003 		movw	r3, #:lower16:packetBinary
 1017 030c C0F20003 		movt	r3, #:upper16:packetBinary
 1018 0310 4FF00002 		mov	r2, #0
 1019 0314 1A70     		strb	r2, [r3, #0]
 262:.\main.c      **** 								packetBinary[1] = 1;
 1020              		.loc 1 262 0
 1021 0316 40F20003 		movw	r3, #:lower16:packetBinary
 1022 031a C0F20003 		movt	r3, #:upper16:packetBinary
 1023 031e 4FF00102 		mov	r2, #1
 1024 0322 5A70     		strb	r2, [r3, #1]
 263:.\main.c      **** 								packetBinary[2] = 0;
 1025              		.loc 1 263 0
 1026 0324 40F20003 		movw	r3, #:lower16:packetBinary
 1027 0328 C0F20003 		movt	r3, #:upper16:packetBinary
 1028 032c 4FF00002 		mov	r2, #0
 1029 0330 9A70     		strb	r2, [r3, #2]
 264:.\main.c      **** 								packetBinary[3] = 0;
 1030              		.loc 1 264 0
 1031 0332 40F20003 		movw	r3, #:lower16:packetBinary
 1032 0336 C0F20003 		movt	r3, #:upper16:packetBinary
 1033 033a 4FF00002 		mov	r2, #0
 1034 033e DA70     		strb	r2, [r3, #3]
 1035 0340 97E1     		b	.L50
 1036              	.L54:
 265:.\main.c      **** 							}else if(packetHex[l2] == '5'){
 1037              		.loc 1 265 0
ARM GAS  C:\Users\makij\AppData\Local\Temp\ccllLF1a.s 			page 24


 1038 0342 40F20003 		movw	r3, #:lower16:packetHex
 1039 0346 C0F20003 		movt	r3, #:upper16:packetHex
 1040 034a 3A69     		ldr	r2, [r7, #16]
 1041 034c 9B18     		adds	r3, r3, r2
 1042 034e 1B78     		ldrb	r3, [r3, #0]	@ zero_extendqisi2
 1043 0350 352B     		cmp	r3, #53
 1044 0352 1CD1     		bne	.L55
 266:.\main.c      **** 								packetBinary[0] = 0;
 1045              		.loc 1 266 0
 1046 0354 40F20003 		movw	r3, #:lower16:packetBinary
 1047 0358 C0F20003 		movt	r3, #:upper16:packetBinary
 1048 035c 4FF00002 		mov	r2, #0
 1049 0360 1A70     		strb	r2, [r3, #0]
 267:.\main.c      **** 								packetBinary[1] = 1;
 1050              		.loc 1 267 0
 1051 0362 40F20003 		movw	r3, #:lower16:packetBinary
 1052 0366 C0F20003 		movt	r3, #:upper16:packetBinary
 1053 036a 4FF00102 		mov	r2, #1
 1054 036e 5A70     		strb	r2, [r3, #1]
 268:.\main.c      **** 								packetBinary[2] = 0;
 1055              		.loc 1 268 0
 1056 0370 40F20003 		movw	r3, #:lower16:packetBinary
 1057 0374 C0F20003 		movt	r3, #:upper16:packetBinary
 1058 0378 4FF00002 		mov	r2, #0
 1059 037c 9A70     		strb	r2, [r3, #2]
 269:.\main.c      **** 								packetBinary[3] = 1;
 1060              		.loc 1 269 0
 1061 037e 40F20003 		movw	r3, #:lower16:packetBinary
 1062 0382 C0F20003 		movt	r3, #:upper16:packetBinary
 1063 0386 4FF00102 		mov	r2, #1
 1064 038a DA70     		strb	r2, [r3, #3]
 1065 038c 71E1     		b	.L50
 1066              	.L55:
 270:.\main.c      **** 							}else if(packetHex[l2] == '6'){
 1067              		.loc 1 270 0
 1068 038e 40F20003 		movw	r3, #:lower16:packetHex
 1069 0392 C0F20003 		movt	r3, #:upper16:packetHex
 1070 0396 3A69     		ldr	r2, [r7, #16]
 1071 0398 9B18     		adds	r3, r3, r2
 1072 039a 1B78     		ldrb	r3, [r3, #0]	@ zero_extendqisi2
 1073 039c 362B     		cmp	r3, #54
 1074 039e 1CD1     		bne	.L56
 271:.\main.c      **** 								packetBinary[0] = 0;
 1075              		.loc 1 271 0
 1076 03a0 40F20003 		movw	r3, #:lower16:packetBinary
 1077 03a4 C0F20003 		movt	r3, #:upper16:packetBinary
 1078 03a8 4FF00002 		mov	r2, #0
 1079 03ac 1A70     		strb	r2, [r3, #0]
 272:.\main.c      **** 								packetBinary[1] = 1;
 1080              		.loc 1 272 0
 1081 03ae 40F20003 		movw	r3, #:lower16:packetBinary
 1082 03b2 C0F20003 		movt	r3, #:upper16:packetBinary
 1083 03b6 4FF00102 		mov	r2, #1
 1084 03ba 5A70     		strb	r2, [r3, #1]
 273:.\main.c      **** 								packetBinary[2] = 1;
 1085              		.loc 1 273 0
 1086 03bc 40F20003 		movw	r3, #:lower16:packetBinary
ARM GAS  C:\Users\makij\AppData\Local\Temp\ccllLF1a.s 			page 25


 1087 03c0 C0F20003 		movt	r3, #:upper16:packetBinary
 1088 03c4 4FF00102 		mov	r2, #1
 1089 03c8 9A70     		strb	r2, [r3, #2]
 274:.\main.c      **** 								packetBinary[3] = 0;
 1090              		.loc 1 274 0
 1091 03ca 40F20003 		movw	r3, #:lower16:packetBinary
 1092 03ce C0F20003 		movt	r3, #:upper16:packetBinary
 1093 03d2 4FF00002 		mov	r2, #0
 1094 03d6 DA70     		strb	r2, [r3, #3]
 1095 03d8 4BE1     		b	.L50
 1096              	.L56:
 275:.\main.c      **** 							}else if(packetHex[l2] == '7'){
 1097              		.loc 1 275 0
 1098 03da 40F20003 		movw	r3, #:lower16:packetHex
 1099 03de C0F20003 		movt	r3, #:upper16:packetHex
 1100 03e2 3A69     		ldr	r2, [r7, #16]
 1101 03e4 9B18     		adds	r3, r3, r2
 1102 03e6 1B78     		ldrb	r3, [r3, #0]	@ zero_extendqisi2
 1103 03e8 372B     		cmp	r3, #55
 1104 03ea 1CD1     		bne	.L57
 276:.\main.c      **** 								packetBinary[0] = 0;
 1105              		.loc 1 276 0
 1106 03ec 40F20003 		movw	r3, #:lower16:packetBinary
 1107 03f0 C0F20003 		movt	r3, #:upper16:packetBinary
 1108 03f4 4FF00002 		mov	r2, #0
 1109 03f8 1A70     		strb	r2, [r3, #0]
 277:.\main.c      **** 								packetBinary[1] = 1;
 1110              		.loc 1 277 0
 1111 03fa 40F20003 		movw	r3, #:lower16:packetBinary
 1112 03fe C0F20003 		movt	r3, #:upper16:packetBinary
 1113 0402 4FF00102 		mov	r2, #1
 1114 0406 5A70     		strb	r2, [r3, #1]
 278:.\main.c      **** 								packetBinary[2] = 1;
 1115              		.loc 1 278 0
 1116 0408 40F20003 		movw	r3, #:lower16:packetBinary
 1117 040c C0F20003 		movt	r3, #:upper16:packetBinary
 1118 0410 4FF00102 		mov	r2, #1
 1119 0414 9A70     		strb	r2, [r3, #2]
 279:.\main.c      **** 								packetBinary[3] = 1;
 1120              		.loc 1 279 0
 1121 0416 40F20003 		movw	r3, #:lower16:packetBinary
 1122 041a C0F20003 		movt	r3, #:upper16:packetBinary
 1123 041e 4FF00102 		mov	r2, #1
 1124 0422 DA70     		strb	r2, [r3, #3]
 1125 0424 25E1     		b	.L50
 1126              	.L57:
 280:.\main.c      **** 							}else if(packetHex[l2] == '8'){
 1127              		.loc 1 280 0
 1128 0426 40F20003 		movw	r3, #:lower16:packetHex
 1129 042a C0F20003 		movt	r3, #:upper16:packetHex
 1130 042e 3A69     		ldr	r2, [r7, #16]
 1131 0430 9B18     		adds	r3, r3, r2
 1132 0432 1B78     		ldrb	r3, [r3, #0]	@ zero_extendqisi2
 1133 0434 382B     		cmp	r3, #56
 1134 0436 1CD1     		bne	.L58
 281:.\main.c      **** 								packetBinary[0] = 1;
 1135              		.loc 1 281 0
ARM GAS  C:\Users\makij\AppData\Local\Temp\ccllLF1a.s 			page 26


 1136 0438 40F20003 		movw	r3, #:lower16:packetBinary
 1137 043c C0F20003 		movt	r3, #:upper16:packetBinary
 1138 0440 4FF00102 		mov	r2, #1
 1139 0444 1A70     		strb	r2, [r3, #0]
 282:.\main.c      **** 								packetBinary[1] = 0;
 1140              		.loc 1 282 0
 1141 0446 40F20003 		movw	r3, #:lower16:packetBinary
 1142 044a C0F20003 		movt	r3, #:upper16:packetBinary
 1143 044e 4FF00002 		mov	r2, #0
 1144 0452 5A70     		strb	r2, [r3, #1]
 283:.\main.c      **** 								packetBinary[2] = 0;
 1145              		.loc 1 283 0
 1146 0454 40F20003 		movw	r3, #:lower16:packetBinary
 1147 0458 C0F20003 		movt	r3, #:upper16:packetBinary
 1148 045c 4FF00002 		mov	r2, #0
 1149 0460 9A70     		strb	r2, [r3, #2]
 284:.\main.c      **** 								packetBinary[3] = 0;
 1150              		.loc 1 284 0
 1151 0462 40F20003 		movw	r3, #:lower16:packetBinary
 1152 0466 C0F20003 		movt	r3, #:upper16:packetBinary
 1153 046a 4FF00002 		mov	r2, #0
 1154 046e DA70     		strb	r2, [r3, #3]
 1155 0470 FFE0     		b	.L50
 1156              	.L58:
 285:.\main.c      **** 							}else if(packetHex[l2] == '9'){
 1157              		.loc 1 285 0
 1158 0472 40F20003 		movw	r3, #:lower16:packetHex
 1159 0476 C0F20003 		movt	r3, #:upper16:packetHex
 1160 047a 3A69     		ldr	r2, [r7, #16]
 1161 047c 9B18     		adds	r3, r3, r2
 1162 047e 1B78     		ldrb	r3, [r3, #0]	@ zero_extendqisi2
 1163 0480 392B     		cmp	r3, #57
 1164 0482 1CD1     		bne	.L59
 286:.\main.c      **** 								packetBinary[0] = 1;
 1165              		.loc 1 286 0
 1166 0484 40F20003 		movw	r3, #:lower16:packetBinary
 1167 0488 C0F20003 		movt	r3, #:upper16:packetBinary
 1168 048c 4FF00102 		mov	r2, #1
 1169 0490 1A70     		strb	r2, [r3, #0]
 287:.\main.c      **** 								packetBinary[1] = 0;
 1170              		.loc 1 287 0
 1171 0492 40F20003 		movw	r3, #:lower16:packetBinary
 1172 0496 C0F20003 		movt	r3, #:upper16:packetBinary
 1173 049a 4FF00002 		mov	r2, #0
 1174 049e 5A70     		strb	r2, [r3, #1]
 288:.\main.c      **** 								packetBinary[2] = 0;
 1175              		.loc 1 288 0
 1176 04a0 40F20003 		movw	r3, #:lower16:packetBinary
 1177 04a4 C0F20003 		movt	r3, #:upper16:packetBinary
 1178 04a8 4FF00002 		mov	r2, #0
 1179 04ac 9A70     		strb	r2, [r3, #2]
 289:.\main.c      **** 								packetBinary[3] = 1;
 1180              		.loc 1 289 0
 1181 04ae 40F20003 		movw	r3, #:lower16:packetBinary
 1182 04b2 C0F20003 		movt	r3, #:upper16:packetBinary
 1183 04b6 4FF00102 		mov	r2, #1
 1184 04ba DA70     		strb	r2, [r3, #3]
ARM GAS  C:\Users\makij\AppData\Local\Temp\ccllLF1a.s 			page 27


 1185 04bc D9E0     		b	.L50
 1186              	.L59:
 290:.\main.c      **** 							}else if(packetHex[l2] == 'A'){
 1187              		.loc 1 290 0
 1188 04be 40F20003 		movw	r3, #:lower16:packetHex
 1189 04c2 C0F20003 		movt	r3, #:upper16:packetHex
 1190 04c6 3A69     		ldr	r2, [r7, #16]
 1191 04c8 9B18     		adds	r3, r3, r2
 1192 04ca 1B78     		ldrb	r3, [r3, #0]	@ zero_extendqisi2
 1193 04cc 412B     		cmp	r3, #65
 1194 04ce 1CD1     		bne	.L60
 291:.\main.c      **** 								packetBinary[0] = 1;
 1195              		.loc 1 291 0
 1196 04d0 40F20003 		movw	r3, #:lower16:packetBinary
 1197 04d4 C0F20003 		movt	r3, #:upper16:packetBinary
 1198 04d8 4FF00102 		mov	r2, #1
 1199 04dc 1A70     		strb	r2, [r3, #0]
 292:.\main.c      **** 								packetBinary[1] = 0;
 1200              		.loc 1 292 0
 1201 04de 40F20003 		movw	r3, #:lower16:packetBinary
 1202 04e2 C0F20003 		movt	r3, #:upper16:packetBinary
 1203 04e6 4FF00002 		mov	r2, #0
 1204 04ea 5A70     		strb	r2, [r3, #1]
 293:.\main.c      **** 								packetBinary[2] = 1;
 1205              		.loc 1 293 0
 1206 04ec 40F20003 		movw	r3, #:lower16:packetBinary
 1207 04f0 C0F20003 		movt	r3, #:upper16:packetBinary
 1208 04f4 4FF00102 		mov	r2, #1
 1209 04f8 9A70     		strb	r2, [r3, #2]
 294:.\main.c      **** 								packetBinary[3] = 0;
 1210              		.loc 1 294 0
 1211 04fa 40F20003 		movw	r3, #:lower16:packetBinary
 1212 04fe C0F20003 		movt	r3, #:upper16:packetBinary
 1213 0502 4FF00002 		mov	r2, #0
 1214 0506 DA70     		strb	r2, [r3, #3]
 1215 0508 B3E0     		b	.L50
 1216              	.L60:
 295:.\main.c      **** 							}else if(packetHex[l2] == 'B'){
 1217              		.loc 1 295 0
 1218 050a 40F20003 		movw	r3, #:lower16:packetHex
 1219 050e C0F20003 		movt	r3, #:upper16:packetHex
 1220 0512 3A69     		ldr	r2, [r7, #16]
 1221 0514 9B18     		adds	r3, r3, r2
 1222 0516 1B78     		ldrb	r3, [r3, #0]	@ zero_extendqisi2
 1223 0518 422B     		cmp	r3, #66
 1224 051a 1CD1     		bne	.L61
 296:.\main.c      **** 								packetBinary[0] = 1;
 1225              		.loc 1 296 0
 1226 051c 40F20003 		movw	r3, #:lower16:packetBinary
 1227 0520 C0F20003 		movt	r3, #:upper16:packetBinary
 1228 0524 4FF00102 		mov	r2, #1
 1229 0528 1A70     		strb	r2, [r3, #0]
 297:.\main.c      **** 								packetBinary[1] = 0;
 1230              		.loc 1 297 0
 1231 052a 40F20003 		movw	r3, #:lower16:packetBinary
 1232 052e C0F20003 		movt	r3, #:upper16:packetBinary
 1233 0532 4FF00002 		mov	r2, #0
ARM GAS  C:\Users\makij\AppData\Local\Temp\ccllLF1a.s 			page 28


 1234 0536 5A70     		strb	r2, [r3, #1]
 298:.\main.c      **** 								packetBinary[2] = 1;
 1235              		.loc 1 298 0
 1236 0538 40F20003 		movw	r3, #:lower16:packetBinary
 1237 053c C0F20003 		movt	r3, #:upper16:packetBinary
 1238 0540 4FF00102 		mov	r2, #1
 1239 0544 9A70     		strb	r2, [r3, #2]
 299:.\main.c      **** 								packetBinary[3] = 1;
 1240              		.loc 1 299 0
 1241 0546 40F20003 		movw	r3, #:lower16:packetBinary
 1242 054a C0F20003 		movt	r3, #:upper16:packetBinary
 1243 054e 4FF00102 		mov	r2, #1
 1244 0552 DA70     		strb	r2, [r3, #3]
 1245 0554 8DE0     		b	.L50
 1246              	.L61:
 300:.\main.c      **** 							}else if(packetHex[l2] == 'C'){
 1247              		.loc 1 300 0
 1248 0556 40F20003 		movw	r3, #:lower16:packetHex
 1249 055a C0F20003 		movt	r3, #:upper16:packetHex
 1250 055e 3A69     		ldr	r2, [r7, #16]
 1251 0560 9B18     		adds	r3, r3, r2
 1252 0562 1B78     		ldrb	r3, [r3, #0]	@ zero_extendqisi2
 1253 0564 432B     		cmp	r3, #67
 1254 0566 1CD1     		bne	.L62
 301:.\main.c      **** 								packetBinary[0] = 1;
 1255              		.loc 1 301 0
 1256 0568 40F20003 		movw	r3, #:lower16:packetBinary
 1257 056c C0F20003 		movt	r3, #:upper16:packetBinary
 1258 0570 4FF00102 		mov	r2, #1
 1259 0574 1A70     		strb	r2, [r3, #0]
 302:.\main.c      **** 								packetBinary[1] = 1;
 1260              		.loc 1 302 0
 1261 0576 40F20003 		movw	r3, #:lower16:packetBinary
 1262 057a C0F20003 		movt	r3, #:upper16:packetBinary
 1263 057e 4FF00102 		mov	r2, #1
 1264 0582 5A70     		strb	r2, [r3, #1]
 303:.\main.c      **** 								packetBinary[2] = 0;
 1265              		.loc 1 303 0
 1266 0584 40F20003 		movw	r3, #:lower16:packetBinary
 1267 0588 C0F20003 		movt	r3, #:upper16:packetBinary
 1268 058c 4FF00002 		mov	r2, #0
 1269 0590 9A70     		strb	r2, [r3, #2]
 304:.\main.c      **** 								packetBinary[3] = 0;
 1270              		.loc 1 304 0
 1271 0592 40F20003 		movw	r3, #:lower16:packetBinary
 1272 0596 C0F20003 		movt	r3, #:upper16:packetBinary
 1273 059a 4FF00002 		mov	r2, #0
 1274 059e DA70     		strb	r2, [r3, #3]
 1275 05a0 67E0     		b	.L50
 1276              	.L62:
 305:.\main.c      **** 							}else if(packetHex[l2] =='D'){
 1277              		.loc 1 305 0
 1278 05a2 40F20003 		movw	r3, #:lower16:packetHex
 1279 05a6 C0F20003 		movt	r3, #:upper16:packetHex
 1280 05aa 3A69     		ldr	r2, [r7, #16]
 1281 05ac 9B18     		adds	r3, r3, r2
 1282 05ae 1B78     		ldrb	r3, [r3, #0]	@ zero_extendqisi2
ARM GAS  C:\Users\makij\AppData\Local\Temp\ccllLF1a.s 			page 29


 1283 05b0 442B     		cmp	r3, #68
 1284 05b2 1CD1     		bne	.L63
 306:.\main.c      **** 								packetBinary[0] = 1;
 1285              		.loc 1 306 0
 1286 05b4 40F20003 		movw	r3, #:lower16:packetBinary
 1287 05b8 C0F20003 		movt	r3, #:upper16:packetBinary
 1288 05bc 4FF00102 		mov	r2, #1
 1289 05c0 1A70     		strb	r2, [r3, #0]
 307:.\main.c      **** 								packetBinary[1] = 1;
 1290              		.loc 1 307 0
 1291 05c2 40F20003 		movw	r3, #:lower16:packetBinary
 1292 05c6 C0F20003 		movt	r3, #:upper16:packetBinary
 1293 05ca 4FF00102 		mov	r2, #1
 1294 05ce 5A70     		strb	r2, [r3, #1]
 308:.\main.c      **** 								packetBinary[2] = 0;
 1295              		.loc 1 308 0
 1296 05d0 40F20003 		movw	r3, #:lower16:packetBinary
 1297 05d4 C0F20003 		movt	r3, #:upper16:packetBinary
 1298 05d8 4FF00002 		mov	r2, #0
 1299 05dc 9A70     		strb	r2, [r3, #2]
 309:.\main.c      **** 								packetBinary[3] = 1;
 1300              		.loc 1 309 0
 1301 05de 40F20003 		movw	r3, #:lower16:packetBinary
 1302 05e2 C0F20003 		movt	r3, #:upper16:packetBinary
 1303 05e6 4FF00102 		mov	r2, #1
 1304 05ea DA70     		strb	r2, [r3, #3]
 1305 05ec 41E0     		b	.L50
 1306              	.L63:
 310:.\main.c      **** 							}else if(packetHex[l2] == 'E'){
 1307              		.loc 1 310 0
 1308 05ee 40F20003 		movw	r3, #:lower16:packetHex
 1309 05f2 C0F20003 		movt	r3, #:upper16:packetHex
 1310 05f6 3A69     		ldr	r2, [r7, #16]
 1311 05f8 9B18     		adds	r3, r3, r2
 1312 05fa 1B78     		ldrb	r3, [r3, #0]	@ zero_extendqisi2
 1313 05fc 452B     		cmp	r3, #69
 1314 05fe 1CD1     		bne	.L64
 311:.\main.c      **** 								packetBinary[0] = 1;
 1315              		.loc 1 311 0
 1316 0600 40F20003 		movw	r3, #:lower16:packetBinary
 1317 0604 C0F20003 		movt	r3, #:upper16:packetBinary
 1318 0608 4FF00102 		mov	r2, #1
 1319 060c 1A70     		strb	r2, [r3, #0]
 312:.\main.c      **** 								packetBinary[1] = 1;
 1320              		.loc 1 312 0
 1321 060e 40F20003 		movw	r3, #:lower16:packetBinary
 1322 0612 C0F20003 		movt	r3, #:upper16:packetBinary
 1323 0616 4FF00102 		mov	r2, #1
 1324 061a 5A70     		strb	r2, [r3, #1]
 313:.\main.c      **** 								packetBinary[2] = 1;
 1325              		.loc 1 313 0
 1326 061c 40F20003 		movw	r3, #:lower16:packetBinary
 1327 0620 C0F20003 		movt	r3, #:upper16:packetBinary
 1328 0624 4FF00102 		mov	r2, #1
 1329 0628 9A70     		strb	r2, [r3, #2]
 314:.\main.c      **** 								packetBinary[3] = 0;
 1330              		.loc 1 314 0
ARM GAS  C:\Users\makij\AppData\Local\Temp\ccllLF1a.s 			page 30


 1331 062a 40F20003 		movw	r3, #:lower16:packetBinary
 1332 062e C0F20003 		movt	r3, #:upper16:packetBinary
 1333 0632 4FF00002 		mov	r2, #0
 1334 0636 DA70     		strb	r2, [r3, #3]
 1335 0638 1BE0     		b	.L50
 1336              	.L64:
 315:.\main.c      **** 							}else {
 316:.\main.c      **** 								packetBinary[0] = 1;
 1337              		.loc 1 316 0
 1338 063a 40F20003 		movw	r3, #:lower16:packetBinary
 1339 063e C0F20003 		movt	r3, #:upper16:packetBinary
 1340 0642 4FF00102 		mov	r2, #1
 1341 0646 1A70     		strb	r2, [r3, #0]
 317:.\main.c      **** 								packetBinary[1] = 1;
 1342              		.loc 1 317 0
 1343 0648 40F20003 		movw	r3, #:lower16:packetBinary
 1344 064c C0F20003 		movt	r3, #:upper16:packetBinary
 1345 0650 4FF00102 		mov	r2, #1
 1346 0654 5A70     		strb	r2, [r3, #1]
 318:.\main.c      **** 								packetBinary[2] = 1;
 1347              		.loc 1 318 0
 1348 0656 40F20003 		movw	r3, #:lower16:packetBinary
 1349 065a C0F20003 		movt	r3, #:upper16:packetBinary
 1350 065e 4FF00102 		mov	r2, #1
 1351 0662 9A70     		strb	r2, [r3, #2]
 319:.\main.c      **** 								packetBinary[3] = 1;
 1352              		.loc 1 319 0
 1353 0664 40F20003 		movw	r3, #:lower16:packetBinary
 1354 0668 C0F20003 		movt	r3, #:upper16:packetBinary
 1355 066c 4FF00102 		mov	r2, #1
 1356 0670 DA70     		strb	r2, [r3, #3]
 1357              	.L50:
 320:.\main.c      **** 							}
 321:.\main.c      **** 						
 322:.\main.c      **** 							int l3;
 323:.\main.c      **** 							for(l3 = 0; l3 <4; l3++)
 1358              		.loc 1 323 0
 1359 0672 4FF00003 		mov	r3, #0
 1360 0676 FB60     		str	r3, [r7, #12]
 1361 0678 16E0     		b	.L65
 1362              	.L66:
 324:.\main.c      **** 							{
 325:.\main.c      **** 								packetSend[i_send + l3] = packetBinary[l3];
 1363              		.loc 1 325 0 discriminator 2
 1364 067a 40F20003 		movw	r3, #:lower16:i_send
 1365 067e C0F20003 		movt	r3, #:upper16:i_send
 1366 0682 1A68     		ldr	r2, [r3, #0]
 1367 0684 FB68     		ldr	r3, [r7, #12]
 1368 0686 D218     		adds	r2, r2, r3
 1369 0688 40F20003 		movw	r3, #:lower16:packetBinary
 1370 068c C0F20003 		movt	r3, #:upper16:packetBinary
 1371 0690 F968     		ldr	r1, [r7, #12]
 1372 0692 5B18     		adds	r3, r3, r1
 1373 0694 1978     		ldrb	r1, [r3, #0]	@ zero_extendqisi2
 1374 0696 40F20003 		movw	r3, #:lower16:packetSend
 1375 069a C0F20003 		movt	r3, #:upper16:packetSend
 1376 069e 9954     		strb	r1, [r3, r2]
ARM GAS  C:\Users\makij\AppData\Local\Temp\ccllLF1a.s 			page 31


 323:.\main.c      **** 							for(l3 = 0; l3 <4; l3++)
 1377              		.loc 1 323 0 discriminator 2
 1378 06a0 FB68     		ldr	r3, [r7, #12]
 1379 06a2 03F10103 		add	r3, r3, #1
 1380 06a6 FB60     		str	r3, [r7, #12]
 1381              	.L65:
 323:.\main.c      **** 							for(l3 = 0; l3 <4; l3++)
 1382              		.loc 1 323 0 is_stmt 0 discriminator 1
 1383 06a8 FB68     		ldr	r3, [r7, #12]
 1384 06aa 032B     		cmp	r3, #3
 1385 06ac E5DD     		ble	.L66
 326:.\main.c      **** 								
 327:.\main.c      **** 							}//generates binary values
 328:.\main.c      **** 							
 329:.\main.c      **** 							i_send++;
 1386              		.loc 1 329 0 is_stmt 1
 1387 06ae 40F20003 		movw	r3, #:lower16:i_send
 1388 06b2 C0F20003 		movt	r3, #:upper16:i_send
 1389 06b6 1B68     		ldr	r3, [r3, #0]
 1390 06b8 03F10102 		add	r2, r3, #1
 1391 06bc 40F20003 		movw	r3, #:lower16:i_send
 1392 06c0 C0F20003 		movt	r3, #:upper16:i_send
 1393 06c4 1A60     		str	r2, [r3, #0]
 1394              	.LBE3:
 237:.\main.c      **** 						for(l2 = 0; packetHex[l2] != '\0'; l2++)
 1395              		.loc 1 237 0
 1396 06c6 3B69     		ldr	r3, [r7, #16]
 1397 06c8 03F10103 		add	r3, r3, #1
 1398 06cc 3B61     		str	r3, [r7, #16]
 1399              	.L48:
 237:.\main.c      **** 						for(l2 = 0; packetHex[l2] != '\0'; l2++)
 1400              		.loc 1 237 0 is_stmt 0 discriminator 1
 1401 06ce 40F20003 		movw	r3, #:lower16:packetHex
 1402 06d2 C0F20003 		movt	r3, #:upper16:packetHex
 1403 06d6 3A69     		ldr	r2, [r7, #16]
 1404 06d8 9B18     		adds	r3, r3, r2
 1405 06da 1B78     		ldrb	r3, [r3, #0]	@ zero_extendqisi2
 1406 06dc 002B     		cmp	r3, #0
 1407 06de 7FF468AD 		bne	.L67
 226:.\main.c      **** 					for(l = 0; packetMessage[l] != '\0'; l++)
 1408              		.loc 1 226 0 is_stmt 1
 1409 06e2 7B69     		ldr	r3, [r7, #20]
 1410 06e4 03F10103 		add	r3, r3, #1
 1411 06e8 7B61     		str	r3, [r7, #20]
 1412              	.L47:
 226:.\main.c      **** 					for(l = 0; packetMessage[l] != '\0'; l++)
 1413              		.loc 1 226 0 is_stmt 0 discriminator 1
 1414 06ea 40F20003 		movw	r3, #:lower16:packetMessage
 1415 06ee C0F20003 		movt	r3, #:upper16:packetMessage
 1416 06f2 7A69     		ldr	r2, [r7, #20]
 1417 06f4 9B18     		adds	r3, r3, r2
 1418 06f6 1B78     		ldrb	r3, [r3, #0]	@ zero_extendqisi2
 1419 06f8 002B     		cmp	r3, #0
 1420 06fa 7FF43AAD 		bne	.L68
 330:.\main.c      **** 						}
 331:.\main.c      **** 					}
 332:.\main.c      **** 					dataReady = true;
ARM GAS  C:\Users\makij\AppData\Local\Temp\ccllLF1a.s 			page 32


 1421              		.loc 1 332 0 is_stmt 1
 1422 06fe 40F20003 		movw	r3, #:lower16:dataReady
 1423 0702 C0F20003 		movt	r3, #:upper16:dataReady
 1424 0706 4FF00102 		mov	r2, #1
 1425 070a 1A60     		str	r2, [r3, #0]
 1426              	.L39:
 1427              	.LBE2:
 333:.\main.c      **** 	        	}
 334:.\main.c      **** 				
 335:.\main.c      **** 				if(dataReady && messageReady){ 
 1428              		.loc 1 335 0
 1429 070c 40F20003 		movw	r3, #:lower16:dataReady
 1430 0710 C0F20003 		movt	r3, #:upper16:dataReady
 1431 0714 1B68     		ldr	r3, [r3, #0]
 1432 0716 002B     		cmp	r3, #0
 1433 0718 46D0     		beq	.L74
 1434              		.loc 1 335 0 is_stmt 0 discriminator 1
 1435 071a FB69     		ldr	r3, [r7, #28]
 1436 071c 002B     		cmp	r3, #0
 1437 071e 43D0     		beq	.L74
 1438              	.LBB4:
 336:.\main.c      **** 					i_send = 0;
 1439              		.loc 1 336 0 is_stmt 1
 1440 0720 40F20003 		movw	r3, #:lower16:i_send
 1441 0724 C0F20003 		movt	r3, #:upper16:i_send
 1442 0728 4FF00002 		mov	r2, #0
 1443 072c 1A60     		str	r2, [r3, #0]
 337:.\main.c      **** 					//Transm_Output_Write(0); /* uncomment this line to see that Output change on each key pressed
 338:.\main.c      **** 				//	USB_PutChar('\r');
 339:.\main.c      **** 				//	USB_PutChar('\n');
 340:.\main.c      **** 					int l2;
 341:.\main.c      **** 					for(l2 = 0; l2 <10; l2++){
 1444              		.loc 1 341 0
 1445 072e 4FF00003 		mov	r3, #0
 1446 0732 BB60     		str	r3, [r7, #8]
 1447 0734 0DE0     		b	.L70
 1448              	.L71:
 342:.\main.c      **** 					printbinchar(packetHex[l2]);
 1449              		.loc 1 342 0 discriminator 2
 1450 0736 40F20003 		movw	r3, #:lower16:packetHex
 1451 073a C0F20003 		movt	r3, #:upper16:packetHex
 1452 073e BA68     		ldr	r2, [r7, #8]
 1453 0740 9B18     		adds	r3, r3, r2
 1454 0742 1B78     		ldrb	r3, [r3, #0]	@ zero_extendqisi2
 1455 0744 1846     		mov	r0, r3
 1456 0746 FFF7FEFF 		bl	printbinchar
 341:.\main.c      **** 					for(l2 = 0; l2 <10; l2++){
 1457              		.loc 1 341 0 discriminator 2
 1458 074a BB68     		ldr	r3, [r7, #8]
 1459 074c 03F10103 		add	r3, r3, #1
 1460 0750 BB60     		str	r3, [r7, #8]
 1461              	.L70:
 341:.\main.c      **** 					for(l2 = 0; l2 <10; l2++){
 1462              		.loc 1 341 0 is_stmt 0 discriminator 1
 1463 0752 BB68     		ldr	r3, [r7, #8]
 1464 0754 092B     		cmp	r3, #9
 1465 0756 EEDD     		ble	.L71
ARM GAS  C:\Users\makij\AppData\Local\Temp\ccllLF1a.s 			page 33


 1466              	.LBE4:
 343:.\main.c      **** 					}
 344:.\main.c      **** 					//Timer_sendData_Enable();
 345:.\main.c      **** 					
 346:.\main.c      **** 				}
 347:.\main.c      **** 				break;
 1467              		.loc 1 347 0 is_stmt 1
 1468 0758 26E0     		b	.L74
 1469              	.L37:
 348:.\main.c      **** 			case BUSY:
 349:.\main.c      **** 				Pin_LEDBusy_Write(1);			
 1470              		.loc 1 349 0
 1471 075a 4FF00100 		mov	r0, #1
 1472 075e FFF7FEFF 		bl	Pin_LEDBusy_Write
 350:.\main.c      **** 				Pin_LEDIdle_Write(0);
 1473              		.loc 1 350 0
 1474 0762 4FF00000 		mov	r0, #0
 1475 0766 FFF7FEFF 		bl	Pin_LEDIdle_Write
 351:.\main.c      **** 				Pin_LEDCollision_Write(0);
 1476              		.loc 1 351 0
 1477 076a 4FF00000 		mov	r0, #0
 1478 076e FFF7FEFF 		bl	Pin_LEDCollision_Write
 352:.\main.c      **** 				break;
 1479              		.loc 1 352 0
 1480 0772 1AE0     		b	.L35
 1481              	.L38:
 353:.\main.c      **** 
 354:.\main.c      **** 			case COLLISION:	
 355:.\main.c      **** 				Timer_sendData_Sleep();
 1482              		.loc 1 355 0
 1483 0774 FFF7FEFF 		bl	Timer_sendData_Sleep
 356:.\main.c      **** 				Transm_Output_Write(1);
 1484              		.loc 1 356 0
 1485 0778 4FF00100 		mov	r0, #1
 1486 077c FFF7FEFF 		bl	Transm_Output_Write
 357:.\main.c      **** 				dataReady = false;
 1487              		.loc 1 357 0
 1488 0780 40F20003 		movw	r3, #:lower16:dataReady
 1489 0784 C0F20003 		movt	r3, #:upper16:dataReady
 1490 0788 4FF00002 		mov	r2, #0
 1491 078c 1A60     		str	r2, [r3, #0]
 358:.\main.c      **** 				Pin_LEDBusy_Write(0);			
 1492              		.loc 1 358 0
 1493 078e 4FF00000 		mov	r0, #0
 1494 0792 FFF7FEFF 		bl	Pin_LEDBusy_Write
 359:.\main.c      **** 				Pin_LEDIdle_Write(0);
 1495              		.loc 1 359 0
 1496 0796 4FF00000 		mov	r0, #0
 1497 079a FFF7FEFF 		bl	Pin_LEDIdle_Write
 360:.\main.c      **** 				Pin_LEDCollision_Write(1);
 1498              		.loc 1 360 0
 1499 079e 4FF00100 		mov	r0, #1
 1500 07a2 FFF7FEFF 		bl	Pin_LEDCollision_Write
 361:.\main.c      **** 				break;
 1501              		.loc 1 361 0
 1502 07a6 00E0     		b	.L35
 1503              	.L74:
ARM GAS  C:\Users\makij\AppData\Local\Temp\ccllLF1a.s 			page 34


 347:.\main.c      **** 				break;
 1504              		.loc 1 347 0
 1505 07a8 00BF     		nop
 1506              	.L35:
 362:.\main.c      **** 		}
 363:.\main.c      **** 	}
 1507              		.loc 1 363 0
 1508 07aa 31E4     		b	.L72
 1509              		.cfi_endproc
 1510              	.LFE66:
 1511              		.size	main, .-main
 1512              		.section	.rodata
 1513              		.align	2
 1514              	.LC0:
 1515 0000 57656C63 		.ascii	"Welcome\000"
 1515      6F6D6500 
 1516              		.section	.text.init,"ax",%progbits
 1517              		.align	2
 1518              		.global	init
 1519              		.thumb
 1520              		.thumb_func
 1521              		.type	init, %function
 1522              	init:
 1523              	.LFB67:
 364:.\main.c      **** }
 365:.\main.c      **** 
 366:.\main.c      **** void init()
 367:.\main.c      **** {	
 1524              		.loc 1 367 0
 1525              		.cfi_startproc
 1526              		@ args = 0, pretend = 0, frame = 0
 1527              		@ frame_needed = 1, uses_anonymous_args = 0
 1528 0000 80B5     		push	{r7, lr}
 1529              	.LCFI28:
 1530              		.cfi_def_cfa_offset 8
 1531              		.cfi_offset 7, -8
 1532              		.cfi_offset 14, -4
 1533 0002 00AF     		add	r7, sp, #0
 1534              	.LCFI29:
 1535              		.cfi_def_cfa_register 7
 368:.\main.c      **** 	LCD_Start();
 1536              		.loc 1 368 0
 1537 0004 FFF7FEFF 		bl	LCD_Start
 369:.\main.c      **** 	LCD_Position(0,0);
 1538              		.loc 1 369 0
 1539 0008 4FF00000 		mov	r0, #0
 1540 000c 4FF00001 		mov	r1, #0
 1541 0010 FFF7FEFF 		bl	LCD_Position
 370:.\main.c      **** 	LCD_PrintString("Welcome");
 1542              		.loc 1 370 0
 1543 0014 40F20000 		movw	r0, #:lower16:.LC0
 1544 0018 C0F20000 		movt	r0, #:upper16:.LC0
 1545 001c FFF7FEFF 		bl	LCD_PrintString
 371:.\main.c      **** 	
 372:.\main.c      **** 	
 373:.\main.c      **** 	Transm_Output_Write(1);
 1546              		.loc 1 373 0
ARM GAS  C:\Users\makij\AppData\Local\Temp\ccllLF1a.s 			page 35


 1547 0020 4FF00100 		mov	r0, #1
 1548 0024 FFF7FEFF 		bl	Transm_Output_Write
 374:.\main.c      **** 	//Enable Global Interrupts
 375:.\main.c      **** 	CYGlobalIntEnable;
 1549              		.loc 1 375 0
 1550              	@ 375 ".\main.c" 1
 1551 0028 62B6     		CPSIE   i
 1552              	@ 0 "" 2
 376:.\main.c      **** 	
 377:.\main.c      **** 	//Init isr
 378:.\main.c      **** 	isr_BusyToCollision_StartEx(isr_BusyToCollision);
 1553              		.loc 1 378 0
 1554              		.thumb
 1555 002a 40F20000 		movw	r0, #:lower16:isr_BusyToCollision
 1556 002e C0F20000 		movt	r0, #:upper16:isr_BusyToCollision
 1557 0032 FFF7FEFF 		bl	isr_BusyToCollision_StartEx
 379:.\main.c      **** 	isr_BusyToIdle_StartEx(isr_BusyToIdle);
 1558              		.loc 1 379 0
 1559 0036 40F20000 		movw	r0, #:lower16:isr_BusyToIdle
 1560 003a C0F20000 		movt	r0, #:upper16:isr_BusyToIdle
 1561 003e FFF7FEFF 		bl	isr_BusyToIdle_StartEx
 380:.\main.c      **** 	
 381:.\main.c      **** 	isr_RisingEdge_StartEx(isr_RisingEdgeDetected);
 1562              		.loc 1 381 0
 1563 0042 40F20000 		movw	r0, #:lower16:isr_RisingEdgeDetected
 1564 0046 C0F20000 		movt	r0, #:upper16:isr_RisingEdgeDetected
 1565 004a FFF7FEFF 		bl	isr_RisingEdge_StartEx
 382:.\main.c      **** 	isr_FallingEdge_StartEx(isr_FallingEdgeDetected);
 1566              		.loc 1 382 0
 1567 004e 40F20000 		movw	r0, #:lower16:isr_FallingEdgeDetected
 1568 0052 C0F20000 		movt	r0, #:upper16:isr_FallingEdgeDetected
 1569 0056 FFF7FEFF 		bl	isr_FallingEdge_StartEx
 383:.\main.c      **** 	
 384:.\main.c      **** 	Timer_sendData_Start();
 1570              		.loc 1 384 0
 1571 005a FFF7FEFF 		bl	Timer_sendData_Start
 385:.\main.c      **** 	Timer_sendData_Sleep();
 1572              		.loc 1 385 0
 1573 005e FFF7FEFF 		bl	Timer_sendData_Sleep
 386:.\main.c      **** 	
 387:.\main.c      **** 	
 388:.\main.c      **** 	isr_sendData_StartEx(isr_sendingData);
 1574              		.loc 1 388 0
 1575 0062 40F20000 		movw	r0, #:lower16:isr_sendingData
 1576 0066 C0F20000 		movt	r0, #:upper16:isr_sendingData
 1577 006a FFF7FEFF 		bl	isr_sendData_StartEx
 389:.\main.c      **** 	
 390:.\main.c      **** 	    /* Start USBFS Operation with 3V operation */
 391:.\main.c      ****     USB_Start(0u, USB_3V_OPERATION);
 1578              		.loc 1 391 0
 1579 006e 4FF00000 		mov	r0, #0
 1580 0072 4FF00001 		mov	r1, #0
 1581 0076 FFF7FEFF 		bl	USB_Start
 392:.\main.c      **** 	 /* Wait for Device to enumerate */
 393:.\main.c      ****     while(!USB_GetConfiguration());
 1582              		.loc 1 393 0
 1583 007a 00BF     		nop
ARM GAS  C:\Users\makij\AppData\Local\Temp\ccllLF1a.s 			page 36


 1584              	.L76:
 1585              		.loc 1 393 0 is_stmt 0 discriminator 1
 1586 007c FFF7FEFF 		bl	USB_GetConfiguration
 1587 0080 0346     		mov	r3, r0
 1588 0082 002B     		cmp	r3, #0
 1589 0084 FAD0     		beq	.L76
 394:.\main.c      **** 
 395:.\main.c      ****     /* Enumeration is done, enable OUT endpoint for receive data from Host */
 396:.\main.c      ****     USB_CDC_Init();
 1590              		.loc 1 396 0 is_stmt 1
 1591 0086 FFF7FEFF 		bl	USB_CDC_Init
 397:.\main.c      **** 	
 398:.\main.c      **** 	//Init Components
 399:.\main.c      **** 	//Timer_BusyToCollision_Start();
 400:.\main.c      **** 	//Timer_BusyToIdle_Start();
 401:.\main.c      **** 	
 402:.\main.c      **** }
 1592              		.loc 1 402 0
 1593 008a 80BD     		pop	{r7, pc}
 1594              		.cfi_endproc
 1595              	.LFE67:
 1596              		.size	init, .-init
 1597              		.text
 1598              	.Letext0:
 1599              		.file 2 "c:\\program files (x86)\\cypress\\psoc creator\\3.0\\psoc creator\\import\\gnu_cs\\arm\\4
 1600              		.file 3 "./Generated_Source/PSoC5/cytypes.h"
 1601              		.file 4 ".\\main.h"
 1602              		.file 5 "./Generated_Source/PSoC5/core_cm3.h"