ARM GAS  C:\Users\Zach\AppData\Local\Temp\ccDfBbGE.s 			page 1


   1              		.syntax unified
   2              		.cpu cortex-m3
   3              		.fpu softvfp
   4              		.eabi_attribute 20, 1
   5              		.eabi_attribute 21, 1
   6              		.eabi_attribute 23, 3
   7              		.eabi_attribute 24, 1
   8              		.eabi_attribute 25, 1
   9              		.eabi_attribute 26, 1
  10              		.eabi_attribute 30, 6
  11              		.eabi_attribute 34, 1
  12              		.eabi_attribute 18, 4
  13              		.thumb
  14              		.file	"ShiftReg_output_PM.c"
  15              		.text
  16              	.Ltext0:
  17              		.cfi_sections	.debug_frame
  18              		.bss
  19              		.align	2
  20              	ShiftReg_output_backup:
  21 0000 00000000 		.space	12
  21      00000000 
  21      00000000 
  22              		.section	.text.ShiftReg_output_SaveConfig,"ax",%progbits
  23              		.align	2
  24              		.global	ShiftReg_output_SaveConfig
  25              		.thumb
  26              		.thumb_func
  27              		.type	ShiftReg_output_SaveConfig, %function
  28              	ShiftReg_output_SaveConfig:
  29              	.LFB0:
  30              		.file 1 ".\\Generated_Source\\PSoC5\\ShiftReg_output_PM.c"
   1:.\Generated_Source\PSoC5/ShiftReg_output_PM.c **** /*******************************************************************************
   2:.\Generated_Source\PSoC5/ShiftReg_output_PM.c **** * File Name: ShiftReg_output_PM.c
   3:.\Generated_Source\PSoC5/ShiftReg_output_PM.c **** * Version 2.30
   4:.\Generated_Source\PSoC5/ShiftReg_output_PM.c **** *
   5:.\Generated_Source\PSoC5/ShiftReg_output_PM.c **** * Description:
   6:.\Generated_Source\PSoC5/ShiftReg_output_PM.c **** *  This file provides the API source code for sleep mode support for Shift
   7:.\Generated_Source\PSoC5/ShiftReg_output_PM.c **** *  Register component.
   8:.\Generated_Source\PSoC5/ShiftReg_output_PM.c **** *
   9:.\Generated_Source\PSoC5/ShiftReg_output_PM.c **** * Note:
  10:.\Generated_Source\PSoC5/ShiftReg_output_PM.c **** *
  11:.\Generated_Source\PSoC5/ShiftReg_output_PM.c **** ********************************************************************************
  12:.\Generated_Source\PSoC5/ShiftReg_output_PM.c **** * Copyright 2008-2013, Cypress Semiconductor Corporation.  All rights reserved.
  13:.\Generated_Source\PSoC5/ShiftReg_output_PM.c **** * You may use this file only in accordance with the license, terms, conditions,
  14:.\Generated_Source\PSoC5/ShiftReg_output_PM.c **** * disclaimers, and limitations in the end user license agreement accompanying
  15:.\Generated_Source\PSoC5/ShiftReg_output_PM.c **** * the software package with which this file was provided.
  16:.\Generated_Source\PSoC5/ShiftReg_output_PM.c **** *******************************************************************************/
  17:.\Generated_Source\PSoC5/ShiftReg_output_PM.c **** 
  18:.\Generated_Source\PSoC5/ShiftReg_output_PM.c **** #include "ShiftReg_output.h"
  19:.\Generated_Source\PSoC5/ShiftReg_output_PM.c **** 
  20:.\Generated_Source\PSoC5/ShiftReg_output_PM.c **** static ShiftReg_output_BACKUP_STRUCT ShiftReg_output_backup =
  21:.\Generated_Source\PSoC5/ShiftReg_output_PM.c **** {
  22:.\Generated_Source\PSoC5/ShiftReg_output_PM.c ****     ShiftReg_output_DISABLED,
  23:.\Generated_Source\PSoC5/ShiftReg_output_PM.c **** 
  24:.\Generated_Source\PSoC5/ShiftReg_output_PM.c ****     ((uint32) ShiftReg_output_DEFAULT_A0),
  25:.\Generated_Source\PSoC5/ShiftReg_output_PM.c ****     ((uint32) ShiftReg_output_DEFAULT_A1),
ARM GAS  C:\Users\Zach\AppData\Local\Temp\ccDfBbGE.s 			page 2


  26:.\Generated_Source\PSoC5/ShiftReg_output_PM.c **** 
  27:.\Generated_Source\PSoC5/ShiftReg_output_PM.c ****     #if(CY_UDB_V0)
  28:.\Generated_Source\PSoC5/ShiftReg_output_PM.c ****         ((uint32) ShiftReg_output_INT_SRC),
  29:.\Generated_Source\PSoC5/ShiftReg_output_PM.c ****     #endif /* (CY_UDB_V0) */
  30:.\Generated_Source\PSoC5/ShiftReg_output_PM.c **** };
  31:.\Generated_Source\PSoC5/ShiftReg_output_PM.c **** 
  32:.\Generated_Source\PSoC5/ShiftReg_output_PM.c **** 
  33:.\Generated_Source\PSoC5/ShiftReg_output_PM.c **** /*******************************************************************************
  34:.\Generated_Source\PSoC5/ShiftReg_output_PM.c **** * Function Name: ShiftReg_output_SaveConfig
  35:.\Generated_Source\PSoC5/ShiftReg_output_PM.c **** ********************************************************************************
  36:.\Generated_Source\PSoC5/ShiftReg_output_PM.c **** *
  37:.\Generated_Source\PSoC5/ShiftReg_output_PM.c **** * Summary:
  38:.\Generated_Source\PSoC5/ShiftReg_output_PM.c **** *  Saves Shift Register configuration.
  39:.\Generated_Source\PSoC5/ShiftReg_output_PM.c **** *
  40:.\Generated_Source\PSoC5/ShiftReg_output_PM.c **** * Parameters:
  41:.\Generated_Source\PSoC5/ShiftReg_output_PM.c **** *  None.
  42:.\Generated_Source\PSoC5/ShiftReg_output_PM.c **** *
  43:.\Generated_Source\PSoC5/ShiftReg_output_PM.c **** * Return:
  44:.\Generated_Source\PSoC5/ShiftReg_output_PM.c **** *  None.
  45:.\Generated_Source\PSoC5/ShiftReg_output_PM.c **** *
  46:.\Generated_Source\PSoC5/ShiftReg_output_PM.c **** * Reentrant:
  47:.\Generated_Source\PSoC5/ShiftReg_output_PM.c **** *  No.
  48:.\Generated_Source\PSoC5/ShiftReg_output_PM.c **** *
  49:.\Generated_Source\PSoC5/ShiftReg_output_PM.c **** *******************************************************************************/
  50:.\Generated_Source\PSoC5/ShiftReg_output_PM.c **** void ShiftReg_output_SaveConfig(void) 
  51:.\Generated_Source\PSoC5/ShiftReg_output_PM.c **** {
  31              		.loc 1 51 0
  32              		.cfi_startproc
  33              		@ args = 0, pretend = 0, frame = 0
  34              		@ frame_needed = 1, uses_anonymous_args = 0
  35              		@ link register save eliminated.
  36 0000 80B4     		push	{r7}
  37              	.LCFI0:
  38              		.cfi_def_cfa_offset 4
  39              		.cfi_offset 7, -4
  40 0002 00AF     		add	r7, sp, #0
  41              	.LCFI1:
  42              		.cfi_def_cfa_register 7
  52:.\Generated_Source\PSoC5/ShiftReg_output_PM.c ****     /* Store working registers A0 and A1 */
  53:.\Generated_Source\PSoC5/ShiftReg_output_PM.c ****     ShiftReg_output_backup.saveSrA0Reg   = CY_GET_REG32(ShiftReg_output_SHIFT_REG_LSB_PTR);
  43              		.loc 1 53 0
  44 0004 46F20453 		movw	r3, #25860
  45 0008 C4F20003 		movt	r3, 16384
  46 000c 1A68     		ldr	r2, [r3, #0]
  47 000e 40F20003 		movw	r3, #:lower16:ShiftReg_output_backup
  48 0012 C0F20003 		movt	r3, #:upper16:ShiftReg_output_backup
  49 0016 5A60     		str	r2, [r3, #4]
  54:.\Generated_Source\PSoC5/ShiftReg_output_PM.c ****     ShiftReg_output_backup.saveSrA1Reg   = CY_GET_REG32(ShiftReg_output_SHIFT_REG_VALUE_LSB_PTR);
  50              		.loc 1 54 0
  51 0018 46F21453 		movw	r3, #25876
  52 001c C4F20003 		movt	r3, 16384
  53 0020 1A68     		ldr	r2, [r3, #0]
  54 0022 40F20003 		movw	r3, #:lower16:ShiftReg_output_backup
  55 0026 C0F20003 		movt	r3, #:upper16:ShiftReg_output_backup
  56 002a 9A60     		str	r2, [r3, #8]
  55:.\Generated_Source\PSoC5/ShiftReg_output_PM.c **** 
  56:.\Generated_Source\PSoC5/ShiftReg_output_PM.c ****     #if(CY_UDB_V0)
ARM GAS  C:\Users\Zach\AppData\Local\Temp\ccDfBbGE.s 			page 3


  57:.\Generated_Source\PSoC5/ShiftReg_output_PM.c ****         ShiftReg_output_backup.saveSrIntMask = ShiftReg_output_SR_STATUS_MASK;
  58:.\Generated_Source\PSoC5/ShiftReg_output_PM.c ****     #endif /* (CY_UDB_V0) */
  59:.\Generated_Source\PSoC5/ShiftReg_output_PM.c **** }
  57              		.loc 1 59 0
  58 002c BD46     		mov	sp, r7
  59 002e 80BC     		pop	{r7}
  60 0030 7047     		bx	lr
  61              		.cfi_endproc
  62              	.LFE0:
  63              		.size	ShiftReg_output_SaveConfig, .-ShiftReg_output_SaveConfig
  64 0032 00BF     		.section	.text.ShiftReg_output_RestoreConfig,"ax",%progbits
  65              		.align	2
  66              		.global	ShiftReg_output_RestoreConfig
  67              		.thumb
  68              		.thumb_func
  69              		.type	ShiftReg_output_RestoreConfig, %function
  70              	ShiftReg_output_RestoreConfig:
  71              	.LFB1:
  60:.\Generated_Source\PSoC5/ShiftReg_output_PM.c **** 
  61:.\Generated_Source\PSoC5/ShiftReg_output_PM.c **** 
  62:.\Generated_Source\PSoC5/ShiftReg_output_PM.c **** /*******************************************************************************
  63:.\Generated_Source\PSoC5/ShiftReg_output_PM.c **** * Function Name: ShiftReg_output_RestoreConfig
  64:.\Generated_Source\PSoC5/ShiftReg_output_PM.c **** ********************************************************************************
  65:.\Generated_Source\PSoC5/ShiftReg_output_PM.c **** *
  66:.\Generated_Source\PSoC5/ShiftReg_output_PM.c **** * Summary:
  67:.\Generated_Source\PSoC5/ShiftReg_output_PM.c **** *  Restores Shift Register configuration.
  68:.\Generated_Source\PSoC5/ShiftReg_output_PM.c **** *
  69:.\Generated_Source\PSoC5/ShiftReg_output_PM.c **** * Parameters:
  70:.\Generated_Source\PSoC5/ShiftReg_output_PM.c **** *  None.
  71:.\Generated_Source\PSoC5/ShiftReg_output_PM.c **** *
  72:.\Generated_Source\PSoC5/ShiftReg_output_PM.c **** * Return:
  73:.\Generated_Source\PSoC5/ShiftReg_output_PM.c **** *  None.
  74:.\Generated_Source\PSoC5/ShiftReg_output_PM.c **** *
  75:.\Generated_Source\PSoC5/ShiftReg_output_PM.c **** *******************************************************************************/
  76:.\Generated_Source\PSoC5/ShiftReg_output_PM.c **** void ShiftReg_output_RestoreConfig(void) 
  77:.\Generated_Source\PSoC5/ShiftReg_output_PM.c **** {
  72              		.loc 1 77 0
  73              		.cfi_startproc
  74              		@ args = 0, pretend = 0, frame = 0
  75              		@ frame_needed = 1, uses_anonymous_args = 0
  76              		@ link register save eliminated.
  77 0000 80B4     		push	{r7}
  78              	.LCFI2:
  79              		.cfi_def_cfa_offset 4
  80              		.cfi_offset 7, -4
  81 0002 00AF     		add	r7, sp, #0
  82              	.LCFI3:
  83              		.cfi_def_cfa_register 7
  78:.\Generated_Source\PSoC5/ShiftReg_output_PM.c ****     /* Restore working registers A0 and A1 */
  79:.\Generated_Source\PSoC5/ShiftReg_output_PM.c ****     CY_SET_REG32(ShiftReg_output_SHIFT_REG_LSB_PTR, ShiftReg_output_backup.saveSrA0Reg);
  84              		.loc 1 79 0
  85 0004 46F20453 		movw	r3, #25860
  86 0008 C4F20003 		movt	r3, 16384
  87 000c 40F20002 		movw	r2, #:lower16:ShiftReg_output_backup
  88 0010 C0F20002 		movt	r2, #:upper16:ShiftReg_output_backup
  89 0014 5268     		ldr	r2, [r2, #4]
  90 0016 1A60     		str	r2, [r3, #0]
ARM GAS  C:\Users\Zach\AppData\Local\Temp\ccDfBbGE.s 			page 4


  80:.\Generated_Source\PSoC5/ShiftReg_output_PM.c ****     CY_SET_REG32(ShiftReg_output_SHIFT_REG_VALUE_LSB_PTR, ShiftReg_output_backup.saveSrA1Reg);
  91              		.loc 1 80 0
  92 0018 46F21453 		movw	r3, #25876
  93 001c C4F20003 		movt	r3, 16384
  94 0020 40F20002 		movw	r2, #:lower16:ShiftReg_output_backup
  95 0024 C0F20002 		movt	r2, #:upper16:ShiftReg_output_backup
  96 0028 9268     		ldr	r2, [r2, #8]
  97 002a 1A60     		str	r2, [r3, #0]
  81:.\Generated_Source\PSoC5/ShiftReg_output_PM.c **** 
  82:.\Generated_Source\PSoC5/ShiftReg_output_PM.c ****     #if(CY_UDB_V0)
  83:.\Generated_Source\PSoC5/ShiftReg_output_PM.c ****         ShiftReg_output_SR_STATUS_MASK = ((uint8) ShiftReg_output_backup.saveSrIntMask);
  84:.\Generated_Source\PSoC5/ShiftReg_output_PM.c ****     #endif /* (CY_UDB_V0) */
  85:.\Generated_Source\PSoC5/ShiftReg_output_PM.c **** }
  98              		.loc 1 85 0
  99 002c BD46     		mov	sp, r7
 100 002e 80BC     		pop	{r7}
 101 0030 7047     		bx	lr
 102              		.cfi_endproc
 103              	.LFE1:
 104              		.size	ShiftReg_output_RestoreConfig, .-ShiftReg_output_RestoreConfig
 105 0032 00BF     		.section	.text.ShiftReg_output_Sleep,"ax",%progbits
 106              		.align	2
 107              		.global	ShiftReg_output_Sleep
 108              		.thumb
 109              		.thumb_func
 110              		.type	ShiftReg_output_Sleep, %function
 111              	ShiftReg_output_Sleep:
 112              	.LFB2:
  86:.\Generated_Source\PSoC5/ShiftReg_output_PM.c **** 
  87:.\Generated_Source\PSoC5/ShiftReg_output_PM.c **** 
  88:.\Generated_Source\PSoC5/ShiftReg_output_PM.c **** /*******************************************************************************
  89:.\Generated_Source\PSoC5/ShiftReg_output_PM.c **** * Function Name: ShiftReg_output_Sleep
  90:.\Generated_Source\PSoC5/ShiftReg_output_PM.c **** ********************************************************************************
  91:.\Generated_Source\PSoC5/ShiftReg_output_PM.c **** *
  92:.\Generated_Source\PSoC5/ShiftReg_output_PM.c **** * Summary:
  93:.\Generated_Source\PSoC5/ShiftReg_output_PM.c **** *  Prepare the component to enter a Sleep mode.
  94:.\Generated_Source\PSoC5/ShiftReg_output_PM.c **** *
  95:.\Generated_Source\PSoC5/ShiftReg_output_PM.c **** * Parameters:
  96:.\Generated_Source\PSoC5/ShiftReg_output_PM.c **** *  None.
  97:.\Generated_Source\PSoC5/ShiftReg_output_PM.c **** *
  98:.\Generated_Source\PSoC5/ShiftReg_output_PM.c **** * Return:
  99:.\Generated_Source\PSoC5/ShiftReg_output_PM.c **** *  None.
 100:.\Generated_Source\PSoC5/ShiftReg_output_PM.c **** *
 101:.\Generated_Source\PSoC5/ShiftReg_output_PM.c **** * Reentrant:
 102:.\Generated_Source\PSoC5/ShiftReg_output_PM.c **** *  No.
 103:.\Generated_Source\PSoC5/ShiftReg_output_PM.c **** *
 104:.\Generated_Source\PSoC5/ShiftReg_output_PM.c **** *******************************************************************************/
 105:.\Generated_Source\PSoC5/ShiftReg_output_PM.c **** void ShiftReg_output_Sleep(void) 
 106:.\Generated_Source\PSoC5/ShiftReg_output_PM.c **** {
 113              		.loc 1 106 0
 114              		.cfi_startproc
 115              		@ args = 0, pretend = 0, frame = 0
 116              		@ frame_needed = 1, uses_anonymous_args = 0
 117 0000 80B5     		push	{r7, lr}
 118              	.LCFI4:
 119              		.cfi_def_cfa_offset 8
 120              		.cfi_offset 7, -8
ARM GAS  C:\Users\Zach\AppData\Local\Temp\ccDfBbGE.s 			page 5


 121              		.cfi_offset 14, -4
 122 0002 00AF     		add	r7, sp, #0
 123              	.LCFI5:
 124              		.cfi_def_cfa_register 7
 107:.\Generated_Source\PSoC5/ShiftReg_output_PM.c ****     ShiftReg_output_backup.enableState = ((uint8) ShiftReg_output_IS_ENABLED);
 125              		.loc 1 107 0
 126 0004 46F27753 		movw	r3, #25975
 127 0008 C4F20003 		movt	r3, 16384
 128 000c 1B78     		ldrb	r3, [r3, #0]
 129 000e DBB2     		uxtb	r3, r3
 130 0010 03F00103 		and	r3, r3, #1
 131 0014 002B     		cmp	r3, #0
 132 0016 0CBF     		ite	eq
 133 0018 0023     		moveq	r3, #0
 134 001a 0123     		movne	r3, #1
 135 001c DBB2     		uxtb	r3, r3
 136 001e 1A46     		mov	r2, r3
 137 0020 40F20003 		movw	r3, #:lower16:ShiftReg_output_backup
 138 0024 C0F20003 		movt	r3, #:upper16:ShiftReg_output_backup
 139 0028 1A70     		strb	r2, [r3, #0]
 108:.\Generated_Source\PSoC5/ShiftReg_output_PM.c **** 
 109:.\Generated_Source\PSoC5/ShiftReg_output_PM.c ****     ShiftReg_output_Stop();
 140              		.loc 1 109 0
 141 002a FFF7FEFF 		bl	ShiftReg_output_Stop
 110:.\Generated_Source\PSoC5/ShiftReg_output_PM.c ****     ShiftReg_output_SaveConfig();
 142              		.loc 1 110 0
 143 002e FFF7FEFF 		bl	ShiftReg_output_SaveConfig
 111:.\Generated_Source\PSoC5/ShiftReg_output_PM.c **** }
 144              		.loc 1 111 0
 145 0032 80BD     		pop	{r7, pc}
 146              		.cfi_endproc
 147              	.LFE2:
 148              		.size	ShiftReg_output_Sleep, .-ShiftReg_output_Sleep
 149              		.section	.text.ShiftReg_output_Wakeup,"ax",%progbits
 150              		.align	2
 151              		.global	ShiftReg_output_Wakeup
 152              		.thumb
 153              		.thumb_func
 154              		.type	ShiftReg_output_Wakeup, %function
 155              	ShiftReg_output_Wakeup:
 156              	.LFB3:
 112:.\Generated_Source\PSoC5/ShiftReg_output_PM.c **** 
 113:.\Generated_Source\PSoC5/ShiftReg_output_PM.c **** 
 114:.\Generated_Source\PSoC5/ShiftReg_output_PM.c **** /*******************************************************************************
 115:.\Generated_Source\PSoC5/ShiftReg_output_PM.c **** * Function Name: ShiftReg_output_Wakeup
 116:.\Generated_Source\PSoC5/ShiftReg_output_PM.c **** ********************************************************************************
 117:.\Generated_Source\PSoC5/ShiftReg_output_PM.c **** *
 118:.\Generated_Source\PSoC5/ShiftReg_output_PM.c **** * Summary:
 119:.\Generated_Source\PSoC5/ShiftReg_output_PM.c **** *  Restores and enables the user configuration.
 120:.\Generated_Source\PSoC5/ShiftReg_output_PM.c **** *
 121:.\Generated_Source\PSoC5/ShiftReg_output_PM.c **** * Parameters:
 122:.\Generated_Source\PSoC5/ShiftReg_output_PM.c **** *  None.
 123:.\Generated_Source\PSoC5/ShiftReg_output_PM.c **** *
 124:.\Generated_Source\PSoC5/ShiftReg_output_PM.c **** * Return:
 125:.\Generated_Source\PSoC5/ShiftReg_output_PM.c **** *  None.
 126:.\Generated_Source\PSoC5/ShiftReg_output_PM.c **** *
 127:.\Generated_Source\PSoC5/ShiftReg_output_PM.c **** *******************************************************************************/
ARM GAS  C:\Users\Zach\AppData\Local\Temp\ccDfBbGE.s 			page 6


 128:.\Generated_Source\PSoC5/ShiftReg_output_PM.c **** void ShiftReg_output_Wakeup(void) 
 129:.\Generated_Source\PSoC5/ShiftReg_output_PM.c **** {
 157              		.loc 1 129 0
 158              		.cfi_startproc
 159              		@ args = 0, pretend = 0, frame = 0
 160              		@ frame_needed = 1, uses_anonymous_args = 0
 161 0000 80B5     		push	{r7, lr}
 162              	.LCFI6:
 163              		.cfi_def_cfa_offset 8
 164              		.cfi_offset 7, -8
 165              		.cfi_offset 14, -4
 166 0002 00AF     		add	r7, sp, #0
 167              	.LCFI7:
 168              		.cfi_def_cfa_register 7
 130:.\Generated_Source\PSoC5/ShiftReg_output_PM.c ****     ShiftReg_output_RestoreConfig();
 169              		.loc 1 130 0
 170 0004 FFF7FEFF 		bl	ShiftReg_output_RestoreConfig
 131:.\Generated_Source\PSoC5/ShiftReg_output_PM.c **** 
 132:.\Generated_Source\PSoC5/ShiftReg_output_PM.c ****     if(0u != ShiftReg_output_backup.enableState)
 171              		.loc 1 132 0
 172 0008 40F20003 		movw	r3, #:lower16:ShiftReg_output_backup
 173 000c C0F20003 		movt	r3, #:upper16:ShiftReg_output_backup
 174 0010 1B78     		ldrb	r3, [r3, #0]	@ zero_extendqisi2
 175 0012 002B     		cmp	r3, #0
 176 0014 01D0     		beq	.L4
 133:.\Generated_Source\PSoC5/ShiftReg_output_PM.c ****     {
 134:.\Generated_Source\PSoC5/ShiftReg_output_PM.c ****         ShiftReg_output_Enable();
 177              		.loc 1 134 0
 178 0016 FFF7FEFF 		bl	ShiftReg_output_Enable
 179              	.L4:
 135:.\Generated_Source\PSoC5/ShiftReg_output_PM.c ****     }
 136:.\Generated_Source\PSoC5/ShiftReg_output_PM.c **** }
 180              		.loc 1 136 0
 181 001a 80BD     		pop	{r7, pc}
 182              		.cfi_endproc
 183              	.LFE3:
 184              		.size	ShiftReg_output_Wakeup, .-ShiftReg_output_Wakeup
 185              		.text
 186              	.Letext0:
 187              		.file 2 ".\\Generated_Source\\PSoC5\\cytypes.h"
 188              		.file 3 ".\\Generated_Source\\PSoC5\\ShiftReg_output.h"