ARM GAS  C:\Users\makij\AppData\Local\Temp\ccAkhLin.s 			page 1


   1              		.syntax unified
   2              		.cpu cortex-m3
   3              		.fpu softvfp
   4              		.eabi_attribute 20, 1
   5              		.eabi_attribute 21, 1
   6              		.eabi_attribute 23, 3
   7              		.eabi_attribute 24, 1
   8              		.eabi_attribute 25, 1
   9              		.eabi_attribute 26, 1
  10              		.eabi_attribute 30, 6
  11              		.eabi_attribute 34, 1
  12              		.eabi_attribute 18, 4
  13              		.thumb
  14              		.file	"USB_std.c"
  15              		.text
  16              	.Ltext0:
  17              		.cfi_sections	.debug_frame
  18              		.section	.text.USB_HandleStandardRqst,"ax",%progbits
  19              		.align	2
  20              		.global	USB_HandleStandardRqst
  21              		.thumb
  22              		.thumb_func
  23              		.type	USB_HandleStandardRqst, %function
  24              	USB_HandleStandardRqst:
  25              	.LFB0:
  26              		.file 1 ".\\Generated_Source\\PSoC5\\USB_std.c"
   1:.\Generated_Source\PSoC5/USB_std.c **** /*******************************************************************************
   2:.\Generated_Source\PSoC5/USB_std.c **** * File Name: USB_std.c
   3:.\Generated_Source\PSoC5/USB_std.c **** * Version 2.70
   4:.\Generated_Source\PSoC5/USB_std.c **** *
   5:.\Generated_Source\PSoC5/USB_std.c **** * Description:
   6:.\Generated_Source\PSoC5/USB_std.c **** *  USB Standard request handler.
   7:.\Generated_Source\PSoC5/USB_std.c **** *
   8:.\Generated_Source\PSoC5/USB_std.c **** * Note:
   9:.\Generated_Source\PSoC5/USB_std.c **** *
  10:.\Generated_Source\PSoC5/USB_std.c **** ********************************************************************************
  11:.\Generated_Source\PSoC5/USB_std.c **** * Copyright 2008-2013, Cypress Semiconductor Corporation.  All rights reserved.
  12:.\Generated_Source\PSoC5/USB_std.c **** * You may use this file only in accordance with the license, terms, conditions,
  13:.\Generated_Source\PSoC5/USB_std.c **** * disclaimers, and limitations in the end user license agreement accompanying
  14:.\Generated_Source\PSoC5/USB_std.c **** * the software package with which this file was provided.
  15:.\Generated_Source\PSoC5/USB_std.c **** *******************************************************************************/
  16:.\Generated_Source\PSoC5/USB_std.c **** 
  17:.\Generated_Source\PSoC5/USB_std.c **** #include "USB.h"
  18:.\Generated_Source\PSoC5/USB_std.c **** #include "USB_cdc.h"
  19:.\Generated_Source\PSoC5/USB_std.c **** #include "USB_pvt.h"
  20:.\Generated_Source\PSoC5/USB_std.c **** #if defined(USB_ENABLE_MIDI_STREAMING)
  21:.\Generated_Source\PSoC5/USB_std.c ****     #include "USB_midi.h"
  22:.\Generated_Source\PSoC5/USB_std.c **** #endif /*  USB_ENABLE_MIDI_STREAMING*/
  23:.\Generated_Source\PSoC5/USB_std.c **** 
  24:.\Generated_Source\PSoC5/USB_std.c **** 
  25:.\Generated_Source\PSoC5/USB_std.c **** /***************************************
  26:.\Generated_Source\PSoC5/USB_std.c **** *   Static data allocation
  27:.\Generated_Source\PSoC5/USB_std.c **** ***************************************/
  28:.\Generated_Source\PSoC5/USB_std.c **** 
  29:.\Generated_Source\PSoC5/USB_std.c **** #if defined(USB_ENABLE_FWSN_STRING)
  30:.\Generated_Source\PSoC5/USB_std.c ****     static volatile uint8 *USB_fwSerialNumberStringDescriptor;
  31:.\Generated_Source\PSoC5/USB_std.c ****     static volatile uint8 USB_snStringConfirm = USB_FALSE;
ARM GAS  C:\Users\makij\AppData\Local\Temp\ccAkhLin.s 			page 2


  32:.\Generated_Source\PSoC5/USB_std.c **** #endif  /* USB_ENABLE_FWSN_STRING */
  33:.\Generated_Source\PSoC5/USB_std.c **** 
  34:.\Generated_Source\PSoC5/USB_std.c **** #if defined(USB_ENABLE_FWSN_STRING)
  35:.\Generated_Source\PSoC5/USB_std.c **** 
  36:.\Generated_Source\PSoC5/USB_std.c ****     /*******************************************************************************
  37:.\Generated_Source\PSoC5/USB_std.c ****     * Function Name: USB_SerialNumString
  38:.\Generated_Source\PSoC5/USB_std.c ****     ********************************************************************************
  39:.\Generated_Source\PSoC5/USB_std.c ****     *
  40:.\Generated_Source\PSoC5/USB_std.c ****     * Summary:
  41:.\Generated_Source\PSoC5/USB_std.c ****     *  Application firmware may supply the source of the USB device descriptors
  42:.\Generated_Source\PSoC5/USB_std.c ****     *  serial number string during runtime.
  43:.\Generated_Source\PSoC5/USB_std.c ****     *
  44:.\Generated_Source\PSoC5/USB_std.c ****     * Parameters:
  45:.\Generated_Source\PSoC5/USB_std.c ****     *  snString:  pointer to string.
  46:.\Generated_Source\PSoC5/USB_std.c ****     *
  47:.\Generated_Source\PSoC5/USB_std.c ****     * Return:
  48:.\Generated_Source\PSoC5/USB_std.c ****     *  None.
  49:.\Generated_Source\PSoC5/USB_std.c ****     *
  50:.\Generated_Source\PSoC5/USB_std.c ****     * Reentrant:
  51:.\Generated_Source\PSoC5/USB_std.c ****     *  No.
  52:.\Generated_Source\PSoC5/USB_std.c ****     *
  53:.\Generated_Source\PSoC5/USB_std.c ****     *******************************************************************************/
  54:.\Generated_Source\PSoC5/USB_std.c ****     void  USB_SerialNumString(uint8 snString[]) 
  55:.\Generated_Source\PSoC5/USB_std.c ****     {
  56:.\Generated_Source\PSoC5/USB_std.c ****         USB_snStringConfirm = USB_FALSE;
  57:.\Generated_Source\PSoC5/USB_std.c ****         if(snString != NULL)
  58:.\Generated_Source\PSoC5/USB_std.c ****         {
  59:.\Generated_Source\PSoC5/USB_std.c ****             /* Check descriptor validation */
  60:.\Generated_Source\PSoC5/USB_std.c ****             if( (snString[0u] > 1u ) && (snString[1u] == USB_DESCR_STRING) )
  61:.\Generated_Source\PSoC5/USB_std.c ****             {
  62:.\Generated_Source\PSoC5/USB_std.c ****                 USB_fwSerialNumberStringDescriptor = snString;
  63:.\Generated_Source\PSoC5/USB_std.c ****                 USB_snStringConfirm = USB_TRUE;
  64:.\Generated_Source\PSoC5/USB_std.c ****             }
  65:.\Generated_Source\PSoC5/USB_std.c ****         }
  66:.\Generated_Source\PSoC5/USB_std.c ****     }
  67:.\Generated_Source\PSoC5/USB_std.c **** 
  68:.\Generated_Source\PSoC5/USB_std.c **** #endif  /* USB_ENABLE_FWSN_STRING */
  69:.\Generated_Source\PSoC5/USB_std.c **** 
  70:.\Generated_Source\PSoC5/USB_std.c **** 
  71:.\Generated_Source\PSoC5/USB_std.c **** /*******************************************************************************
  72:.\Generated_Source\PSoC5/USB_std.c **** * Function Name: USB_HandleStandardRqst
  73:.\Generated_Source\PSoC5/USB_std.c **** ********************************************************************************
  74:.\Generated_Source\PSoC5/USB_std.c **** *
  75:.\Generated_Source\PSoC5/USB_std.c **** * Summary:
  76:.\Generated_Source\PSoC5/USB_std.c **** *  This Routine dispatches standard requests
  77:.\Generated_Source\PSoC5/USB_std.c **** *
  78:.\Generated_Source\PSoC5/USB_std.c **** * Parameters:
  79:.\Generated_Source\PSoC5/USB_std.c **** *  None.
  80:.\Generated_Source\PSoC5/USB_std.c **** *
  81:.\Generated_Source\PSoC5/USB_std.c **** * Return:
  82:.\Generated_Source\PSoC5/USB_std.c **** *  TRUE if request handled.
  83:.\Generated_Source\PSoC5/USB_std.c **** *
  84:.\Generated_Source\PSoC5/USB_std.c **** * Reentrant:
  85:.\Generated_Source\PSoC5/USB_std.c **** *  No.
  86:.\Generated_Source\PSoC5/USB_std.c **** *
  87:.\Generated_Source\PSoC5/USB_std.c **** *******************************************************************************/
  88:.\Generated_Source\PSoC5/USB_std.c **** uint8 USB_HandleStandardRqst(void) 
ARM GAS  C:\Users\makij\AppData\Local\Temp\ccAkhLin.s 			page 3


  89:.\Generated_Source\PSoC5/USB_std.c **** {
  27              		.loc 1 89 0
  28              		.cfi_startproc
  29              		@ args = 0, pretend = 0, frame = 16
  30              		@ frame_needed = 1, uses_anonymous_args = 0
  31 0000 80B5     		push	{r7, lr}
  32              	.LCFI0:
  33              		.cfi_def_cfa_offset 8
  34              		.cfi_offset 7, -8
  35              		.cfi_offset 14, -4
  36 0002 84B0     		sub	sp, sp, #16
  37              	.LCFI1:
  38              		.cfi_def_cfa_offset 24
  39 0004 00AF     		add	r7, sp, #0
  40              	.LCFI2:
  41              		.cfi_def_cfa_register 7
  90:.\Generated_Source\PSoC5/USB_std.c ****     uint8 requestHandled = USB_FALSE;
  42              		.loc 1 90 0
  43 0006 4FF00003 		mov	r3, #0
  44 000a FB73     		strb	r3, [r7, #15]
  91:.\Generated_Source\PSoC5/USB_std.c ****     uint8 interfaceNumber;
  92:.\Generated_Source\PSoC5/USB_std.c ****     uint8 configurationN;
  93:.\Generated_Source\PSoC5/USB_std.c ****     #if defined(USB_ENABLE_STRINGS)
  94:.\Generated_Source\PSoC5/USB_std.c ****         volatile uint8 *pStr = 0u;
  95:.\Generated_Source\PSoC5/USB_std.c ****         #if defined(USB_ENABLE_DESCRIPTOR_STRINGS)
  96:.\Generated_Source\PSoC5/USB_std.c ****             uint8 nStr;
  97:.\Generated_Source\PSoC5/USB_std.c ****             uint8 descrLength;
  98:.\Generated_Source\PSoC5/USB_std.c ****         #endif /* USB_ENABLE_DESCRIPTOR_STRINGS */
  99:.\Generated_Source\PSoC5/USB_std.c ****     #endif /* USB_ENABLE_STRINGS */
 100:.\Generated_Source\PSoC5/USB_std.c ****     static volatile uint8 USB_tBuffer[USB_STATUS_LENGTH_MAX];
 101:.\Generated_Source\PSoC5/USB_std.c ****     const T_USB_LUT CYCODE *pTmp;
 102:.\Generated_Source\PSoC5/USB_std.c ****     USB_currentTD.count = 0u;
  45              		.loc 1 102 0
  46 000c 40F20003 		movw	r3, #:lower16:USB_currentTD
  47 0010 C0F20003 		movt	r3, #:upper16:USB_currentTD
  48 0014 4FF00002 		mov	r2, #0
  49 0018 1A80     		strh	r2, [r3, #0]	@ movhi
 103:.\Generated_Source\PSoC5/USB_std.c **** 
 104:.\Generated_Source\PSoC5/USB_std.c ****     if ((CY_GET_REG8(USB_bmRequestType) & USB_RQST_DIR_MASK) == USB_RQST_DIR_D2H)
  50              		.loc 1 104 0
  51 001a 4FF4C043 		mov	r3, #24576
  52 001e C4F20003 		movt	r3, 16384
  53 0022 1B78     		ldrb	r3, [r3, #0]
  54 0024 DBB2     		uxtb	r3, r3
  55 0026 DBB2     		uxtb	r3, r3
  56 0028 5BB2     		sxtb	r3, r3
  57 002a 002B     		cmp	r3, #0
  58 002c 80F22281 		bge	.L2
 105:.\Generated_Source\PSoC5/USB_std.c ****     {
 106:.\Generated_Source\PSoC5/USB_std.c ****         /* Control Read */
 107:.\Generated_Source\PSoC5/USB_std.c ****         switch (CY_GET_REG8(USB_bRequest))
  59              		.loc 1 107 0
  60 0030 46F20103 		movw	r3, #24577
  61 0034 C4F20003 		movt	r3, 16384
  62 0038 1B78     		ldrb	r3, [r3, #0]
  63 003a DBB2     		uxtb	r3, r3
  64 003c 0A2B     		cmp	r3, #10
ARM GAS  C:\Users\makij\AppData\Local\Temp\ccAkhLin.s 			page 4


  65 003e 00F28482 		bhi	.L51
  66 0042 01A2     		adr	r2, .L8
  67 0044 52F823F0 		ldr	pc, [r2, r3, lsl #2]
  68              		.align	2
  69              	.L8:
  70 0048 39010000 		.word	.L4+1
  71 004c 4B050000 		.word	.L51+1
  72 0050 4B050000 		.word	.L51+1
  73 0054 4B050000 		.word	.L51+1
  74 0058 4B050000 		.word	.L51+1
  75 005c 4B050000 		.word	.L51+1
  76 0060 75000000 		.word	.L5+1
  77 0064 4B050000 		.word	.L51+1
  78 0068 0F020000 		.word	.L6+1
  79 006c 4B050000 		.word	.L51+1
  80 0070 39020000 		.word	.L7+1
  81              	.L5:
 108:.\Generated_Source\PSoC5/USB_std.c ****         {
 109:.\Generated_Source\PSoC5/USB_std.c ****             case USB_GET_DESCRIPTOR:
 110:.\Generated_Source\PSoC5/USB_std.c ****                 if (CY_GET_REG8(USB_wValueHi) == USB_DESCR_DEVICE)
  82              		.loc 1 110 0
  83 0074 46F20303 		movw	r3, #24579
  84 0078 C4F20003 		movt	r3, 16384
  85 007c 1B78     		ldrb	r3, [r3, #0]
  86 007e DBB2     		uxtb	r3, r3
  87 0080 012B     		cmp	r3, #1
  88 0082 15D1     		bne	.L9
 111:.\Generated_Source\PSoC5/USB_std.c ****                 {
 112:.\Generated_Source\PSoC5/USB_std.c ****                     pTmp = USB_GetDeviceTablePtr();
  89              		.loc 1 112 0
  90 0084 FFF7FEFF 		bl	USB_GetDeviceTablePtr
  91 0088 B860     		str	r0, [r7, #8]
 113:.\Generated_Source\PSoC5/USB_std.c ****                     USB_currentTD.pData = (volatile uint8 *)pTmp->p_list;
  92              		.loc 1 113 0
  93 008a BB68     		ldr	r3, [r7, #8]
  94 008c 5A68     		ldr	r2, [r3, #4]
  95 008e 40F20003 		movw	r3, #:lower16:USB_currentTD
  96 0092 C0F20003 		movt	r3, #:upper16:USB_currentTD
  97 0096 5A60     		str	r2, [r3, #4]
 114:.\Generated_Source\PSoC5/USB_std.c ****                     USB_currentTD.count = USB_DEVICE_DESCR_LENGTH;
  98              		.loc 1 114 0
  99 0098 40F20003 		movw	r3, #:lower16:USB_currentTD
 100 009c C0F20003 		movt	r3, #:upper16:USB_currentTD
 101 00a0 4FF01202 		mov	r2, #18
 102 00a4 1A80     		strh	r2, [r3, #0]	@ movhi
 115:.\Generated_Source\PSoC5/USB_std.c ****                     requestHandled  = USB_InitControlRead();
 103              		.loc 1 115 0
 104 00a6 FFF7FEFF 		bl	USB_InitControlRead
 105 00aa 0346     		mov	r3, r0
 106 00ac FB73     		strb	r3, [r7, #15]
 116:.\Generated_Source\PSoC5/USB_std.c ****                 }
 117:.\Generated_Source\PSoC5/USB_std.c ****                 else if (CY_GET_REG8(USB_wValueHi) == USB_DESCR_CONFIG)
 118:.\Generated_Source\PSoC5/USB_std.c ****                 {
 119:.\Generated_Source\PSoC5/USB_std.c ****                     pTmp = USB_GetConfigTablePtr(CY_GET_REG8(USB_wValueLo));
 120:.\Generated_Source\PSoC5/USB_std.c ****                     if( pTmp != NULL )  /* Verify that requested descriptor exists */
 121:.\Generated_Source\PSoC5/USB_std.c ****                     {
 122:.\Generated_Source\PSoC5/USB_std.c ****                         USB_currentTD.pData = (volatile uint8 *)pTmp->p_list;
ARM GAS  C:\Users\makij\AppData\Local\Temp\ccAkhLin.s 			page 5


 123:.\Generated_Source\PSoC5/USB_std.c ****                         USB_currentTD.count = ((uint16)(USB_currentTD.pData)[ \
 124:.\Generated_Source\PSoC5/USB_std.c ****                                           USB_CONFIG_DESCR_TOTAL_LENGTH_HI] << 8u) | \
 125:.\Generated_Source\PSoC5/USB_std.c ****                                          (USB_currentTD.pData)[USB_CONFIG_DESCR_TOTAL_LENGTH_LOW];
 126:.\Generated_Source\PSoC5/USB_std.c ****                         requestHandled  = USB_InitControlRead();
 127:.\Generated_Source\PSoC5/USB_std.c ****                     }
 128:.\Generated_Source\PSoC5/USB_std.c ****                 }
 129:.\Generated_Source\PSoC5/USB_std.c ****                 #if defined(USB_ENABLE_STRINGS)
 130:.\Generated_Source\PSoC5/USB_std.c ****                 else if (CY_GET_REG8(USB_wValueHi) == USB_DESCR_STRING)
 131:.\Generated_Source\PSoC5/USB_std.c ****                 {
 132:.\Generated_Source\PSoC5/USB_std.c ****                     /* Descriptor Strings*/
 133:.\Generated_Source\PSoC5/USB_std.c ****                     #if defined(USB_ENABLE_DESCRIPTOR_STRINGS)
 134:.\Generated_Source\PSoC5/USB_std.c ****                         nStr = 0u;
 135:.\Generated_Source\PSoC5/USB_std.c ****                         pStr = (volatile uint8 *)&USB_STRING_DESCRIPTORS[0u];
 136:.\Generated_Source\PSoC5/USB_std.c ****                         while ( (CY_GET_REG8(USB_wValueLo) > nStr) && (*pStr != 0u) )
 137:.\Generated_Source\PSoC5/USB_std.c ****                         {
 138:.\Generated_Source\PSoC5/USB_std.c ****                             /* Read descriptor length from 1st byte */
 139:.\Generated_Source\PSoC5/USB_std.c ****                             descrLength = *pStr;
 140:.\Generated_Source\PSoC5/USB_std.c ****                             /* Move to next string descriptor */
 141:.\Generated_Source\PSoC5/USB_std.c ****                             pStr = &pStr[descrLength];
 142:.\Generated_Source\PSoC5/USB_std.c ****                             nStr++;
 143:.\Generated_Source\PSoC5/USB_std.c ****                         }
 144:.\Generated_Source\PSoC5/USB_std.c ****                     #endif /*  USB_ENABLE_DESCRIPTOR_STRINGS */
 145:.\Generated_Source\PSoC5/USB_std.c ****                     /* Microsoft OS String*/
 146:.\Generated_Source\PSoC5/USB_std.c ****                     #if defined(USB_ENABLE_MSOS_STRING)
 147:.\Generated_Source\PSoC5/USB_std.c ****                         if( CY_GET_REG8(USB_wValueLo) == USB_STRING_MSOS )
 148:.\Generated_Source\PSoC5/USB_std.c ****                         {
 149:.\Generated_Source\PSoC5/USB_std.c ****                             pStr = (volatile uint8 *)&USB_MSOS_DESCRIPTOR[0u];
 150:.\Generated_Source\PSoC5/USB_std.c ****                         }
 151:.\Generated_Source\PSoC5/USB_std.c ****                     #endif /*  USB_ENABLE_MSOS_STRING*/
 152:.\Generated_Source\PSoC5/USB_std.c ****                     /* SN string */
 153:.\Generated_Source\PSoC5/USB_std.c ****                     #if defined(USB_ENABLE_SN_STRING)
 154:.\Generated_Source\PSoC5/USB_std.c ****                         if( (CY_GET_REG8(USB_wValueLo) != 0u) &&
 155:.\Generated_Source\PSoC5/USB_std.c ****                             (CY_GET_REG8(USB_wValueLo) ==
 156:.\Generated_Source\PSoC5/USB_std.c ****                             USB_DEVICE0_DESCR[USB_DEVICE_DESCR_SN_SHIFT]) )
 157:.\Generated_Source\PSoC5/USB_std.c ****                         {
 158:.\Generated_Source\PSoC5/USB_std.c ****                             
 159:.\Generated_Source\PSoC5/USB_std.c ****                             #if defined(USB_ENABLE_IDSN_STRING)
 160:.\Generated_Source\PSoC5/USB_std.c ****                                 /* Read DIE ID and generate string descriptor in RAM */
 161:.\Generated_Source\PSoC5/USB_std.c ****                                 USB_ReadDieID(USB_idSerialNumberStringDescriptor);
 162:.\Generated_Source\PSoC5/USB_std.c ****                                 pStr = USB_idSerialNumberStringDescriptor;
 163:.\Generated_Source\PSoC5/USB_std.c ****                             #elif defined(USB_ENABLE_FWSN_STRING)
 164:.\Generated_Source\PSoC5/USB_std.c ****                                 if(USB_snStringConfirm != USB_FALSE)
 165:.\Generated_Source\PSoC5/USB_std.c ****                                 {
 166:.\Generated_Source\PSoC5/USB_std.c ****                                     pStr = USB_fwSerialNumberStringDescriptor;
 167:.\Generated_Source\PSoC5/USB_std.c ****                                 }
 168:.\Generated_Source\PSoC5/USB_std.c ****                                 else
 169:.\Generated_Source\PSoC5/USB_std.c ****                                 {
 170:.\Generated_Source\PSoC5/USB_std.c ****                                     pStr = (volatile uint8 *)&USB_SN_STRING_DESCRIPTOR[0u];
 171:.\Generated_Source\PSoC5/USB_std.c ****                                 }
 172:.\Generated_Source\PSoC5/USB_std.c ****                             #else
 173:.\Generated_Source\PSoC5/USB_std.c ****                                 pStr = (volatile uint8 *)&USB_SN_STRING_DESCRIPTOR[0u];
 174:.\Generated_Source\PSoC5/USB_std.c ****                             #endif  /* defined(USB_ENABLE_IDSN_STRING) */
 175:.\Generated_Source\PSoC5/USB_std.c ****                         }
 176:.\Generated_Source\PSoC5/USB_std.c ****                     #endif    /*  USB_ENABLE_SN_STRING */
 177:.\Generated_Source\PSoC5/USB_std.c ****                     if (*pStr != 0u)
 178:.\Generated_Source\PSoC5/USB_std.c ****                     {
 179:.\Generated_Source\PSoC5/USB_std.c ****                         USB_currentTD.count = *pStr;
ARM GAS  C:\Users\makij\AppData\Local\Temp\ccAkhLin.s 			page 6


 180:.\Generated_Source\PSoC5/USB_std.c ****                         USB_currentTD.pData = pStr;
 181:.\Generated_Source\PSoC5/USB_std.c ****                         requestHandled  = USB_InitControlRead();
 182:.\Generated_Source\PSoC5/USB_std.c ****                     }
 183:.\Generated_Source\PSoC5/USB_std.c ****                 }
 184:.\Generated_Source\PSoC5/USB_std.c ****                 #endif /*  USB_ENABLE_STRINGS */
 185:.\Generated_Source\PSoC5/USB_std.c ****                 else
 186:.\Generated_Source\PSoC5/USB_std.c ****                 {
 187:.\Generated_Source\PSoC5/USB_std.c ****                     requestHandled = USB_DispatchClassRqst();
 188:.\Generated_Source\PSoC5/USB_std.c ****                 }
 189:.\Generated_Source\PSoC5/USB_std.c ****                 break;
 107              		.loc 1 189 0
 108 00ae 4EE2     		b	.L52
 109              	.L9:
 117:.\Generated_Source\PSoC5/USB_std.c ****                 else if (CY_GET_REG8(USB_wValueHi) == USB_DESCR_CONFIG)
 110              		.loc 1 117 0
 111 00b0 46F20303 		movw	r3, #24579
 112 00b4 C4F20003 		movt	r3, 16384
 113 00b8 1B78     		ldrb	r3, [r3, #0]
 114 00ba DBB2     		uxtb	r3, r3
 115 00bc 022B     		cmp	r3, #2
 116 00be 36D1     		bne	.L11
 119:.\Generated_Source\PSoC5/USB_std.c ****                     pTmp = USB_GetConfigTablePtr(CY_GET_REG8(USB_wValueLo));
 117              		.loc 1 119 0
 118 00c0 46F20203 		movw	r3, #24578
 119 00c4 C4F20003 		movt	r3, 16384
 120 00c8 1B78     		ldrb	r3, [r3, #0]
 121 00ca DBB2     		uxtb	r3, r3
 122 00cc 1846     		mov	r0, r3
 123 00ce FFF7FEFF 		bl	USB_GetConfigTablePtr
 124 00d2 B860     		str	r0, [r7, #8]
 120:.\Generated_Source\PSoC5/USB_std.c ****                     if( pTmp != NULL )  /* Verify that requested descriptor exists */
 125              		.loc 1 120 0
 126 00d4 BB68     		ldr	r3, [r7, #8]
 127 00d6 002B     		cmp	r3, #0
 128 00d8 00F03982 		beq	.L52
 122:.\Generated_Source\PSoC5/USB_std.c ****                         USB_currentTD.pData = (volatile uint8 *)pTmp->p_list;
 129              		.loc 1 122 0
 130 00dc BB68     		ldr	r3, [r7, #8]
 131 00de 5A68     		ldr	r2, [r3, #4]
 132 00e0 40F20003 		movw	r3, #:lower16:USB_currentTD
 133 00e4 C0F20003 		movt	r3, #:upper16:USB_currentTD
 134 00e8 5A60     		str	r2, [r3, #4]
 123:.\Generated_Source\PSoC5/USB_std.c ****                         USB_currentTD.count = ((uint16)(USB_currentTD.pData)[ \
 135              		.loc 1 123 0
 136 00ea 40F20003 		movw	r3, #:lower16:USB_currentTD
 137 00ee C0F20003 		movt	r3, #:upper16:USB_currentTD
 138 00f2 5B68     		ldr	r3, [r3, #4]
 139 00f4 03F10303 		add	r3, r3, #3
 140 00f8 1B78     		ldrb	r3, [r3, #0]
 141 00fa DBB2     		uxtb	r3, r3
 124:.\Generated_Source\PSoC5/USB_std.c ****                                           USB_CONFIG_DESCR_TOTAL_LENGTH_HI] << 8u) | \
 142              		.loc 1 124 0
 143 00fc 4FEA0323 		lsl	r3, r3, #8
 123:.\Generated_Source\PSoC5/USB_std.c ****                         USB_currentTD.count = ((uint16)(USB_currentTD.pData)[ \
 144              		.loc 1 123 0
 145 0100 9AB2     		uxth	r2, r3
 125:.\Generated_Source\PSoC5/USB_std.c ****                                          (USB_currentTD.pData)[USB_CONFIG_DESCR_TOTAL_LENGTH_LOW];
ARM GAS  C:\Users\makij\AppData\Local\Temp\ccAkhLin.s 			page 7


 146              		.loc 1 125 0
 147 0102 40F20003 		movw	r3, #:lower16:USB_currentTD
 148 0106 C0F20003 		movt	r3, #:upper16:USB_currentTD
 149 010a 5B68     		ldr	r3, [r3, #4]
 150 010c 03F10203 		add	r3, r3, #2
 151 0110 1B78     		ldrb	r3, [r3, #0]
 152 0112 DBB2     		uxtb	r3, r3
 123:.\Generated_Source\PSoC5/USB_std.c ****                         USB_currentTD.count = ((uint16)(USB_currentTD.pData)[ \
 153              		.loc 1 123 0
 154 0114 1343     		orrs	r3, r3, r2
 155 0116 9BB2     		uxth	r3, r3
 156 0118 9AB2     		uxth	r2, r3
 157 011a 40F20003 		movw	r3, #:lower16:USB_currentTD
 158 011e C0F20003 		movt	r3, #:upper16:USB_currentTD
 159 0122 1A80     		strh	r2, [r3, #0]	@ movhi
 126:.\Generated_Source\PSoC5/USB_std.c ****                         requestHandled  = USB_InitControlRead();
 160              		.loc 1 126 0
 161 0124 FFF7FEFF 		bl	USB_InitControlRead
 162 0128 0346     		mov	r3, r0
 163 012a FB73     		strb	r3, [r7, #15]
 164              		.loc 1 189 0
 165 012c 0FE2     		b	.L52
 166              	.L11:
 187:.\Generated_Source\PSoC5/USB_std.c ****                     requestHandled = USB_DispatchClassRqst();
 167              		.loc 1 187 0
 168 012e FFF7FEFF 		bl	USB_DispatchClassRqst
 169 0132 0346     		mov	r3, r0
 170 0134 FB73     		strb	r3, [r7, #15]
 171              		.loc 1 189 0
 172 0136 0AE2     		b	.L52
 173              	.L4:
 190:.\Generated_Source\PSoC5/USB_std.c ****             case USB_GET_STATUS:
 191:.\Generated_Source\PSoC5/USB_std.c ****                 switch ((CY_GET_REG8(USB_bmRequestType) & USB_RQST_RCPT_MASK))
 174              		.loc 1 191 0
 175 0138 4FF4C043 		mov	r3, #24576
 176 013c C4F20003 		movt	r3, 16384
 177 0140 1B78     		ldrb	r3, [r3, #0]
 178 0142 DBB2     		uxtb	r3, r3
 179 0144 03F00303 		and	r3, r3, #3
 180 0148 002B     		cmp	r3, #0
 181 014a 37D0     		beq	.L14
 182 014c 022B     		cmp	r3, #2
 183 014e 5CD1     		bne	.L48
 184              	.L15:
 192:.\Generated_Source\PSoC5/USB_std.c ****                 {
 193:.\Generated_Source\PSoC5/USB_std.c ****                     case USB_RQST_RCPT_EP:
 194:.\Generated_Source\PSoC5/USB_std.c ****                         USB_currentTD.count = USB_EP_STATUS_LENGTH;
 185              		.loc 1 194 0
 186 0150 40F20003 		movw	r3, #:lower16:USB_currentTD
 187 0154 C0F20003 		movt	r3, #:upper16:USB_currentTD
 188 0158 4FF00202 		mov	r2, #2
 189 015c 1A80     		strh	r2, [r3, #0]	@ movhi
 195:.\Generated_Source\PSoC5/USB_std.c ****                         USB_tBuffer[0u] = USB_EP[ \
 196:.\Generated_Source\PSoC5/USB_std.c ****                                         CY_GET_REG8(USB_wIndexLo) & USB_DIR_UNUSED].hwEpState;
 190              		.loc 1 196 0
 191 015e 46F20403 		movw	r3, #24580
 192 0162 C4F20003 		movt	r3, 16384
ARM GAS  C:\Users\makij\AppData\Local\Temp\ccAkhLin.s 			page 8


 193 0166 1B78     		ldrb	r3, [r3, #0]
 194 0168 DBB2     		uxtb	r3, r3
 195 016a 03F07F01 		and	r1, r3, #127
 196 016e 40F20002 		movw	r2, #:lower16:USB_EP
 197 0172 C0F20002 		movt	r2, #:upper16:USB_EP
 198 0176 0B46     		mov	r3, r1
 199 0178 4FEA4303 		lsl	r3, r3, #1
 200 017c 5B18     		adds	r3, r3, r1
 201 017e 4FEA8303 		lsl	r3, r3, #2
 202 0182 D318     		adds	r3, r2, r3
 203 0184 9B78     		ldrb	r3, [r3, #2]
 204 0186 DAB2     		uxtb	r2, r3
 195:.\Generated_Source\PSoC5/USB_std.c ****                         USB_tBuffer[0u] = USB_EP[ \
 205              		.loc 1 195 0
 206 0188 40F20003 		movw	r3, #:lower16:USB_tBuffer.4962
 207 018c C0F20003 		movt	r3, #:upper16:USB_tBuffer.4962
 208 0190 1A70     		strb	r2, [r3, #0]
 197:.\Generated_Source\PSoC5/USB_std.c ****                         USB_tBuffer[1u] = 0u;
 209              		.loc 1 197 0
 210 0192 40F20003 		movw	r3, #:lower16:USB_tBuffer.4962
 211 0196 C0F20003 		movt	r3, #:upper16:USB_tBuffer.4962
 212 019a 4FF00002 		mov	r2, #0
 213 019e 5A70     		strb	r2, [r3, #1]
 198:.\Generated_Source\PSoC5/USB_std.c ****                         USB_currentTD.pData = &USB_tBuffer[0u];
 214              		.loc 1 198 0
 215 01a0 40F20003 		movw	r3, #:lower16:USB_currentTD
 216 01a4 C0F20003 		movt	r3, #:upper16:USB_currentTD
 217 01a8 40F20002 		movw	r2, #:lower16:USB_tBuffer.4962
 218 01ac C0F20002 		movt	r2, #:upper16:USB_tBuffer.4962
 219 01b0 5A60     		str	r2, [r3, #4]
 199:.\Generated_Source\PSoC5/USB_std.c ****                         requestHandled  = USB_InitControlRead();
 220              		.loc 1 199 0
 221 01b2 FFF7FEFF 		bl	USB_InitControlRead
 222 01b6 0346     		mov	r3, r0
 223 01b8 FB73     		strb	r3, [r7, #15]
 200:.\Generated_Source\PSoC5/USB_std.c ****                         break;
 224              		.loc 1 200 0
 225 01ba 27E0     		b	.L16
 226              	.L14:
 201:.\Generated_Source\PSoC5/USB_std.c ****                     case USB_RQST_RCPT_DEV:
 202:.\Generated_Source\PSoC5/USB_std.c ****                         USB_currentTD.count = USB_DEVICE_STATUS_LENGTH;
 227              		.loc 1 202 0
 228 01bc 40F20003 		movw	r3, #:lower16:USB_currentTD
 229 01c0 C0F20003 		movt	r3, #:upper16:USB_currentTD
 230 01c4 4FF00202 		mov	r2, #2
 231 01c8 1A80     		strh	r2, [r3, #0]	@ movhi
 203:.\Generated_Source\PSoC5/USB_std.c ****                         USB_tBuffer[0u] = USB_deviceStatus;
 232              		.loc 1 203 0
 233 01ca 40F20003 		movw	r3, #:lower16:USB_deviceStatus
 234 01ce C0F20003 		movt	r3, #:upper16:USB_deviceStatus
 235 01d2 1B78     		ldrb	r3, [r3, #0]
 236 01d4 DAB2     		uxtb	r2, r3
 237 01d6 40F20003 		movw	r3, #:lower16:USB_tBuffer.4962
 238 01da C0F20003 		movt	r3, #:upper16:USB_tBuffer.4962
 239 01de 1A70     		strb	r2, [r3, #0]
 204:.\Generated_Source\PSoC5/USB_std.c ****                         USB_tBuffer[1u] = 0u;
 240              		.loc 1 204 0
ARM GAS  C:\Users\makij\AppData\Local\Temp\ccAkhLin.s 			page 9


 241 01e0 40F20003 		movw	r3, #:lower16:USB_tBuffer.4962
 242 01e4 C0F20003 		movt	r3, #:upper16:USB_tBuffer.4962
 243 01e8 4FF00002 		mov	r2, #0
 244 01ec 5A70     		strb	r2, [r3, #1]
 205:.\Generated_Source\PSoC5/USB_std.c ****                         USB_currentTD.pData = &USB_tBuffer[0u];
 245              		.loc 1 205 0
 246 01ee 40F20003 		movw	r3, #:lower16:USB_currentTD
 247 01f2 C0F20003 		movt	r3, #:upper16:USB_currentTD
 248 01f6 40F20002 		movw	r2, #:lower16:USB_tBuffer.4962
 249 01fa C0F20002 		movt	r2, #:upper16:USB_tBuffer.4962
 250 01fe 5A60     		str	r2, [r3, #4]
 206:.\Generated_Source\PSoC5/USB_std.c ****                         requestHandled  = USB_InitControlRead();
 251              		.loc 1 206 0
 252 0200 FFF7FEFF 		bl	USB_InitControlRead
 253 0204 0346     		mov	r3, r0
 254 0206 FB73     		strb	r3, [r7, #15]
 207:.\Generated_Source\PSoC5/USB_std.c ****                         break;
 255              		.loc 1 207 0
 256 0208 00E0     		b	.L16
 257              	.L48:
 208:.\Generated_Source\PSoC5/USB_std.c ****                     default:    /* requestHandled is initialized as FALSE by default */
 209:.\Generated_Source\PSoC5/USB_std.c ****                         break;
 258              		.loc 1 209 0
 259 020a 00BF     		nop
 260              	.L16:
 210:.\Generated_Source\PSoC5/USB_std.c ****                 }
 211:.\Generated_Source\PSoC5/USB_std.c ****                 break;
 261              		.loc 1 211 0
 262 020c A6E1     		b	.L17
 263              	.L6:
 212:.\Generated_Source\PSoC5/USB_std.c ****             case USB_GET_CONFIGURATION:
 213:.\Generated_Source\PSoC5/USB_std.c ****                 USB_currentTD.count = 1u;
 264              		.loc 1 213 0
 265 020e 40F20003 		movw	r3, #:lower16:USB_currentTD
 266 0212 C0F20003 		movt	r3, #:upper16:USB_currentTD
 267 0216 4FF00102 		mov	r2, #1
 268 021a 1A80     		strh	r2, [r3, #0]	@ movhi
 214:.\Generated_Source\PSoC5/USB_std.c ****                 USB_currentTD.pData = (volatile uint8 *)&USB_configuration;
 269              		.loc 1 214 0
 270 021c 40F20003 		movw	r3, #:lower16:USB_currentTD
 271 0220 C0F20003 		movt	r3, #:upper16:USB_currentTD
 272 0224 40F20002 		movw	r2, #:lower16:USB_configuration
 273 0228 C0F20002 		movt	r2, #:upper16:USB_configuration
 274 022c 5A60     		str	r2, [r3, #4]
 215:.\Generated_Source\PSoC5/USB_std.c ****                 requestHandled  = USB_InitControlRead();
 275              		.loc 1 215 0
 276 022e FFF7FEFF 		bl	USB_InitControlRead
 277 0232 0346     		mov	r3, r0
 278 0234 FB73     		strb	r3, [r7, #15]
 216:.\Generated_Source\PSoC5/USB_std.c ****                 break;
 279              		.loc 1 216 0
 280 0236 91E1     		b	.L17
 281              	.L7:
 217:.\Generated_Source\PSoC5/USB_std.c ****             case USB_GET_INTERFACE:
 218:.\Generated_Source\PSoC5/USB_std.c ****                 USB_currentTD.count = 1u;
 282              		.loc 1 218 0
 283 0238 40F20003 		movw	r3, #:lower16:USB_currentTD
ARM GAS  C:\Users\makij\AppData\Local\Temp\ccAkhLin.s 			page 10


 284 023c C0F20003 		movt	r3, #:upper16:USB_currentTD
 285 0240 4FF00102 		mov	r2, #1
 286 0244 1A80     		strh	r2, [r3, #0]	@ movhi
 219:.\Generated_Source\PSoC5/USB_std.c ****                 USB_currentTD.pData = (volatile uint8 *)&USB_interfaceSetting[ \
 220:.\Generated_Source\PSoC5/USB_std.c ****                                                                             CY_GET_REG8(USB_wIndexL
 287              		.loc 1 220 0
 288 0246 46F20403 		movw	r3, #24580
 289 024a C4F20003 		movt	r3, 16384
 290 024e 1B78     		ldrb	r3, [r3, #0]
 291 0250 DBB2     		uxtb	r3, r3
 219:.\Generated_Source\PSoC5/USB_std.c ****                 USB_currentTD.pData = (volatile uint8 *)&USB_interfaceSetting[ \
 292              		.loc 1 219 0
 293 0252 1A46     		mov	r2, r3
 294 0254 40F20003 		movw	r3, #:lower16:USB_interfaceSetting
 295 0258 C0F20003 		movt	r3, #:upper16:USB_interfaceSetting
 296 025c D218     		adds	r2, r2, r3
 297 025e 40F20003 		movw	r3, #:lower16:USB_currentTD
 298 0262 C0F20003 		movt	r3, #:upper16:USB_currentTD
 299 0266 5A60     		str	r2, [r3, #4]
 221:.\Generated_Source\PSoC5/USB_std.c ****                 requestHandled  = USB_InitControlRead();
 300              		.loc 1 221 0
 301 0268 FFF7FEFF 		bl	USB_InitControlRead
 302 026c 0346     		mov	r3, r0
 303 026e FB73     		strb	r3, [r7, #15]
 222:.\Generated_Source\PSoC5/USB_std.c ****                 break;
 304              		.loc 1 222 0
 305 0270 00BF     		nop
 306 0272 73E1     		b	.L17
 307              	.L2:
 223:.\Generated_Source\PSoC5/USB_std.c ****             default: /* requestHandled is initialized as FALSE by default */
 224:.\Generated_Source\PSoC5/USB_std.c ****                 break;
 225:.\Generated_Source\PSoC5/USB_std.c ****         }
 226:.\Generated_Source\PSoC5/USB_std.c ****     }
 227:.\Generated_Source\PSoC5/USB_std.c ****     else {
 228:.\Generated_Source\PSoC5/USB_std.c ****         /* Control Write */
 229:.\Generated_Source\PSoC5/USB_std.c ****         switch (CY_GET_REG8(USB_bRequest))
 308              		.loc 1 229 0
 309 0274 46F20103 		movw	r3, #24577
 310 0278 C4F20003 		movt	r3, 16384
 311 027c 1B78     		ldrb	r3, [r3, #0]
 312 027e DBB2     		uxtb	r3, r3
 313 0280 03F1FF33 		add	r3, r3, #-1
 314 0284 0A2B     		cmp	r3, #10
 315 0286 00F26481 		bhi	.L53
 316 028a 01A2     		adr	r2, .L24
 317 028c 52F823F0 		ldr	pc, [r2, r3, lsl #2]
 318              		.align	2
 319              	.L24:
 320 0290 AB030000 		.word	.L19+1
 321 0294 53050000 		.word	.L53+1
 322 0298 7B040000 		.word	.L20+1
 323 029c 53050000 		.word	.L53+1
 324 02a0 BD020000 		.word	.L21+1
 325 02a4 53050000 		.word	.L53+1
 326 02a8 53050000 		.word	.L53+1
 327 02ac 53050000 		.word	.L53+1
 328 02b0 DD020000 		.word	.L22+1
ARM GAS  C:\Users\makij\AppData\Local\Temp\ccAkhLin.s 			page 11


 329 02b4 53050000 		.word	.L53+1
 330 02b8 51030000 		.word	.L23+1
 331              	.L21:
 230:.\Generated_Source\PSoC5/USB_std.c ****         {
 231:.\Generated_Source\PSoC5/USB_std.c ****             case USB_SET_ADDRESS:
 232:.\Generated_Source\PSoC5/USB_std.c ****                 USB_deviceAddress = CY_GET_REG8(USB_wValueLo);
 332              		.loc 1 232 0
 333 02bc 46F20203 		movw	r3, #24578
 334 02c0 C4F20003 		movt	r3, 16384
 335 02c4 1B78     		ldrb	r3, [r3, #0]
 336 02c6 DAB2     		uxtb	r2, r3
 337 02c8 40F20003 		movw	r3, #:lower16:USB_deviceAddress
 338 02cc C0F20003 		movt	r3, #:upper16:USB_deviceAddress
 339 02d0 1A70     		strb	r2, [r3, #0]
 233:.\Generated_Source\PSoC5/USB_std.c ****                 requestHandled = USB_InitNoDataControlTransfer();
 340              		.loc 1 233 0
 341 02d2 FFF7FEFF 		bl	USB_InitNoDataControlTransfer
 342 02d6 0346     		mov	r3, r0
 343 02d8 FB73     		strb	r3, [r7, #15]
 234:.\Generated_Source\PSoC5/USB_std.c ****                 break;
 344              		.loc 1 234 0
 345 02da 3FE1     		b	.L17
 346              	.L22:
 235:.\Generated_Source\PSoC5/USB_std.c ****             case USB_SET_CONFIGURATION:
 236:.\Generated_Source\PSoC5/USB_std.c ****                 configurationN = CY_GET_REG8(USB_wValueLo);
 347              		.loc 1 236 0
 348 02dc 46F20203 		movw	r3, #24578
 349 02e0 C4F20003 		movt	r3, 16384
 350 02e4 1B78     		ldrb	r3, [r3, #0]
 351 02e6 FB71     		strb	r3, [r7, #7]
 237:.\Generated_Source\PSoC5/USB_std.c ****                 if(configurationN > 0)
 352              		.loc 1 237 0
 353 02e8 FB79     		ldrb	r3, [r7, #7]	@ zero_extendqisi2
 354 02ea 002B     		cmp	r3, #0
 355 02ec 07D0     		beq	.L25
 238:.\Generated_Source\PSoC5/USB_std.c ****                 {   /* Verify that configuration descriptor exists */
 239:.\Generated_Source\PSoC5/USB_std.c ****                     pTmp = USB_GetConfigTablePtr(configurationN - 1u);
 356              		.loc 1 239 0
 357 02ee FB79     		ldrb	r3, [r7, #7]
 358 02f0 03F1FF33 		add	r3, r3, #-1
 359 02f4 DBB2     		uxtb	r3, r3
 360 02f6 1846     		mov	r0, r3
 361 02f8 FFF7FEFF 		bl	USB_GetConfigTablePtr
 362 02fc B860     		str	r0, [r7, #8]
 363              	.L25:
 240:.\Generated_Source\PSoC5/USB_std.c ****                 }
 241:.\Generated_Source\PSoC5/USB_std.c ****                 /* Responds with a Request Error when configuration number is invalid */
 242:.\Generated_Source\PSoC5/USB_std.c ****                 if (((configurationN > 0) && (pTmp != NULL)) || (configurationN == 0u))
 364              		.loc 1 242 0
 365 02fe FB79     		ldrb	r3, [r7, #7]	@ zero_extendqisi2
 366 0300 002B     		cmp	r3, #0
 367 0302 02D0     		beq	.L26
 368              		.loc 1 242 0 is_stmt 0 discriminator 1
 369 0304 BB68     		ldr	r3, [r7, #8]
 370 0306 002B     		cmp	r3, #0
 371 0308 03D1     		bne	.L27
 372              	.L26:
ARM GAS  C:\Users\makij\AppData\Local\Temp\ccAkhLin.s 			page 12


 373              		.loc 1 242 0 discriminator 2
 374 030a FB79     		ldrb	r3, [r7, #7]	@ zero_extendqisi2
 375 030c 002B     		cmp	r3, #0
 376 030e 40F02281 		bne	.L54
 377              	.L27:
 243:.\Generated_Source\PSoC5/USB_std.c ****                 {
 244:.\Generated_Source\PSoC5/USB_std.c ****                     /* Set new configuration if it has been changed */
 245:.\Generated_Source\PSoC5/USB_std.c ****                     if(configurationN != USB_configuration)        
 378              		.loc 1 245 0 is_stmt 1
 379 0312 40F20003 		movw	r3, #:lower16:USB_configuration
 380 0316 C0F20003 		movt	r3, #:upper16:USB_configuration
 381 031a 1B78     		ldrb	r3, [r3, #0]
 382 031c DBB2     		uxtb	r3, r3
 383 031e FA79     		ldrb	r2, [r7, #7]	@ zero_extendqisi2
 384 0320 9A42     		cmp	r2, r3
 385 0322 10D0     		beq	.L29
 246:.\Generated_Source\PSoC5/USB_std.c ****                     {
 247:.\Generated_Source\PSoC5/USB_std.c ****                         USB_configuration = configurationN;
 386              		.loc 1 247 0
 387 0324 40F20003 		movw	r3, #:lower16:USB_configuration
 388 0328 C0F20003 		movt	r3, #:upper16:USB_configuration
 389 032c FA79     		ldrb	r2, [r7, #7]
 390 032e 1A70     		strb	r2, [r3, #0]
 248:.\Generated_Source\PSoC5/USB_std.c ****                         USB_configurationChanged = USB_TRUE;
 391              		.loc 1 248 0
 392 0330 40F20003 		movw	r3, #:lower16:USB_configurationChanged
 393 0334 C0F20003 		movt	r3, #:upper16:USB_configurationChanged
 394 0338 4FF00102 		mov	r2, #1
 395 033c 1A70     		strb	r2, [r3, #0]
 249:.\Generated_Source\PSoC5/USB_std.c ****                         USB_Config(USB_TRUE);
 396              		.loc 1 249 0
 397 033e 4FF00100 		mov	r0, #1
 398 0342 FFF7FEFF 		bl	USB_Config
 399              	.L29:
 250:.\Generated_Source\PSoC5/USB_std.c ****                     }
 251:.\Generated_Source\PSoC5/USB_std.c ****                     requestHandled = USB_InitNoDataControlTransfer();
 400              		.loc 1 251 0
 401 0346 FFF7FEFF 		bl	USB_InitNoDataControlTransfer
 402 034a 0346     		mov	r3, r0
 403 034c FB73     		strb	r3, [r7, #15]
 252:.\Generated_Source\PSoC5/USB_std.c ****                 }
 253:.\Generated_Source\PSoC5/USB_std.c ****                 break;
 404              		.loc 1 253 0
 405 034e 02E1     		b	.L54
 406              	.L23:
 254:.\Generated_Source\PSoC5/USB_std.c ****             case USB_SET_INTERFACE:
 255:.\Generated_Source\PSoC5/USB_std.c ****                 if (USB_ValidateAlternateSetting() != 0u)
 407              		.loc 1 255 0
 408 0350 FFF7FEFF 		bl	USB_ValidateAlternateSetting
 409 0354 0346     		mov	r3, r0
 410 0356 002B     		cmp	r3, #0
 411 0358 00F0FF80 		beq	.L55
 256:.\Generated_Source\PSoC5/USB_std.c ****                 {
 257:.\Generated_Source\PSoC5/USB_std.c ****                     interfaceNumber = CY_GET_REG8(USB_wIndexLo);
 412              		.loc 1 257 0
 413 035c 46F20403 		movw	r3, #24580
 414 0360 C4F20003 		movt	r3, 16384
ARM GAS  C:\Users\makij\AppData\Local\Temp\ccAkhLin.s 			page 13


 415 0364 1B78     		ldrb	r3, [r3, #0]
 416 0366 BB71     		strb	r3, [r7, #6]
 258:.\Generated_Source\PSoC5/USB_std.c ****                     USB_interfaceNumber = interfaceNumber;
 417              		.loc 1 258 0
 418 0368 40F20003 		movw	r3, #:lower16:USB_interfaceNumber
 419 036c C0F20003 		movt	r3, #:upper16:USB_interfaceNumber
 420 0370 BA79     		ldrb	r2, [r7, #6]
 421 0372 1A70     		strb	r2, [r3, #0]
 259:.\Generated_Source\PSoC5/USB_std.c ****                     USB_configurationChanged = USB_TRUE;
 422              		.loc 1 259 0
 423 0374 40F20003 		movw	r3, #:lower16:USB_configurationChanged
 424 0378 C0F20003 		movt	r3, #:upper16:USB_configurationChanged
 425 037c 4FF00102 		mov	r2, #1
 426 0380 1A70     		strb	r2, [r3, #0]
 260:.\Generated_Source\PSoC5/USB_std.c ****                     #if ((USB_EP_MA == USB__MA_DYNAMIC) && \
 261:.\Generated_Source\PSoC5/USB_std.c ****                          (USB_EP_MM == USB__EP_MANUAL) )
 262:.\Generated_Source\PSoC5/USB_std.c ****                         USB_Config(USB_FALSE);
 263:.\Generated_Source\PSoC5/USB_std.c ****                     #else
 264:.\Generated_Source\PSoC5/USB_std.c ****                         USB_ConfigAltChanged();
 427              		.loc 1 264 0
 428 0382 FFF7FEFF 		bl	USB_ConfigAltChanged
 265:.\Generated_Source\PSoC5/USB_std.c ****                     #endif /*  (USB_EP_MA == USB__MA_DYNAMIC) */
 266:.\Generated_Source\PSoC5/USB_std.c ****                     /* Update handled Alt setting changes status */
 267:.\Generated_Source\PSoC5/USB_std.c ****                     USB_interfaceSetting_last[interfaceNumber] =
 429              		.loc 1 267 0
 430 0386 BA79     		ldrb	r2, [r7, #6]	@ zero_extendqisi2
 268:.\Generated_Source\PSoC5/USB_std.c ****                          USB_interfaceSetting[interfaceNumber];
 431              		.loc 1 268 0
 432 0388 B979     		ldrb	r1, [r7, #6]	@ zero_extendqisi2
 433 038a 40F20003 		movw	r3, #:lower16:USB_interfaceSetting
 434 038e C0F20003 		movt	r3, #:upper16:USB_interfaceSetting
 435 0392 5B5C     		ldrb	r3, [r3, r1]
 436 0394 D9B2     		uxtb	r1, r3
 267:.\Generated_Source\PSoC5/USB_std.c ****                     USB_interfaceSetting_last[interfaceNumber] =
 437              		.loc 1 267 0
 438 0396 40F20003 		movw	r3, #:lower16:USB_interfaceSetting_last
 439 039a C0F20003 		movt	r3, #:upper16:USB_interfaceSetting_last
 440 039e 9954     		strb	r1, [r3, r2]
 269:.\Generated_Source\PSoC5/USB_std.c ****                     requestHandled = USB_InitNoDataControlTransfer();
 441              		.loc 1 269 0
 442 03a0 FFF7FEFF 		bl	USB_InitNoDataControlTransfer
 443 03a4 0346     		mov	r3, r0
 444 03a6 FB73     		strb	r3, [r7, #15]
 270:.\Generated_Source\PSoC5/USB_std.c ****                 }
 271:.\Generated_Source\PSoC5/USB_std.c ****                 break;
 445              		.loc 1 271 0
 446 03a8 D7E0     		b	.L55
 447              	.L19:
 272:.\Generated_Source\PSoC5/USB_std.c ****             case USB_CLEAR_FEATURE:
 273:.\Generated_Source\PSoC5/USB_std.c ****                 switch (CY_GET_REG8(USB_bmRequestType) & USB_RQST_RCPT_MASK)
 448              		.loc 1 273 0
 449 03aa 4FF4C043 		mov	r3, #24576
 450 03ae C4F20003 		movt	r3, 16384
 451 03b2 1B78     		ldrb	r3, [r3, #0]
 452 03b4 DBB2     		uxtb	r3, r3
 453 03b6 03F00303 		and	r3, r3, #3
 454 03ba 012B     		cmp	r3, #1
ARM GAS  C:\Users\makij\AppData\Local\Temp\ccAkhLin.s 			page 14


 455 03bc 2BD0     		beq	.L33
 456 03be 012B     		cmp	r3, #1
 457 03c0 0ED3     		bcc	.L32
 458 03c2 022B     		cmp	r3, #2
 459 03c4 52D1     		bne	.L49
 460              	.L34:
 274:.\Generated_Source\PSoC5/USB_std.c ****                 {
 275:.\Generated_Source\PSoC5/USB_std.c ****                     case USB_RQST_RCPT_EP:
 276:.\Generated_Source\PSoC5/USB_std.c ****                         if (CY_GET_REG8(USB_wValueLo) == USB_ENDPOINT_HALT)
 461              		.loc 1 276 0
 462 03c6 46F20203 		movw	r3, #24578
 463 03ca C4F20003 		movt	r3, 16384
 464 03ce 1B78     		ldrb	r3, [r3, #0]
 465 03d0 DBB2     		uxtb	r3, r3
 466 03d2 002B     		cmp	r3, #0
 467 03d4 4BD1     		bne	.L56
 277:.\Generated_Source\PSoC5/USB_std.c ****                         {
 278:.\Generated_Source\PSoC5/USB_std.c ****                             requestHandled = USB_ClearEndpointHalt();
 468              		.loc 1 278 0
 469 03d6 FFF7FEFF 		bl	USB_ClearEndpointHalt
 470 03da 0346     		mov	r3, r0
 471 03dc FB73     		strb	r3, [r7, #15]
 279:.\Generated_Source\PSoC5/USB_std.c ****                         }
 280:.\Generated_Source\PSoC5/USB_std.c ****                         break;
 472              		.loc 1 280 0
 473 03de 46E0     		b	.L56
 474              	.L32:
 281:.\Generated_Source\PSoC5/USB_std.c ****                     case USB_RQST_RCPT_DEV:
 282:.\Generated_Source\PSoC5/USB_std.c ****                         /* Clear device REMOTE_WAKEUP */
 283:.\Generated_Source\PSoC5/USB_std.c ****                         if (CY_GET_REG8(USB_wValueLo) == USB_DEVICE_REMOTE_WAKEUP)
 475              		.loc 1 283 0
 476 03e0 46F20203 		movw	r3, #24578
 477 03e4 C4F20003 		movt	r3, 16384
 478 03e8 1B78     		ldrb	r3, [r3, #0]
 479 03ea DBB2     		uxtb	r3, r3
 480 03ec 012B     		cmp	r3, #1
 481 03ee 40D1     		bne	.L57
 284:.\Generated_Source\PSoC5/USB_std.c ****                         {
 285:.\Generated_Source\PSoC5/USB_std.c ****                             USB_deviceStatus &= (uint8)~USB_DEVICE_STATUS_REMOTE_WAKEUP;
 482              		.loc 1 285 0
 483 03f0 40F20003 		movw	r3, #:lower16:USB_deviceStatus
 484 03f4 C0F20003 		movt	r3, #:upper16:USB_deviceStatus
 485 03f8 1B78     		ldrb	r3, [r3, #0]
 486 03fa DBB2     		uxtb	r3, r3
 487 03fc 23F00203 		bic	r3, r3, #2
 488 0400 DAB2     		uxtb	r2, r3
 489 0402 40F20003 		movw	r3, #:lower16:USB_deviceStatus
 490 0406 C0F20003 		movt	r3, #:upper16:USB_deviceStatus
 491 040a 1A70     		strb	r2, [r3, #0]
 286:.\Generated_Source\PSoC5/USB_std.c ****                             requestHandled = USB_InitNoDataControlTransfer();
 492              		.loc 1 286 0
 493 040c FFF7FEFF 		bl	USB_InitNoDataControlTransfer
 494 0410 0346     		mov	r3, r0
 495 0412 FB73     		strb	r3, [r7, #15]
 287:.\Generated_Source\PSoC5/USB_std.c ****                         }
 288:.\Generated_Source\PSoC5/USB_std.c ****                         break;
 496              		.loc 1 288 0
ARM GAS  C:\Users\makij\AppData\Local\Temp\ccAkhLin.s 			page 15


 497 0414 2DE0     		b	.L57
 498              	.L33:
 289:.\Generated_Source\PSoC5/USB_std.c ****                     case USB_RQST_RCPT_IFC:
 290:.\Generated_Source\PSoC5/USB_std.c ****                         /* Validate interfaceNumber */
 291:.\Generated_Source\PSoC5/USB_std.c ****                         if (CY_GET_REG8(USB_wIndexLo) < USB_MAX_INTERFACES_NUMBER)
 499              		.loc 1 291 0
 500 0416 46F20403 		movw	r3, #24580
 501 041a C4F20003 		movt	r3, 16384
 502 041e 1B78     		ldrb	r3, [r3, #0]
 503 0420 DBB2     		uxtb	r3, r3
 504 0422 002B     		cmp	r3, #0
 505 0424 27D1     		bne	.L58
 292:.\Generated_Source\PSoC5/USB_std.c ****                         {
 293:.\Generated_Source\PSoC5/USB_std.c ****                             USB_interfaceStatus[CY_GET_REG8(USB_wIndexLo)] &=
 506              		.loc 1 293 0
 507 0426 46F20403 		movw	r3, #24580
 508 042a C4F20003 		movt	r3, 16384
 509 042e 1B78     		ldrb	r3, [r3, #0]
 510 0430 DBB2     		uxtb	r3, r3
 511 0432 1A46     		mov	r2, r3
 512 0434 1946     		mov	r1, r3
 513 0436 40F20003 		movw	r3, #:lower16:USB_interfaceStatus
 514 043a C0F20003 		movt	r3, #:upper16:USB_interfaceStatus
 515 043e 5B5C     		ldrb	r3, [r3, r1]
 516 0440 D9B2     		uxtb	r1, r3
 294:.\Generated_Source\PSoC5/USB_std.c ****                                                                 (uint8)~(CY_GET_REG8(USB_wValueLo))
 517              		.loc 1 294 0
 518 0442 46F20203 		movw	r3, #24578
 519 0446 C4F20003 		movt	r3, 16384
 520 044a 1B78     		ldrb	r3, [r3, #0]
 521 044c DBB2     		uxtb	r3, r3
 522 044e 6FEA0303 		mvn	r3, r3
 523 0452 DBB2     		uxtb	r3, r3
 293:.\Generated_Source\PSoC5/USB_std.c ****                             USB_interfaceStatus[CY_GET_REG8(USB_wIndexLo)] &=
 524              		.loc 1 293 0
 525 0454 0B40     		ands	r3, r3, r1
 526 0456 D9B2     		uxtb	r1, r3
 527 0458 40F20003 		movw	r3, #:lower16:USB_interfaceStatus
 528 045c C0F20003 		movt	r3, #:upper16:USB_interfaceStatus
 529 0460 9954     		strb	r1, [r3, r2]
 295:.\Generated_Source\PSoC5/USB_std.c ****                             requestHandled = USB_InitNoDataControlTransfer();
 530              		.loc 1 295 0
 531 0462 FFF7FEFF 		bl	USB_InitNoDataControlTransfer
 532 0466 0346     		mov	r3, r0
 533 0468 FB73     		strb	r3, [r7, #15]
 296:.\Generated_Source\PSoC5/USB_std.c ****                         }
 297:.\Generated_Source\PSoC5/USB_std.c ****                         break;
 534              		.loc 1 297 0
 535 046a 04E0     		b	.L58
 536              	.L49:
 298:.\Generated_Source\PSoC5/USB_std.c ****                     default:    /* requestHandled is initialized as FALSE by default */
 299:.\Generated_Source\PSoC5/USB_std.c ****                         break;
 537              		.loc 1 299 0
 538 046c 04E0     		b	.L36
 539              	.L56:
 280:.\Generated_Source\PSoC5/USB_std.c ****                         break;
 540              		.loc 1 280 0
ARM GAS  C:\Users\makij\AppData\Local\Temp\ccAkhLin.s 			page 16


 541 046e 00BF     		nop
 542 0470 02E0     		b	.L36
 543              	.L57:
 288:.\Generated_Source\PSoC5/USB_std.c ****                         break;
 544              		.loc 1 288 0
 545 0472 00BF     		nop
 546 0474 00E0     		b	.L36
 547              	.L58:
 297:.\Generated_Source\PSoC5/USB_std.c ****                         break;
 548              		.loc 1 297 0
 549 0476 00BF     		nop
 550              	.L36:
 300:.\Generated_Source\PSoC5/USB_std.c ****                 }
 301:.\Generated_Source\PSoC5/USB_std.c ****                 break;
 551              		.loc 1 301 0
 552 0478 70E0     		b	.L17
 553              	.L20:
 302:.\Generated_Source\PSoC5/USB_std.c ****             case USB_SET_FEATURE:
 303:.\Generated_Source\PSoC5/USB_std.c ****                 switch (CY_GET_REG8(USB_bmRequestType) & USB_RQST_RCPT_MASK)
 554              		.loc 1 303 0
 555 047a 4FF4C043 		mov	r3, #24576
 556 047e C4F20003 		movt	r3, 16384
 557 0482 1B78     		ldrb	r3, [r3, #0]
 558 0484 DBB2     		uxtb	r3, r3
 559 0486 03F00303 		and	r3, r3, #3
 560 048a 012B     		cmp	r3, #1
 561 048c 2BD0     		beq	.L41
 562 048e 012B     		cmp	r3, #1
 563 0490 0ED3     		bcc	.L40
 564 0492 022B     		cmp	r3, #2
 565 0494 52D1     		bne	.L50
 566              	.L42:
 304:.\Generated_Source\PSoC5/USB_std.c ****                 {
 305:.\Generated_Source\PSoC5/USB_std.c ****                     case USB_RQST_RCPT_EP:
 306:.\Generated_Source\PSoC5/USB_std.c ****                         if (CY_GET_REG8(USB_wValueLo) == USB_ENDPOINT_HALT)
 567              		.loc 1 306 0
 568 0496 46F20203 		movw	r3, #24578
 569 049a C4F20003 		movt	r3, 16384
 570 049e 1B78     		ldrb	r3, [r3, #0]
 571 04a0 DBB2     		uxtb	r3, r3
 572 04a2 002B     		cmp	r3, #0
 573 04a4 4BD1     		bne	.L59
 307:.\Generated_Source\PSoC5/USB_std.c ****                         {
 308:.\Generated_Source\PSoC5/USB_std.c ****                             requestHandled = USB_SetEndpointHalt();
 574              		.loc 1 308 0
 575 04a6 FFF7FEFF 		bl	USB_SetEndpointHalt
 576 04aa 0346     		mov	r3, r0
 577 04ac FB73     		strb	r3, [r7, #15]
 309:.\Generated_Source\PSoC5/USB_std.c ****                         }
 310:.\Generated_Source\PSoC5/USB_std.c ****                         break;
 578              		.loc 1 310 0
 579 04ae 46E0     		b	.L59
 580              	.L40:
 311:.\Generated_Source\PSoC5/USB_std.c ****                     case USB_RQST_RCPT_DEV:
 312:.\Generated_Source\PSoC5/USB_std.c ****                         /* Set device REMOTE_WAKEUP */
 313:.\Generated_Source\PSoC5/USB_std.c ****                         if (CY_GET_REG8(USB_wValueLo) == USB_DEVICE_REMOTE_WAKEUP)
 581              		.loc 1 313 0
ARM GAS  C:\Users\makij\AppData\Local\Temp\ccAkhLin.s 			page 17


 582 04b0 46F20203 		movw	r3, #24578
 583 04b4 C4F20003 		movt	r3, 16384
 584 04b8 1B78     		ldrb	r3, [r3, #0]
 585 04ba DBB2     		uxtb	r3, r3
 586 04bc 012B     		cmp	r3, #1
 587 04be 40D1     		bne	.L60
 314:.\Generated_Source\PSoC5/USB_std.c ****                         {
 315:.\Generated_Source\PSoC5/USB_std.c ****                             USB_deviceStatus |= USB_DEVICE_STATUS_REMOTE_WAKEUP;
 588              		.loc 1 315 0
 589 04c0 40F20003 		movw	r3, #:lower16:USB_deviceStatus
 590 04c4 C0F20003 		movt	r3, #:upper16:USB_deviceStatus
 591 04c8 1B78     		ldrb	r3, [r3, #0]
 592 04ca DBB2     		uxtb	r3, r3
 593 04cc 43F00203 		orr	r3, r3, #2
 594 04d0 DAB2     		uxtb	r2, r3
 595 04d2 40F20003 		movw	r3, #:lower16:USB_deviceStatus
 596 04d6 C0F20003 		movt	r3, #:upper16:USB_deviceStatus
 597 04da 1A70     		strb	r2, [r3, #0]
 316:.\Generated_Source\PSoC5/USB_std.c ****                             requestHandled = USB_InitNoDataControlTransfer();
 598              		.loc 1 316 0
 599 04dc FFF7FEFF 		bl	USB_InitNoDataControlTransfer
 600 04e0 0346     		mov	r3, r0
 601 04e2 FB73     		strb	r3, [r7, #15]
 317:.\Generated_Source\PSoC5/USB_std.c ****                         }
 318:.\Generated_Source\PSoC5/USB_std.c ****                         break;
 602              		.loc 1 318 0
 603 04e4 2DE0     		b	.L60
 604              	.L41:
 319:.\Generated_Source\PSoC5/USB_std.c ****                     case USB_RQST_RCPT_IFC:
 320:.\Generated_Source\PSoC5/USB_std.c ****                         /* Validate interfaceNumber */
 321:.\Generated_Source\PSoC5/USB_std.c ****                         if (CY_GET_REG8(USB_wIndexLo) < USB_MAX_INTERFACES_NUMBER)
 605              		.loc 1 321 0
 606 04e6 46F20403 		movw	r3, #24580
 607 04ea C4F20003 		movt	r3, 16384
 608 04ee 1B78     		ldrb	r3, [r3, #0]
 609 04f0 DBB2     		uxtb	r3, r3
 610 04f2 002B     		cmp	r3, #0
 611 04f4 27D1     		bne	.L61
 322:.\Generated_Source\PSoC5/USB_std.c ****                         {
 323:.\Generated_Source\PSoC5/USB_std.c ****                             USB_interfaceStatus[CY_GET_REG8(USB_wIndexLo)] &=
 612              		.loc 1 323 0
 613 04f6 46F20403 		movw	r3, #24580
 614 04fa C4F20003 		movt	r3, 16384
 615 04fe 1B78     		ldrb	r3, [r3, #0]
 616 0500 DBB2     		uxtb	r3, r3
 617 0502 1A46     		mov	r2, r3
 618 0504 1946     		mov	r1, r3
 619 0506 40F20003 		movw	r3, #:lower16:USB_interfaceStatus
 620 050a C0F20003 		movt	r3, #:upper16:USB_interfaceStatus
 621 050e 5B5C     		ldrb	r3, [r3, r1]
 622 0510 D9B2     		uxtb	r1, r3
 324:.\Generated_Source\PSoC5/USB_std.c ****                                                                 (uint8)~(CY_GET_REG8(USB_wValueLo))
 623              		.loc 1 324 0
 624 0512 46F20203 		movw	r3, #24578
 625 0516 C4F20003 		movt	r3, 16384
 626 051a 1B78     		ldrb	r3, [r3, #0]
 627 051c DBB2     		uxtb	r3, r3
ARM GAS  C:\Users\makij\AppData\Local\Temp\ccAkhLin.s 			page 18


 628 051e 6FEA0303 		mvn	r3, r3
 629 0522 DBB2     		uxtb	r3, r3
 323:.\Generated_Source\PSoC5/USB_std.c ****                             USB_interfaceStatus[CY_GET_REG8(USB_wIndexLo)] &=
 630              		.loc 1 323 0
 631 0524 0B40     		ands	r3, r3, r1
 632 0526 D9B2     		uxtb	r1, r3
 633 0528 40F20003 		movw	r3, #:lower16:USB_interfaceStatus
 634 052c C0F20003 		movt	r3, #:upper16:USB_interfaceStatus
 635 0530 9954     		strb	r1, [r3, r2]
 325:.\Generated_Source\PSoC5/USB_std.c ****                             requestHandled = USB_InitNoDataControlTransfer();
 636              		.loc 1 325 0
 637 0532 FFF7FEFF 		bl	USB_InitNoDataControlTransfer
 638 0536 0346     		mov	r3, r0
 639 0538 FB73     		strb	r3, [r7, #15]
 326:.\Generated_Source\PSoC5/USB_std.c ****                         }
 327:.\Generated_Source\PSoC5/USB_std.c ****                         break;
 640              		.loc 1 327 0
 641 053a 04E0     		b	.L61
 642              	.L50:
 328:.\Generated_Source\PSoC5/USB_std.c ****                     default:    /* requestHandled is initialized as FALSE by default */
 329:.\Generated_Source\PSoC5/USB_std.c ****                         break;
 643              		.loc 1 329 0
 644 053c 04E0     		b	.L44
 645              	.L59:
 310:.\Generated_Source\PSoC5/USB_std.c ****                         break;
 646              		.loc 1 310 0
 647 053e 00BF     		nop
 648 0540 02E0     		b	.L44
 649              	.L60:
 318:.\Generated_Source\PSoC5/USB_std.c ****                         break;
 650              		.loc 1 318 0
 651 0542 00BF     		nop
 652 0544 00E0     		b	.L44
 653              	.L61:
 327:.\Generated_Source\PSoC5/USB_std.c ****                         break;
 654              		.loc 1 327 0
 655 0546 00BF     		nop
 656              	.L44:
 330:.\Generated_Source\PSoC5/USB_std.c ****                 }
 331:.\Generated_Source\PSoC5/USB_std.c ****                 break;
 657              		.loc 1 331 0
 658 0548 08E0     		b	.L17
 659              	.L51:
 224:.\Generated_Source\PSoC5/USB_std.c ****                 break;
 660              		.loc 1 224 0
 661 054a 00BF     		nop
 662 054c 06E0     		b	.L17
 663              	.L52:
 189:.\Generated_Source\PSoC5/USB_std.c ****                 break;
 664              		.loc 1 189 0
 665 054e 00BF     		nop
 666 0550 04E0     		b	.L17
 667              	.L53:
 332:.\Generated_Source\PSoC5/USB_std.c ****             default:    /* requestHandled is initialized as FALSE by default */
 333:.\Generated_Source\PSoC5/USB_std.c ****                 break;
 668              		.loc 1 333 0
 669 0552 00BF     		nop
ARM GAS  C:\Users\makij\AppData\Local\Temp\ccAkhLin.s 			page 19


 670 0554 02E0     		b	.L17
 671              	.L54:
 253:.\Generated_Source\PSoC5/USB_std.c ****                 break;
 672              		.loc 1 253 0
 673 0556 00BF     		nop
 674 0558 00E0     		b	.L17
 675              	.L55:
 271:.\Generated_Source\PSoC5/USB_std.c ****                 break;
 676              		.loc 1 271 0
 677 055a 00BF     		nop
 678              	.L17:
 334:.\Generated_Source\PSoC5/USB_std.c ****         }
 335:.\Generated_Source\PSoC5/USB_std.c ****     }
 336:.\Generated_Source\PSoC5/USB_std.c ****     return(requestHandled);
 679              		.loc 1 336 0
 680 055c FB7B     		ldrb	r3, [r7, #15]	@ zero_extendqisi2
 337:.\Generated_Source\PSoC5/USB_std.c **** }
 681              		.loc 1 337 0
 682 055e 1846     		mov	r0, r3
 683 0560 07F11007 		add	r7, r7, #16
 684 0564 BD46     		mov	sp, r7
 685 0566 80BD     		pop	{r7, pc}
 686              		.cfi_endproc
 687              	.LFE0:
 688              		.size	USB_HandleStandardRqst, .-USB_HandleStandardRqst
 689              		.section	.text.USB_ConfigReg,"ax",%progbits
 690              		.align	2
 691              		.global	USB_ConfigReg
 692              		.thumb
 693              		.thumb_func
 694              		.type	USB_ConfigReg, %function
 695              	USB_ConfigReg:
 696              	.LFB1:
 338:.\Generated_Source\PSoC5/USB_std.c **** 
 339:.\Generated_Source\PSoC5/USB_std.c **** 
 340:.\Generated_Source\PSoC5/USB_std.c **** #if defined(USB_ENABLE_IDSN_STRING)
 341:.\Generated_Source\PSoC5/USB_std.c **** 
 342:.\Generated_Source\PSoC5/USB_std.c ****     /***************************************************************************
 343:.\Generated_Source\PSoC5/USB_std.c ****     * Function Name: USB_ReadDieID
 344:.\Generated_Source\PSoC5/USB_std.c ****     ****************************************************************************
 345:.\Generated_Source\PSoC5/USB_std.c ****     *
 346:.\Generated_Source\PSoC5/USB_std.c ****     * Summary:
 347:.\Generated_Source\PSoC5/USB_std.c ****     *  This routine read Die ID and generate Serial Number string descriptor.
 348:.\Generated_Source\PSoC5/USB_std.c ****     *
 349:.\Generated_Source\PSoC5/USB_std.c ****     * Parameters:
 350:.\Generated_Source\PSoC5/USB_std.c ****     *  descr:  pointer on string descriptor.
 351:.\Generated_Source\PSoC5/USB_std.c ****     *
 352:.\Generated_Source\PSoC5/USB_std.c ****     * Return:
 353:.\Generated_Source\PSoC5/USB_std.c ****     *  None.
 354:.\Generated_Source\PSoC5/USB_std.c ****     *
 355:.\Generated_Source\PSoC5/USB_std.c ****     * Reentrant:
 356:.\Generated_Source\PSoC5/USB_std.c ****     *  No.
 357:.\Generated_Source\PSoC5/USB_std.c ****     *
 358:.\Generated_Source\PSoC5/USB_std.c ****     ***************************************************************************/
 359:.\Generated_Source\PSoC5/USB_std.c ****     void USB_ReadDieID(uint8 descr[]) 
 360:.\Generated_Source\PSoC5/USB_std.c ****     {
 361:.\Generated_Source\PSoC5/USB_std.c ****         uint8 i;
ARM GAS  C:\Users\makij\AppData\Local\Temp\ccAkhLin.s 			page 20


 362:.\Generated_Source\PSoC5/USB_std.c ****         uint8 j = 0u;
 363:.\Generated_Source\PSoC5/USB_std.c ****         uint8 value;
 364:.\Generated_Source\PSoC5/USB_std.c ****         const char8 CYCODE hex[16u] = "0123456789ABCDEF";
 365:.\Generated_Source\PSoC5/USB_std.c **** 
 366:.\Generated_Source\PSoC5/USB_std.c ****         /* Check descriptor validation */
 367:.\Generated_Source\PSoC5/USB_std.c ****         if( descr != NULL)
 368:.\Generated_Source\PSoC5/USB_std.c ****         {
 369:.\Generated_Source\PSoC5/USB_std.c ****             descr[0u] = USB_IDSN_DESCR_LENGTH;
 370:.\Generated_Source\PSoC5/USB_std.c ****             descr[1u] = USB_DESCR_STRING;
 371:.\Generated_Source\PSoC5/USB_std.c **** 
 372:.\Generated_Source\PSoC5/USB_std.c ****             /* fill descriptor */
 373:.\Generated_Source\PSoC5/USB_std.c ****             for(i = 2u; i < USB_IDSN_DESCR_LENGTH; i += 4u)
 374:.\Generated_Source\PSoC5/USB_std.c ****             {
 375:.\Generated_Source\PSoC5/USB_std.c ****                 value = CY_GET_XTND_REG8((void CYFAR *)(USB_DIE_ID + j));
 376:.\Generated_Source\PSoC5/USB_std.c ****                 j++;
 377:.\Generated_Source\PSoC5/USB_std.c ****                 descr[i] = (uint8)hex[value >> 4u];
 378:.\Generated_Source\PSoC5/USB_std.c ****                 descr[i + 2u] = (uint8)hex[value & 0x0Fu];
 379:.\Generated_Source\PSoC5/USB_std.c ****             }
 380:.\Generated_Source\PSoC5/USB_std.c ****         }
 381:.\Generated_Source\PSoC5/USB_std.c ****     }
 382:.\Generated_Source\PSoC5/USB_std.c **** 
 383:.\Generated_Source\PSoC5/USB_std.c **** #endif /*  USB_ENABLE_IDSN_STRING */
 384:.\Generated_Source\PSoC5/USB_std.c **** 
 385:.\Generated_Source\PSoC5/USB_std.c **** 
 386:.\Generated_Source\PSoC5/USB_std.c **** /*******************************************************************************
 387:.\Generated_Source\PSoC5/USB_std.c **** * Function Name: USB_ConfigReg
 388:.\Generated_Source\PSoC5/USB_std.c **** ********************************************************************************
 389:.\Generated_Source\PSoC5/USB_std.c **** *
 390:.\Generated_Source\PSoC5/USB_std.c **** * Summary:
 391:.\Generated_Source\PSoC5/USB_std.c **** *  This routine configures hardware registers from the variables.
 392:.\Generated_Source\PSoC5/USB_std.c **** *  It is called from USB_Config() function and from RestoreConfig
 393:.\Generated_Source\PSoC5/USB_std.c **** *  after Wakeup.
 394:.\Generated_Source\PSoC5/USB_std.c **** *
 395:.\Generated_Source\PSoC5/USB_std.c **** * Parameters:
 396:.\Generated_Source\PSoC5/USB_std.c **** *  None.
 397:.\Generated_Source\PSoC5/USB_std.c **** *
 398:.\Generated_Source\PSoC5/USB_std.c **** * Return:
 399:.\Generated_Source\PSoC5/USB_std.c **** *  None.
 400:.\Generated_Source\PSoC5/USB_std.c **** *
 401:.\Generated_Source\PSoC5/USB_std.c **** *******************************************************************************/
 402:.\Generated_Source\PSoC5/USB_std.c **** void USB_ConfigReg(void) 
 403:.\Generated_Source\PSoC5/USB_std.c **** {
 697              		.loc 1 403 0
 698              		.cfi_startproc
 699              		@ args = 0, pretend = 0, frame = 8
 700              		@ frame_needed = 1, uses_anonymous_args = 0
 701              		@ link register save eliminated.
 702 0000 80B4     		push	{r7}
 703              	.LCFI3:
 704              		.cfi_def_cfa_offset 4
 705              		.cfi_offset 7, -4
 706 0002 83B0     		sub	sp, sp, #12
 707              	.LCFI4:
 708              		.cfi_def_cfa_offset 16
 709 0004 00AF     		add	r7, sp, #0
 710              	.LCFI5:
 711              		.cfi_def_cfa_register 7
ARM GAS  C:\Users\makij\AppData\Local\Temp\ccAkhLin.s 			page 21


 404:.\Generated_Source\PSoC5/USB_std.c ****     uint8 ep;
 405:.\Generated_Source\PSoC5/USB_std.c ****     uint8 i;
 406:.\Generated_Source\PSoC5/USB_std.c ****     #if(USB_EP_MM == USB__EP_DMAAUTO)
 407:.\Generated_Source\PSoC5/USB_std.c ****         uint8 epType = 0u;
 408:.\Generated_Source\PSoC5/USB_std.c ****     #endif /*  USB_EP_MM == USB__EP_DMAAUTO */
 409:.\Generated_Source\PSoC5/USB_std.c **** 
 410:.\Generated_Source\PSoC5/USB_std.c ****     /* Set the endpoint buffer addresses */
 411:.\Generated_Source\PSoC5/USB_std.c ****     ep = USB_EP1;
 712              		.loc 1 411 0
 713 0006 4FF00103 		mov	r3, #1
 714 000a FB71     		strb	r3, [r7, #7]
 412:.\Generated_Source\PSoC5/USB_std.c ****     for (i = 0u; i < 0x80u; i+= 0x10u)
 715              		.loc 1 412 0
 716 000c 4FF00003 		mov	r3, #0
 717 0010 BB71     		strb	r3, [r7, #6]
 718 0012 E5E0     		b	.L63
 719              	.L67:
 413:.\Generated_Source\PSoC5/USB_std.c ****     {
 414:.\Generated_Source\PSoC5/USB_std.c ****         CY_SET_REG8((reg8 *)(USB_ARB_EP1_CFG_IND + i), USB_ARB_EPX_CFG_DEFAULT);
 720              		.loc 1 414 0
 721 0014 BB79     		ldrb	r3, [r7, #6]	@ zero_extendqisi2
 722 0016 03F18043 		add	r3, r3, #1073741824
 723 001a 03F5C143 		add	r3, r3, #24704
 724 001e 4FF00C02 		mov	r2, #12
 725 0022 1A70     		strb	r2, [r3, #0]
 415:.\Generated_Source\PSoC5/USB_std.c ****         #if(USB_EP_MM != USB__EP_MANUAL)
 416:.\Generated_Source\PSoC5/USB_std.c ****             /* Enable all Arbiter EP Interrupts : err, buf under, buf over, dma gnt(mode2 only), in
 417:.\Generated_Source\PSoC5/USB_std.c ****             CY_SET_REG8((reg8 *)(USB_ARB_EP1_INT_EN_IND + i), USB_ARB_EPX_INT_MASK);
 418:.\Generated_Source\PSoC5/USB_std.c ****         #endif   /*  USB_EP_MM != USB__EP_MANUAL */
 419:.\Generated_Source\PSoC5/USB_std.c **** 
 420:.\Generated_Source\PSoC5/USB_std.c ****         if(USB_EP[ep].epMode != USB_MODE_DISABLE)
 726              		.loc 1 420 0
 727 0024 F979     		ldrb	r1, [r7, #7]	@ zero_extendqisi2
 728 0026 40F20002 		movw	r2, #:lower16:USB_EP
 729 002a C0F20002 		movt	r2, #:upper16:USB_EP
 730 002e 0B46     		mov	r3, r1
 731 0030 4FEA4303 		lsl	r3, r3, #1
 732 0034 5B18     		adds	r3, r3, r1
 733 0036 4FEA8303 		lsl	r3, r3, #2
 734 003a D318     		adds	r3, r2, r3
 735 003c 5B79     		ldrb	r3, [r3, #5]
 736 003e DBB2     		uxtb	r3, r3
 737 0040 002B     		cmp	r3, #0
 738 0042 25D0     		beq	.L64
 421:.\Generated_Source\PSoC5/USB_std.c ****         {
 422:.\Generated_Source\PSoC5/USB_std.c ****             if((USB_EP[ep].addr & USB_DIR_IN) != 0u )
 739              		.loc 1 422 0
 740 0044 F979     		ldrb	r1, [r7, #7]	@ zero_extendqisi2
 741 0046 40F20002 		movw	r2, #:lower16:USB_EP
 742 004a C0F20002 		movt	r2, #:upper16:USB_EP
 743 004e 0B46     		mov	r3, r1
 744 0050 4FEA4303 		lsl	r3, r3, #1
 745 0054 5B18     		adds	r3, r3, r1
 746 0056 4FEA8303 		lsl	r3, r3, #2
 747 005a D318     		adds	r3, r2, r3
 748 005c 1B79     		ldrb	r3, [r3, #4]
 749 005e DBB2     		uxtb	r3, r3
ARM GAS  C:\Users\makij\AppData\Local\Temp\ccAkhLin.s 			page 22


 750 0060 DBB2     		uxtb	r3, r3
 751 0062 5BB2     		sxtb	r3, r3
 752 0064 002B     		cmp	r3, #0
 753 0066 09DA     		bge	.L65
 423:.\Generated_Source\PSoC5/USB_std.c ****             {
 424:.\Generated_Source\PSoC5/USB_std.c ****                 CY_SET_REG8((reg8 *)(USB_SIE_EP1_CR0_IND + i), USB_MODE_NAK_IN);
 754              		.loc 1 424 0
 755 0068 BA79     		ldrb	r2, [r7, #6]	@ zero_extendqisi2
 756 006a 46F20E03 		movw	r3, #24590
 757 006e C4F20003 		movt	r3, 16384
 758 0072 D318     		adds	r3, r2, r3
 759 0074 4FF00C02 		mov	r2, #12
 760 0078 1A70     		strb	r2, [r3, #0]
 761 007a 12E0     		b	.L66
 762              	.L65:
 425:.\Generated_Source\PSoC5/USB_std.c ****             }
 426:.\Generated_Source\PSoC5/USB_std.c ****             else
 427:.\Generated_Source\PSoC5/USB_std.c ****             {
 428:.\Generated_Source\PSoC5/USB_std.c ****                 CY_SET_REG8((reg8 *)(USB_SIE_EP1_CR0_IND + i), USB_MODE_NAK_OUT);
 763              		.loc 1 428 0
 764 007c BA79     		ldrb	r2, [r7, #6]	@ zero_extendqisi2
 765 007e 46F20E03 		movw	r3, #24590
 766 0082 C4F20003 		movt	r3, 16384
 767 0086 D318     		adds	r3, r2, r3
 768 0088 4FF00802 		mov	r2, #8
 769 008c 1A70     		strb	r2, [r3, #0]
 770 008e 08E0     		b	.L66
 771              	.L64:
 429:.\Generated_Source\PSoC5/USB_std.c ****                 /* Prepare EP type mask for automatic memory allocation */
 430:.\Generated_Source\PSoC5/USB_std.c ****                 #if(USB_EP_MM == USB__EP_DMAAUTO)
 431:.\Generated_Source\PSoC5/USB_std.c ****                     epType |= (uint8)(0x01u << (ep - USB_EP1));
 432:.\Generated_Source\PSoC5/USB_std.c ****                 #endif /*  USB_EP_MM == USB__EP_DMAAUTO */
 433:.\Generated_Source\PSoC5/USB_std.c ****             }
 434:.\Generated_Source\PSoC5/USB_std.c ****         }
 435:.\Generated_Source\PSoC5/USB_std.c ****         else
 436:.\Generated_Source\PSoC5/USB_std.c ****         {
 437:.\Generated_Source\PSoC5/USB_std.c ****             CY_SET_REG8((reg8 *)(USB_SIE_EP1_CR0_IND + i), USB_MODE_STALL_DATA_EP);
 772              		.loc 1 437 0
 773 0090 BA79     		ldrb	r2, [r7, #6]	@ zero_extendqisi2
 774 0092 46F20E03 		movw	r3, #24590
 775 0096 C4F20003 		movt	r3, 16384
 776 009a D318     		adds	r3, r2, r3
 777 009c 4FF08002 		mov	r2, #128
 778 00a0 1A70     		strb	r2, [r3, #0]
 779              	.L66:
 438:.\Generated_Source\PSoC5/USB_std.c ****         }
 439:.\Generated_Source\PSoC5/USB_std.c **** 
 440:.\Generated_Source\PSoC5/USB_std.c ****         #if(USB_EP_MM != USB__EP_DMAAUTO)
 441:.\Generated_Source\PSoC5/USB_std.c ****             CY_SET_REG8((reg8 *)(USB_SIE_EP1_CNT0_IND + i),   USB_EP[ep].bufferSize >> 8u);
 780              		.loc 1 441 0
 781 00a2 BA79     		ldrb	r2, [r7, #6]	@ zero_extendqisi2
 782 00a4 46F20C03 		movw	r3, #24588
 783 00a8 C4F20003 		movt	r3, 16384
 784 00ac D318     		adds	r3, r2, r3
 785 00ae 1846     		mov	r0, r3
 786 00b0 F979     		ldrb	r1, [r7, #7]	@ zero_extendqisi2
 787 00b2 40F20002 		movw	r2, #:lower16:USB_EP
ARM GAS  C:\Users\makij\AppData\Local\Temp\ccAkhLin.s 			page 23


 788 00b6 C0F20002 		movt	r2, #:upper16:USB_EP
 789 00ba 0B46     		mov	r3, r1
 790 00bc 4FEA4303 		lsl	r3, r3, #1
 791 00c0 5B18     		adds	r3, r3, r1
 792 00c2 4FEA8303 		lsl	r3, r3, #2
 793 00c6 D318     		adds	r3, r2, r3
 794 00c8 03F10803 		add	r3, r3, #8
 795 00cc 1B88     		ldrh	r3, [r3, #0]	@ movhi
 796 00ce 9BB2     		uxth	r3, r3
 797 00d0 4FEA1323 		lsr	r3, r3, #8
 798 00d4 9BB2     		uxth	r3, r3
 799 00d6 DBB2     		uxtb	r3, r3
 800 00d8 0370     		strb	r3, [r0, #0]
 442:.\Generated_Source\PSoC5/USB_std.c ****             CY_SET_REG8((reg8 *)(USB_SIE_EP1_CNT1_IND + i),   USB_EP[ep].bufferSize & 0xFFu);
 801              		.loc 1 442 0
 802 00da BA79     		ldrb	r2, [r7, #6]	@ zero_extendqisi2
 803 00dc 46F20D03 		movw	r3, #24589
 804 00e0 C4F20003 		movt	r3, 16384
 805 00e4 D318     		adds	r3, r2, r3
 806 00e6 1846     		mov	r0, r3
 807 00e8 F979     		ldrb	r1, [r7, #7]	@ zero_extendqisi2
 808 00ea 40F20002 		movw	r2, #:lower16:USB_EP
 809 00ee C0F20002 		movt	r2, #:upper16:USB_EP
 810 00f2 0B46     		mov	r3, r1
 811 00f4 4FEA4303 		lsl	r3, r3, #1
 812 00f8 5B18     		adds	r3, r3, r1
 813 00fa 4FEA8303 		lsl	r3, r3, #2
 814 00fe D318     		adds	r3, r2, r3
 815 0100 03F10803 		add	r3, r3, #8
 816 0104 1B88     		ldrh	r3, [r3, #0]	@ movhi
 817 0106 9BB2     		uxth	r3, r3
 818 0108 DBB2     		uxtb	r3, r3
 819 010a 0370     		strb	r3, [r0, #0]
 443:.\Generated_Source\PSoC5/USB_std.c **** 
 444:.\Generated_Source\PSoC5/USB_std.c ****             CY_SET_REG8((reg8 *)(USB_ARB_RW1_RA_IND + i),     USB_EP[ep].buffOffset & 0xFFu);
 820              		.loc 1 444 0
 821 010c BA79     		ldrb	r2, [r7, #6]	@ zero_extendqisi2
 822 010e 46F28603 		movw	r3, #24710
 823 0112 C4F20003 		movt	r3, 16384
 824 0116 D318     		adds	r3, r2, r3
 825 0118 1846     		mov	r0, r3
 826 011a F979     		ldrb	r1, [r7, #7]	@ zero_extendqisi2
 827 011c 40F20002 		movw	r2, #:lower16:USB_EP
 828 0120 C0F20002 		movt	r2, #:upper16:USB_EP
 829 0124 0B46     		mov	r3, r1
 830 0126 4FEA4303 		lsl	r3, r3, #1
 831 012a 5B18     		adds	r3, r3, r1
 832 012c 4FEA8303 		lsl	r3, r3, #2
 833 0130 D318     		adds	r3, r2, r3
 834 0132 DB88     		ldrh	r3, [r3, #6]	@ movhi
 835 0134 9BB2     		uxth	r3, r3
 836 0136 DBB2     		uxtb	r3, r3
 837 0138 0370     		strb	r3, [r0, #0]
 445:.\Generated_Source\PSoC5/USB_std.c ****             CY_SET_REG8((reg8 *)(USB_ARB_RW1_RA_MSB_IND + i), USB_EP[ep].buffOffset >> 8u);
 838              		.loc 1 445 0
 839 013a BA79     		ldrb	r2, [r7, #6]	@ zero_extendqisi2
 840 013c 46F28703 		movw	r3, #24711
ARM GAS  C:\Users\makij\AppData\Local\Temp\ccAkhLin.s 			page 24


 841 0140 C4F20003 		movt	r3, 16384
 842 0144 D318     		adds	r3, r2, r3
 843 0146 1846     		mov	r0, r3
 844 0148 F979     		ldrb	r1, [r7, #7]	@ zero_extendqisi2
 845 014a 40F20002 		movw	r2, #:lower16:USB_EP
 846 014e C0F20002 		movt	r2, #:upper16:USB_EP
 847 0152 0B46     		mov	r3, r1
 848 0154 4FEA4303 		lsl	r3, r3, #1
 849 0158 5B18     		adds	r3, r3, r1
 850 015a 4FEA8303 		lsl	r3, r3, #2
 851 015e D318     		adds	r3, r2, r3
 852 0160 DB88     		ldrh	r3, [r3, #6]	@ movhi
 853 0162 9BB2     		uxth	r3, r3
 854 0164 4FEA1323 		lsr	r3, r3, #8
 855 0168 9BB2     		uxth	r3, r3
 856 016a DBB2     		uxtb	r3, r3
 857 016c 0370     		strb	r3, [r0, #0]
 446:.\Generated_Source\PSoC5/USB_std.c ****             CY_SET_REG8((reg8 *)(USB_ARB_RW1_WA_IND + i),     USB_EP[ep].buffOffset & 0xFFu);
 858              		.loc 1 446 0
 859 016e BA79     		ldrb	r2, [r7, #6]	@ zero_extendqisi2
 860 0170 46F28403 		movw	r3, #24708
 861 0174 C4F20003 		movt	r3, 16384
 862 0178 D318     		adds	r3, r2, r3
 863 017a 1846     		mov	r0, r3
 864 017c F979     		ldrb	r1, [r7, #7]	@ zero_extendqisi2
 865 017e 40F20002 		movw	r2, #:lower16:USB_EP
 866 0182 C0F20002 		movt	r2, #:upper16:USB_EP
 867 0186 0B46     		mov	r3, r1
 868 0188 4FEA4303 		lsl	r3, r3, #1
 869 018c 5B18     		adds	r3, r3, r1
 870 018e 4FEA8303 		lsl	r3, r3, #2
 871 0192 D318     		adds	r3, r2, r3
 872 0194 DB88     		ldrh	r3, [r3, #6]	@ movhi
 873 0196 9BB2     		uxth	r3, r3
 874 0198 DBB2     		uxtb	r3, r3
 875 019a 0370     		strb	r3, [r0, #0]
 447:.\Generated_Source\PSoC5/USB_std.c ****             CY_SET_REG8((reg8 *)(USB_ARB_RW1_WA_MSB_IND + i), USB_EP[ep].buffOffset >> 8u);
 876              		.loc 1 447 0
 877 019c BA79     		ldrb	r2, [r7, #6]	@ zero_extendqisi2
 878 019e 46F28503 		movw	r3, #24709
 879 01a2 C4F20003 		movt	r3, 16384
 880 01a6 D318     		adds	r3, r2, r3
 881 01a8 1846     		mov	r0, r3
 882 01aa F979     		ldrb	r1, [r7, #7]	@ zero_extendqisi2
 883 01ac 40F20002 		movw	r2, #:lower16:USB_EP
 884 01b0 C0F20002 		movt	r2, #:upper16:USB_EP
 885 01b4 0B46     		mov	r3, r1
 886 01b6 4FEA4303 		lsl	r3, r3, #1
 887 01ba 5B18     		adds	r3, r3, r1
 888 01bc 4FEA8303 		lsl	r3, r3, #2
 889 01c0 D318     		adds	r3, r2, r3
 890 01c2 DB88     		ldrh	r3, [r3, #6]	@ movhi
 891 01c4 9BB2     		uxth	r3, r3
 892 01c6 4FEA1323 		lsr	r3, r3, #8
 893 01ca 9BB2     		uxth	r3, r3
 894 01cc DBB2     		uxtb	r3, r3
 895 01ce 0370     		strb	r3, [r0, #0]
ARM GAS  C:\Users\makij\AppData\Local\Temp\ccAkhLin.s 			page 25


 448:.\Generated_Source\PSoC5/USB_std.c ****         #endif /*  USB_EP_MM != USB__EP_DMAAUTO */
 449:.\Generated_Source\PSoC5/USB_std.c **** 
 450:.\Generated_Source\PSoC5/USB_std.c ****         ep++;
 896              		.loc 1 450 0
 897 01d0 FB79     		ldrb	r3, [r7, #7]
 898 01d2 03F10103 		add	r3, r3, #1
 899 01d6 FB71     		strb	r3, [r7, #7]
 412:.\Generated_Source\PSoC5/USB_std.c ****     for (i = 0u; i < 0x80u; i+= 0x10u)
 900              		.loc 1 412 0
 901 01d8 BB79     		ldrb	r3, [r7, #6]
 902 01da 03F11003 		add	r3, r3, #16
 903 01de BB71     		strb	r3, [r7, #6]
 904              	.L63:
 412:.\Generated_Source\PSoC5/USB_std.c ****     for (i = 0u; i < 0x80u; i+= 0x10u)
 905              		.loc 1 412 0 is_stmt 0 discriminator 1
 906 01e0 BB79     		ldrb	r3, [r7, #6]	@ zero_extendqisi2
 907 01e2 5BB2     		sxtb	r3, r3
 908 01e4 002B     		cmp	r3, #0
 909 01e6 BFF615AF 		bge	.L67
 451:.\Generated_Source\PSoC5/USB_std.c ****     }
 452:.\Generated_Source\PSoC5/USB_std.c **** 
 453:.\Generated_Source\PSoC5/USB_std.c ****     #if(USB_EP_MM == USB__EP_DMAAUTO)
 454:.\Generated_Source\PSoC5/USB_std.c ****          /* BUF_SIZE depend on DMA_THRESS value: 55-32 bytes  44-16 bytes 33-8 bytes 22-4 bytes 11-
 455:.\Generated_Source\PSoC5/USB_std.c ****         USB_BUF_SIZE_REG = USB_DMA_BUF_SIZE;
 456:.\Generated_Source\PSoC5/USB_std.c ****         USB_DMA_THRES_REG = USB_DMA_BYTES_PER_BURST;   /* DMA burst threshold */
 457:.\Generated_Source\PSoC5/USB_std.c ****         USB_DMA_THRES_MSB_REG = 0u;
 458:.\Generated_Source\PSoC5/USB_std.c ****         USB_EP_ACTIVE_REG = USB_ARB_INT_MASK;
 459:.\Generated_Source\PSoC5/USB_std.c ****         USB_EP_TYPE_REG = epType;
 460:.\Generated_Source\PSoC5/USB_std.c ****         /* Cfg_cmp bit set to 1 once configuration is complete. */
 461:.\Generated_Source\PSoC5/USB_std.c ****         USB_ARB_CFG_REG = USB_ARB_CFG_AUTO_DMA | USB_ARB_CFG_AUTO_MEM |
 462:.\Generated_Source\PSoC5/USB_std.c ****                                        USB_ARB_CFG_CFG_CPM;
 463:.\Generated_Source\PSoC5/USB_std.c ****         /* Cfg_cmp bit set to 0 during configuration of PFSUSB Registers. */
 464:.\Generated_Source\PSoC5/USB_std.c ****         USB_ARB_CFG_REG = USB_ARB_CFG_AUTO_DMA | USB_ARB_CFG_AUTO_MEM;
 465:.\Generated_Source\PSoC5/USB_std.c ****     #endif /*  USB_EP_MM == USB__EP_DMAAUTO */
 466:.\Generated_Source\PSoC5/USB_std.c **** 
 467:.\Generated_Source\PSoC5/USB_std.c ****     CY_SET_REG8(USB_SIE_EP_INT_EN_PTR, 0xFFu);
 910              		.loc 1 467 0 is_stmt 1
 911 01ea 46F20A03 		movw	r3, #24586
 912 01ee C4F20003 		movt	r3, 16384
 913 01f2 4FF0FF02 		mov	r2, #255
 914 01f6 1A70     		strb	r2, [r3, #0]
 468:.\Generated_Source\PSoC5/USB_std.c **** }
 915              		.loc 1 468 0
 916 01f8 07F10C07 		add	r7, r7, #12
 917 01fc BD46     		mov	sp, r7
 918 01fe 80BC     		pop	{r7}
 919 0200 7047     		bx	lr
 920              		.cfi_endproc
 921              	.LFE1:
 922              		.size	USB_ConfigReg, .-USB_ConfigReg
 923 0202 00BF     		.section	.text.USB_Config,"ax",%progbits
 924              		.align	2
 925              		.global	USB_Config
 926              		.thumb
 927              		.thumb_func
 928              		.type	USB_Config, %function
 929              	USB_Config:
ARM GAS  C:\Users\makij\AppData\Local\Temp\ccAkhLin.s 			page 26


 930              	.LFB2:
 469:.\Generated_Source\PSoC5/USB_std.c **** 
 470:.\Generated_Source\PSoC5/USB_std.c **** 
 471:.\Generated_Source\PSoC5/USB_std.c **** /*******************************************************************************
 472:.\Generated_Source\PSoC5/USB_std.c **** * Function Name: USB_Config
 473:.\Generated_Source\PSoC5/USB_std.c **** ********************************************************************************
 474:.\Generated_Source\PSoC5/USB_std.c **** *
 475:.\Generated_Source\PSoC5/USB_std.c **** * Summary:
 476:.\Generated_Source\PSoC5/USB_std.c **** *  This routine configures endpoints for the entire configuration by scanning
 477:.\Generated_Source\PSoC5/USB_std.c **** *  the configuration descriptor.
 478:.\Generated_Source\PSoC5/USB_std.c **** *
 479:.\Generated_Source\PSoC5/USB_std.c **** * Parameters:
 480:.\Generated_Source\PSoC5/USB_std.c **** *  clearAltSetting: It configures the bAlternateSetting 0 for each interface.
 481:.\Generated_Source\PSoC5/USB_std.c **** *
 482:.\Generated_Source\PSoC5/USB_std.c **** * Return:
 483:.\Generated_Source\PSoC5/USB_std.c **** *  None.
 484:.\Generated_Source\PSoC5/USB_std.c **** *
 485:.\Generated_Source\PSoC5/USB_std.c **** * USB_interfaceClass - Initialized class array for each interface.
 486:.\Generated_Source\PSoC5/USB_std.c **** *   It is used for handling Class specific requests depend on interface class.
 487:.\Generated_Source\PSoC5/USB_std.c **** *   Different classes in multiple Alternate settings does not supported.
 488:.\Generated_Source\PSoC5/USB_std.c **** *
 489:.\Generated_Source\PSoC5/USB_std.c **** * Reentrant:
 490:.\Generated_Source\PSoC5/USB_std.c **** *  No.
 491:.\Generated_Source\PSoC5/USB_std.c **** *
 492:.\Generated_Source\PSoC5/USB_std.c **** *******************************************************************************/
 493:.\Generated_Source\PSoC5/USB_std.c **** void USB_Config(uint8 clearAltSetting) 
 494:.\Generated_Source\PSoC5/USB_std.c **** {
 931              		.loc 1 494 0
 932              		.cfi_startproc
 933              		@ args = 0, pretend = 0, frame = 32
 934              		@ frame_needed = 1, uses_anonymous_args = 0
 935 0000 80B5     		push	{r7, lr}
 936              	.LCFI6:
 937              		.cfi_def_cfa_offset 8
 938              		.cfi_offset 7, -8
 939              		.cfi_offset 14, -4
 940 0002 88B0     		sub	sp, sp, #32
 941              	.LCFI7:
 942              		.cfi_def_cfa_offset 40
 943 0004 00AF     		add	r7, sp, #0
 944              	.LCFI8:
 945              		.cfi_def_cfa_register 7
 946 0006 0346     		mov	r3, r0
 947 0008 FB71     		strb	r3, [r7, #7]
 495:.\Generated_Source\PSoC5/USB_std.c ****     uint8 ep;
 496:.\Generated_Source\PSoC5/USB_std.c ****     uint8 cur_ep;
 497:.\Generated_Source\PSoC5/USB_std.c ****     uint8 i;
 498:.\Generated_Source\PSoC5/USB_std.c ****     uint8 epType;
 499:.\Generated_Source\PSoC5/USB_std.c ****     const uint8 *pDescr;
 500:.\Generated_Source\PSoC5/USB_std.c ****     #if(USB_EP_MM != USB__EP_DMAAUTO)
 501:.\Generated_Source\PSoC5/USB_std.c ****         uint16 buffCount = 0u;
 948              		.loc 1 501 0
 949 000a 4FF00003 		mov	r3, #0
 950 000e 7B83     		strh	r3, [r7, #26]	@ movhi
 502:.\Generated_Source\PSoC5/USB_std.c ****     #endif /*  USB_EP_MM != USB__EP_DMAAUTO */
 503:.\Generated_Source\PSoC5/USB_std.c **** 
 504:.\Generated_Source\PSoC5/USB_std.c ****     const T_USB_LUT CYCODE *pTmp;
ARM GAS  C:\Users\makij\AppData\Local\Temp\ccAkhLin.s 			page 27


 505:.\Generated_Source\PSoC5/USB_std.c ****     const T_USB_EP_SETTINGS_BLOCK CYCODE *pEP;
 506:.\Generated_Source\PSoC5/USB_std.c **** 
 507:.\Generated_Source\PSoC5/USB_std.c ****     /* Clear all of the endpoints */
 508:.\Generated_Source\PSoC5/USB_std.c ****     for (ep = 0u; ep < USB_MAX_EP; ep++)
 951              		.loc 1 508 0
 952 0010 4FF00003 		mov	r3, #0
 953 0014 FB77     		strb	r3, [r7, #31]
 954 0016 70E0     		b	.L69
 955              	.L70:
 509:.\Generated_Source\PSoC5/USB_std.c ****     {
 510:.\Generated_Source\PSoC5/USB_std.c ****         USB_EP[ep].attrib = 0u;
 956              		.loc 1 510 0 discriminator 2
 957 0018 F97F     		ldrb	r1, [r7, #31]	@ zero_extendqisi2
 958 001a 40F20002 		movw	r2, #:lower16:USB_EP
 959 001e C0F20002 		movt	r2, #:upper16:USB_EP
 960 0022 0B46     		mov	r3, r1
 961 0024 4FEA4303 		lsl	r3, r3, #1
 962 0028 5B18     		adds	r3, r3, r1
 963 002a 4FEA8303 		lsl	r3, r3, #2
 964 002e D318     		adds	r3, r2, r3
 965 0030 4FF00002 		mov	r2, #0
 966 0034 1A70     		strb	r2, [r3, #0]
 511:.\Generated_Source\PSoC5/USB_std.c ****         USB_EP[ep].hwEpState = 0u;
 967              		.loc 1 511 0 discriminator 2
 968 0036 F97F     		ldrb	r1, [r7, #31]	@ zero_extendqisi2
 969 0038 40F20002 		movw	r2, #:lower16:USB_EP
 970 003c C0F20002 		movt	r2, #:upper16:USB_EP
 971 0040 0B46     		mov	r3, r1
 972 0042 4FEA4303 		lsl	r3, r3, #1
 973 0046 5B18     		adds	r3, r3, r1
 974 0048 4FEA8303 		lsl	r3, r3, #2
 975 004c D318     		adds	r3, r2, r3
 976 004e 4FF00002 		mov	r2, #0
 977 0052 9A70     		strb	r2, [r3, #2]
 512:.\Generated_Source\PSoC5/USB_std.c ****         USB_EP[ep].apiEpState = USB_NO_EVENT_PENDING;
 978              		.loc 1 512 0 discriminator 2
 979 0054 F97F     		ldrb	r1, [r7, #31]	@ zero_extendqisi2
 980 0056 40F20002 		movw	r2, #:lower16:USB_EP
 981 005a C0F20002 		movt	r2, #:upper16:USB_EP
 982 005e 0B46     		mov	r3, r1
 983 0060 4FEA4303 		lsl	r3, r3, #1
 984 0064 5B18     		adds	r3, r3, r1
 985 0066 4FEA8303 		lsl	r3, r3, #2
 986 006a D318     		adds	r3, r2, r3
 987 006c 4FF00002 		mov	r2, #0
 988 0070 5A70     		strb	r2, [r3, #1]
 513:.\Generated_Source\PSoC5/USB_std.c ****         USB_EP[ep].epToggle = 0u;
 989              		.loc 1 513 0 discriminator 2
 990 0072 F97F     		ldrb	r1, [r7, #31]	@ zero_extendqisi2
 991 0074 40F20002 		movw	r2, #:lower16:USB_EP
 992 0078 C0F20002 		movt	r2, #:upper16:USB_EP
 993 007c 0B46     		mov	r3, r1
 994 007e 4FEA4303 		lsl	r3, r3, #1
 995 0082 5B18     		adds	r3, r3, r1
 996 0084 4FEA8303 		lsl	r3, r3, #2
 997 0088 D318     		adds	r3, r2, r3
 998 008a 4FF00002 		mov	r2, #0
ARM GAS  C:\Users\makij\AppData\Local\Temp\ccAkhLin.s 			page 28


 999 008e DA70     		strb	r2, [r3, #3]
 514:.\Generated_Source\PSoC5/USB_std.c ****         USB_EP[ep].epMode = USB_MODE_DISABLE;
 1000              		.loc 1 514 0 discriminator 2
 1001 0090 F97F     		ldrb	r1, [r7, #31]	@ zero_extendqisi2
 1002 0092 40F20002 		movw	r2, #:lower16:USB_EP
 1003 0096 C0F20002 		movt	r2, #:upper16:USB_EP
 1004 009a 0B46     		mov	r3, r1
 1005 009c 4FEA4303 		lsl	r3, r3, #1
 1006 00a0 5B18     		adds	r3, r3, r1
 1007 00a2 4FEA8303 		lsl	r3, r3, #2
 1008 00a6 D318     		adds	r3, r2, r3
 1009 00a8 4FF00002 		mov	r2, #0
 1010 00ac 5A71     		strb	r2, [r3, #5]
 515:.\Generated_Source\PSoC5/USB_std.c ****         USB_EP[ep].bufferSize = 0u;
 1011              		.loc 1 515 0 discriminator 2
 1012 00ae F97F     		ldrb	r1, [r7, #31]	@ zero_extendqisi2
 1013 00b0 40F20002 		movw	r2, #:lower16:USB_EP
 1014 00b4 C0F20002 		movt	r2, #:upper16:USB_EP
 1015 00b8 0B46     		mov	r3, r1
 1016 00ba 4FEA4303 		lsl	r3, r3, #1
 1017 00be 5B18     		adds	r3, r3, r1
 1018 00c0 4FEA8303 		lsl	r3, r3, #2
 1019 00c4 D318     		adds	r3, r2, r3
 1020 00c6 03F10803 		add	r3, r3, #8
 1021 00ca 4FF00002 		mov	r2, #0
 1022 00ce 1A80     		strh	r2, [r3, #0]	@ movhi
 516:.\Generated_Source\PSoC5/USB_std.c ****         USB_EP[ep].interface = 0u;
 1023              		.loc 1 516 0 discriminator 2
 1024 00d0 F97F     		ldrb	r1, [r7, #31]	@ zero_extendqisi2
 1025 00d2 40F20002 		movw	r2, #:lower16:USB_EP
 1026 00d6 C0F20002 		movt	r2, #:upper16:USB_EP
 1027 00da 0B46     		mov	r3, r1
 1028 00dc 4FEA4303 		lsl	r3, r3, #1
 1029 00e0 5B18     		adds	r3, r3, r1
 1030 00e2 4FEA8303 		lsl	r3, r3, #2
 1031 00e6 D318     		adds	r3, r2, r3
 1032 00e8 03F10803 		add	r3, r3, #8
 1033 00ec 4FF00002 		mov	r2, #0
 1034 00f0 9A70     		strb	r2, [r3, #2]
 508:.\Generated_Source\PSoC5/USB_std.c ****     for (ep = 0u; ep < USB_MAX_EP; ep++)
 1035              		.loc 1 508 0 discriminator 2
 1036 00f2 FB7F     		ldrb	r3, [r7, #31]
 1037 00f4 03F10103 		add	r3, r3, #1
 1038 00f8 FB77     		strb	r3, [r7, #31]
 1039              	.L69:
 508:.\Generated_Source\PSoC5/USB_std.c ****     for (ep = 0u; ep < USB_MAX_EP; ep++)
 1040              		.loc 1 508 0 is_stmt 0 discriminator 1
 1041 00fa FB7F     		ldrb	r3, [r7, #31]	@ zero_extendqisi2
 1042 00fc 082B     		cmp	r3, #8
 1043 00fe 8BD9     		bls	.L70
 517:.\Generated_Source\PSoC5/USB_std.c **** 
 518:.\Generated_Source\PSoC5/USB_std.c ****     }
 519:.\Generated_Source\PSoC5/USB_std.c **** 
 520:.\Generated_Source\PSoC5/USB_std.c ****     /* Clear Alternate settings for all interfaces */
 521:.\Generated_Source\PSoC5/USB_std.c ****     if(clearAltSetting != 0u)
 1044              		.loc 1 521 0 is_stmt 1
 1045 0100 FB79     		ldrb	r3, [r7, #7]	@ zero_extendqisi2
ARM GAS  C:\Users\makij\AppData\Local\Temp\ccAkhLin.s 			page 29


 1046 0102 002B     		cmp	r3, #0
 1047 0104 1AD0     		beq	.L71
 522:.\Generated_Source\PSoC5/USB_std.c ****     {
 523:.\Generated_Source\PSoC5/USB_std.c ****         for (i = 0u; i < USB_MAX_INTERFACES_NUMBER; i++)
 1048              		.loc 1 523 0
 1049 0106 4FF00003 		mov	r3, #0
 1050 010a 7B77     		strb	r3, [r7, #29]
 1051 010c 13E0     		b	.L72
 1052              	.L73:
 524:.\Generated_Source\PSoC5/USB_std.c ****         {
 525:.\Generated_Source\PSoC5/USB_std.c ****             USB_interfaceSetting[i] = 0x00u;
 1053              		.loc 1 525 0 discriminator 2
 1054 010e 7A7F     		ldrb	r2, [r7, #29]	@ zero_extendqisi2
 1055 0110 40F20003 		movw	r3, #:lower16:USB_interfaceSetting
 1056 0114 C0F20003 		movt	r3, #:upper16:USB_interfaceSetting
 1057 0118 4FF00001 		mov	r1, #0
 1058 011c 9954     		strb	r1, [r3, r2]
 526:.\Generated_Source\PSoC5/USB_std.c ****             USB_interfaceSetting_last[i] = 0x00u;
 1059              		.loc 1 526 0 discriminator 2
 1060 011e 7A7F     		ldrb	r2, [r7, #29]	@ zero_extendqisi2
 1061 0120 40F20003 		movw	r3, #:lower16:USB_interfaceSetting_last
 1062 0124 C0F20003 		movt	r3, #:upper16:USB_interfaceSetting_last
 1063 0128 4FF00001 		mov	r1, #0
 1064 012c 9954     		strb	r1, [r3, r2]
 523:.\Generated_Source\PSoC5/USB_std.c ****         for (i = 0u; i < USB_MAX_INTERFACES_NUMBER; i++)
 1065              		.loc 1 523 0 discriminator 2
 1066 012e 7B7F     		ldrb	r3, [r7, #29]
 1067 0130 03F10103 		add	r3, r3, #1
 1068 0134 7B77     		strb	r3, [r7, #29]
 1069              	.L72:
 523:.\Generated_Source\PSoC5/USB_std.c ****         for (i = 0u; i < USB_MAX_INTERFACES_NUMBER; i++)
 1070              		.loc 1 523 0 is_stmt 0 discriminator 1
 1071 0136 7B7F     		ldrb	r3, [r7, #29]	@ zero_extendqisi2
 1072 0138 002B     		cmp	r3, #0
 1073 013a E8D0     		beq	.L73
 1074              	.L71:
 527:.\Generated_Source\PSoC5/USB_std.c ****         }
 528:.\Generated_Source\PSoC5/USB_std.c ****     }
 529:.\Generated_Source\PSoC5/USB_std.c **** 
 530:.\Generated_Source\PSoC5/USB_std.c ****     /* Init Endpoints and Device Status if configured */
 531:.\Generated_Source\PSoC5/USB_std.c ****     if(USB_configuration > 0u)
 1075              		.loc 1 531 0 is_stmt 1
 1076 013c 40F20003 		movw	r3, #:lower16:USB_configuration
 1077 0140 C0F20003 		movt	r3, #:upper16:USB_configuration
 1078 0144 1B78     		ldrb	r3, [r3, #0]
 1079 0146 DBB2     		uxtb	r3, r3
 1080 0148 002B     		cmp	r3, #0
 1081 014a 00F06B81 		beq	.L68
 532:.\Generated_Source\PSoC5/USB_std.c ****     {
 533:.\Generated_Source\PSoC5/USB_std.c ****         pTmp = USB_GetConfigTablePtr(USB_configuration - 1u);
 1082              		.loc 1 533 0
 1083 014e 40F20003 		movw	r3, #:lower16:USB_configuration
 1084 0152 C0F20003 		movt	r3, #:upper16:USB_configuration
 1085 0156 1B78     		ldrb	r3, [r3, #0]
 1086 0158 DBB2     		uxtb	r3, r3
 1087 015a 03F1FF33 		add	r3, r3, #-1
 1088 015e DBB2     		uxtb	r3, r3
ARM GAS  C:\Users\makij\AppData\Local\Temp\ccAkhLin.s 			page 30


 1089 0160 1846     		mov	r0, r3
 1090 0162 FFF7FEFF 		bl	USB_GetConfigTablePtr
 1091 0166 3861     		str	r0, [r7, #16]
 534:.\Generated_Source\PSoC5/USB_std.c ****         /* Set Power status for current configuration */
 535:.\Generated_Source\PSoC5/USB_std.c ****         pDescr = (const uint8 *)pTmp->p_list;
 1092              		.loc 1 535 0
 1093 0168 3B69     		ldr	r3, [r7, #16]
 1094 016a 5B68     		ldr	r3, [r3, #4]
 1095 016c FB60     		str	r3, [r7, #12]
 536:.\Generated_Source\PSoC5/USB_std.c ****         if((pDescr[USB_CONFIG_DESCR_ATTRIB] & USB_CONFIG_DESCR_ATTRIB_SELF_POWERED) != 0u)
 1096              		.loc 1 536 0
 1097 016e FB68     		ldr	r3, [r7, #12]
 1098 0170 03F10703 		add	r3, r3, #7
 1099 0174 1B78     		ldrb	r3, [r3, #0]	@ zero_extendqisi2
 1100 0176 03F04003 		and	r3, r3, #64
 1101 017a 002B     		cmp	r3, #0
 1102 017c 0ED0     		beq	.L75
 537:.\Generated_Source\PSoC5/USB_std.c ****         {
 538:.\Generated_Source\PSoC5/USB_std.c ****             USB_deviceStatus |=  USB_DEVICE_STATUS_SELF_POWERED;
 1103              		.loc 1 538 0
 1104 017e 40F20003 		movw	r3, #:lower16:USB_deviceStatus
 1105 0182 C0F20003 		movt	r3, #:upper16:USB_deviceStatus
 1106 0186 1B78     		ldrb	r3, [r3, #0]
 1107 0188 DBB2     		uxtb	r3, r3
 1108 018a 43F00103 		orr	r3, r3, #1
 1109 018e DAB2     		uxtb	r2, r3
 1110 0190 40F20003 		movw	r3, #:lower16:USB_deviceStatus
 1111 0194 C0F20003 		movt	r3, #:upper16:USB_deviceStatus
 1112 0198 1A70     		strb	r2, [r3, #0]
 1113 019a 0DE0     		b	.L76
 1114              	.L75:
 539:.\Generated_Source\PSoC5/USB_std.c ****         }
 540:.\Generated_Source\PSoC5/USB_std.c ****         else
 541:.\Generated_Source\PSoC5/USB_std.c ****         {
 542:.\Generated_Source\PSoC5/USB_std.c ****             USB_deviceStatus &=  (uint8)~USB_DEVICE_STATUS_SELF_POWERED;
 1115              		.loc 1 542 0
 1116 019c 40F20003 		movw	r3, #:lower16:USB_deviceStatus
 1117 01a0 C0F20003 		movt	r3, #:upper16:USB_deviceStatus
 1118 01a4 1B78     		ldrb	r3, [r3, #0]
 1119 01a6 DBB2     		uxtb	r3, r3
 1120 01a8 23F00103 		bic	r3, r3, #1
 1121 01ac DAB2     		uxtb	r2, r3
 1122 01ae 40F20003 		movw	r3, #:lower16:USB_deviceStatus
 1123 01b2 C0F20003 		movt	r3, #:upper16:USB_deviceStatus
 1124 01b6 1A70     		strb	r2, [r3, #0]
 1125              	.L76:
 543:.\Generated_Source\PSoC5/USB_std.c ****         }
 544:.\Generated_Source\PSoC5/USB_std.c ****         /* Move to next element */
 545:.\Generated_Source\PSoC5/USB_std.c ****         pTmp = &pTmp[1u];
 1126              		.loc 1 545 0
 1127 01b8 3B69     		ldr	r3, [r7, #16]
 1128 01ba 03F10803 		add	r3, r3, #8
 1129 01be 3B61     		str	r3, [r7, #16]
 546:.\Generated_Source\PSoC5/USB_std.c ****         ep = pTmp->c;  /* For this table, c is the number of endpoints configurations  */
 1130              		.loc 1 546 0
 1131 01c0 3B69     		ldr	r3, [r7, #16]
 1132 01c2 1B78     		ldrb	r3, [r3, #0]
ARM GAS  C:\Users\makij\AppData\Local\Temp\ccAkhLin.s 			page 31


 1133 01c4 FB77     		strb	r3, [r7, #31]
 547:.\Generated_Source\PSoC5/USB_std.c **** 
 548:.\Generated_Source\PSoC5/USB_std.c ****         #if ((USB_EP_MA == USB__MA_DYNAMIC) && \
 549:.\Generated_Source\PSoC5/USB_std.c ****              (USB_EP_MM == USB__EP_MANUAL) )
 550:.\Generated_Source\PSoC5/USB_std.c ****             /* Configure for dynamic EP memory allocation */
 551:.\Generated_Source\PSoC5/USB_std.c ****             /* p_list points the endpoint setting table. */
 552:.\Generated_Source\PSoC5/USB_std.c ****             pEP = (T_USB_EP_SETTINGS_BLOCK *) pTmp->p_list;
 553:.\Generated_Source\PSoC5/USB_std.c ****             for (i = 0u; i < ep; i++)
 554:.\Generated_Source\PSoC5/USB_std.c ****             {
 555:.\Generated_Source\PSoC5/USB_std.c ****                 /* Compare current Alternate setting with EP Alt */
 556:.\Generated_Source\PSoC5/USB_std.c ****                 if(USB_interfaceSetting[pEP->interface] == pEP->altSetting)
 557:.\Generated_Source\PSoC5/USB_std.c ****                 {
 558:.\Generated_Source\PSoC5/USB_std.c ****                     cur_ep = pEP->addr & USB_DIR_UNUSED;
 559:.\Generated_Source\PSoC5/USB_std.c ****                     epType = pEP->attributes & USB_EP_TYPE_MASK;
 560:.\Generated_Source\PSoC5/USB_std.c ****                     if (pEP->addr & USB_DIR_IN)
 561:.\Generated_Source\PSoC5/USB_std.c ****                     {
 562:.\Generated_Source\PSoC5/USB_std.c ****                         /* IN Endpoint */
 563:.\Generated_Source\PSoC5/USB_std.c ****                         USB_EP[cur_ep].apiEpState = USB_EVENT_PENDING;
 564:.\Generated_Source\PSoC5/USB_std.c ****                         USB_EP[cur_ep].epMode = (epType == USB_EP_TYPE_ISOC) ?
 565:.\Generated_Source\PSoC5/USB_std.c ****                                                         USB_MODE_ISO_IN : USB_MODE_ACK_IN;
 566:.\Generated_Source\PSoC5/USB_std.c ****                         #if defined(USB_ENABLE_CDC_CLASS)
 567:.\Generated_Source\PSoC5/USB_std.c ****                             if(((pEP->bMisc == USB_CLASS_CDC_DATA) ||
 568:.\Generated_Source\PSoC5/USB_std.c ****                                 (pEP->bMisc == USB_CLASS_CDC)) &&
 569:.\Generated_Source\PSoC5/USB_std.c ****                                 (epType != USB_EP_TYPE_INT))
 570:.\Generated_Source\PSoC5/USB_std.c ****                             {
 571:.\Generated_Source\PSoC5/USB_std.c ****                                 USB_cdc_data_in_ep = cur_ep;
 572:.\Generated_Source\PSoC5/USB_std.c ****                             }
 573:.\Generated_Source\PSoC5/USB_std.c ****                         #endif  /*  USB_ENABLE_CDC_CLASS*/
 574:.\Generated_Source\PSoC5/USB_std.c ****                         #if ( defined(USB_ENABLE_MIDI_STREAMING) && \
 575:.\Generated_Source\PSoC5/USB_std.c ****                                              (USB_MIDI_IN_BUFF_SIZE > 0) )
 576:.\Generated_Source\PSoC5/USB_std.c ****                             if((pEP->bMisc == USB_CLASS_AUDIO) &&
 577:.\Generated_Source\PSoC5/USB_std.c ****                                (epType == USB_EP_TYPE_BULK))
 578:.\Generated_Source\PSoC5/USB_std.c ****                             {
 579:.\Generated_Source\PSoC5/USB_std.c ****                                 USB_midi_in_ep = cur_ep;
 580:.\Generated_Source\PSoC5/USB_std.c ****                             }
 581:.\Generated_Source\PSoC5/USB_std.c ****                         #endif  /*  USB_ENABLE_MIDI_STREAMING*/
 582:.\Generated_Source\PSoC5/USB_std.c ****                     }
 583:.\Generated_Source\PSoC5/USB_std.c ****                     else
 584:.\Generated_Source\PSoC5/USB_std.c ****                     {
 585:.\Generated_Source\PSoC5/USB_std.c ****                         /* OUT Endpoint */
 586:.\Generated_Source\PSoC5/USB_std.c ****                         USB_EP[cur_ep].apiEpState = USB_NO_EVENT_PENDING;
 587:.\Generated_Source\PSoC5/USB_std.c ****                         USB_EP[cur_ep].epMode = (epType == USB_EP_TYPE_ISOC) ?
 588:.\Generated_Source\PSoC5/USB_std.c ****                                                     USB_MODE_ISO_OUT : USB_MODE_ACK_OUT;
 589:.\Generated_Source\PSoC5/USB_std.c ****                         #if defined(USB_ENABLE_CDC_CLASS)
 590:.\Generated_Source\PSoC5/USB_std.c ****                             if(((pEP->bMisc == USB_CLASS_CDC_DATA) ||
 591:.\Generated_Source\PSoC5/USB_std.c ****                                 (pEP->bMisc == USB_CLASS_CDC)) &&
 592:.\Generated_Source\PSoC5/USB_std.c ****                                 (epType != USB_EP_TYPE_INT))
 593:.\Generated_Source\PSoC5/USB_std.c ****                             {
 594:.\Generated_Source\PSoC5/USB_std.c ****                                 USB_cdc_data_out_ep = cur_ep;
 595:.\Generated_Source\PSoC5/USB_std.c ****                             }
 596:.\Generated_Source\PSoC5/USB_std.c ****                         #endif  /*  USB_ENABLE_CDC_CLASS*/
 597:.\Generated_Source\PSoC5/USB_std.c ****                         #if ( defined(USB_ENABLE_MIDI_STREAMING) && \
 598:.\Generated_Source\PSoC5/USB_std.c ****                                      (USB_MIDI_OUT_BUFF_SIZE > 0) )
 599:.\Generated_Source\PSoC5/USB_std.c ****                             if((pEP->bMisc == USB_CLASS_AUDIO) &&
 600:.\Generated_Source\PSoC5/USB_std.c ****                                (epType == USB_EP_TYPE_BULK))
 601:.\Generated_Source\PSoC5/USB_std.c ****                             {
 602:.\Generated_Source\PSoC5/USB_std.c ****                                 USB_midi_out_ep = cur_ep;
ARM GAS  C:\Users\makij\AppData\Local\Temp\ccAkhLin.s 			page 32


 603:.\Generated_Source\PSoC5/USB_std.c ****                             }
 604:.\Generated_Source\PSoC5/USB_std.c ****                         #endif  /*  USB_ENABLE_MIDI_STREAMING*/
 605:.\Generated_Source\PSoC5/USB_std.c ****                     }
 606:.\Generated_Source\PSoC5/USB_std.c ****                     USB_EP[cur_ep].bufferSize = pEP->bufferSize;
 607:.\Generated_Source\PSoC5/USB_std.c ****                     USB_EP[cur_ep].addr = pEP->addr;
 608:.\Generated_Source\PSoC5/USB_std.c ****                     USB_EP[cur_ep].attrib = pEP->attributes;
 609:.\Generated_Source\PSoC5/USB_std.c ****                 }
 610:.\Generated_Source\PSoC5/USB_std.c ****                 pEP = &pEP[1u];
 611:.\Generated_Source\PSoC5/USB_std.c ****             }
 612:.\Generated_Source\PSoC5/USB_std.c ****         #else /* Configure for static EP memory allocation  */
 613:.\Generated_Source\PSoC5/USB_std.c ****             for (i = USB_EP1; i < USB_MAX_EP; i++)
 1134              		.loc 1 613 0
 1135 01c6 4FF00103 		mov	r3, #1
 1136 01ca 7B77     		strb	r3, [r7, #29]
 1137 01cc C8E0     		b	.L77
 1138              	.L88:
 614:.\Generated_Source\PSoC5/USB_std.c ****             {
 615:.\Generated_Source\PSoC5/USB_std.c ****                 /* p_list points the endpoint setting table. */
 616:.\Generated_Source\PSoC5/USB_std.c ****                 pEP = (const T_USB_EP_SETTINGS_BLOCK CYCODE *) pTmp->p_list;
 1139              		.loc 1 616 0
 1140 01ce 3B69     		ldr	r3, [r7, #16]
 1141 01d0 5B68     		ldr	r3, [r3, #4]
 1142 01d2 7B61     		str	r3, [r7, #20]
 617:.\Generated_Source\PSoC5/USB_std.c ****                 /* Find max length for each EP and select it (length could be different in differen
 618:.\Generated_Source\PSoC5/USB_std.c ****                 /* but other settings should be correct with regards to Interface alt Setting */
 619:.\Generated_Source\PSoC5/USB_std.c ****                 for (cur_ep = 0u; cur_ep < ep; cur_ep++)
 1143              		.loc 1 619 0
 1144 01d4 4FF00003 		mov	r3, #0
 1145 01d8 BB77     		strb	r3, [r7, #30]
 1146 01da B8E0     		b	.L78
 1147              	.L87:
 620:.\Generated_Source\PSoC5/USB_std.c ****                 {
 621:.\Generated_Source\PSoC5/USB_std.c ****                     /* EP count is equal to EP # in table and we found larger EP length than have b
 622:.\Generated_Source\PSoC5/USB_std.c ****                     if(i == (pEP->addr & USB_DIR_UNUSED))
 1148              		.loc 1 622 0
 1149 01dc 7A7F     		ldrb	r2, [r7, #29]	@ zero_extendqisi2
 1150 01de 7B69     		ldr	r3, [r7, #20]
 1151 01e0 9B78     		ldrb	r3, [r3, #2]	@ zero_extendqisi2
 1152 01e2 03F07F03 		and	r3, r3, #127
 1153 01e6 9A42     		cmp	r2, r3
 1154 01e8 40F0A980 		bne	.L79
 623:.\Generated_Source\PSoC5/USB_std.c ****                     {
 624:.\Generated_Source\PSoC5/USB_std.c ****                         if(USB_EP[i].bufferSize < pEP->bufferSize)
 1155              		.loc 1 624 0
 1156 01ec 797F     		ldrb	r1, [r7, #29]	@ zero_extendqisi2
 1157 01ee 40F20002 		movw	r2, #:lower16:USB_EP
 1158 01f2 C0F20002 		movt	r2, #:upper16:USB_EP
 1159 01f6 0B46     		mov	r3, r1
 1160 01f8 4FEA4303 		lsl	r3, r3, #1
 1161 01fc 5B18     		adds	r3, r3, r1
 1162 01fe 4FEA8303 		lsl	r3, r3, #2
 1163 0202 D318     		adds	r3, r2, r3
 1164 0204 03F10803 		add	r3, r3, #8
 1165 0208 1B88     		ldrh	r3, [r3, #0]	@ movhi
 1166 020a 9AB2     		uxth	r2, r3
 1167 020c 7B69     		ldr	r3, [r7, #20]
 1168 020e 9B88     		ldrh	r3, [r3, #4]
ARM GAS  C:\Users\makij\AppData\Local\Temp\ccAkhLin.s 			page 33


 1169 0210 9A42     		cmp	r2, r3
 1170 0212 11D2     		bcs	.L80
 625:.\Generated_Source\PSoC5/USB_std.c ****                         {
 626:.\Generated_Source\PSoC5/USB_std.c ****                             USB_EP[i].bufferSize = pEP->bufferSize;
 1171              		.loc 1 626 0
 1172 0214 797F     		ldrb	r1, [r7, #29]	@ zero_extendqisi2
 1173 0216 7B69     		ldr	r3, [r7, #20]
 1174 0218 9888     		ldrh	r0, [r3, #4]
 1175 021a 40F20002 		movw	r2, #:lower16:USB_EP
 1176 021e C0F20002 		movt	r2, #:upper16:USB_EP
 1177 0222 0B46     		mov	r3, r1
 1178 0224 4FEA4303 		lsl	r3, r3, #1
 1179 0228 5B18     		adds	r3, r3, r1
 1180 022a 4FEA8303 		lsl	r3, r3, #2
 1181 022e D318     		adds	r3, r2, r3
 1182 0230 03F10803 		add	r3, r3, #8
 1183 0234 0246     		mov	r2, r0	@ movhi
 1184 0236 1A80     		strh	r2, [r3, #0]	@ movhi
 1185              	.L80:
 627:.\Generated_Source\PSoC5/USB_std.c ****                         }
 628:.\Generated_Source\PSoC5/USB_std.c ****                         /* Compare current Alternate setting with EP Alt*/
 629:.\Generated_Source\PSoC5/USB_std.c ****                         if(USB_interfaceSetting[pEP->interface] == pEP->altSetting)
 1186              		.loc 1 629 0
 1187 0238 7B69     		ldr	r3, [r7, #20]
 1188 023a 1B78     		ldrb	r3, [r3, #0]	@ zero_extendqisi2
 1189 023c 1A46     		mov	r2, r3
 1190 023e 40F20003 		movw	r3, #:lower16:USB_interfaceSetting
 1191 0242 C0F20003 		movt	r3, #:upper16:USB_interfaceSetting
 1192 0246 9B5C     		ldrb	r3, [r3, r2]
 1193 0248 DAB2     		uxtb	r2, r3
 1194 024a 7B69     		ldr	r3, [r7, #20]
 1195 024c 5B78     		ldrb	r3, [r3, #1]	@ zero_extendqisi2
 1196 024e 9A42     		cmp	r2, r3
 1197 0250 75D1     		bne	.L79
 630:.\Generated_Source\PSoC5/USB_std.c ****                         {
 631:.\Generated_Source\PSoC5/USB_std.c ****                             epType = pEP->attributes & USB_EP_TYPE_MASK;
 1198              		.loc 1 631 0
 1199 0252 7B69     		ldr	r3, [r7, #20]
 1200 0254 DB78     		ldrb	r3, [r3, #3]	@ zero_extendqisi2
 1201 0256 03F00303 		and	r3, r3, #3
 1202 025a FB72     		strb	r3, [r7, #11]
 632:.\Generated_Source\PSoC5/USB_std.c ****                             if ((pEP->addr & USB_DIR_IN) != 0u)
 1203              		.loc 1 632 0
 1204 025c 7B69     		ldr	r3, [r7, #20]
 1205 025e 9B78     		ldrb	r3, [r3, #2]	@ zero_extendqisi2
 1206 0260 DBB2     		uxtb	r3, r3
 1207 0262 5BB2     		sxtb	r3, r3
 1208 0264 002B     		cmp	r3, #0
 1209 0266 25DA     		bge	.L81
 633:.\Generated_Source\PSoC5/USB_std.c ****                             {
 634:.\Generated_Source\PSoC5/USB_std.c ****                                 /* IN Endpoint */
 635:.\Generated_Source\PSoC5/USB_std.c ****                                 USB_EP[i].apiEpState = USB_EVENT_PENDING;
 1210              		.loc 1 635 0
 1211 0268 797F     		ldrb	r1, [r7, #29]	@ zero_extendqisi2
 1212 026a 40F20002 		movw	r2, #:lower16:USB_EP
 1213 026e C0F20002 		movt	r2, #:upper16:USB_EP
 1214 0272 0B46     		mov	r3, r1
ARM GAS  C:\Users\makij\AppData\Local\Temp\ccAkhLin.s 			page 34


 1215 0274 4FEA4303 		lsl	r3, r3, #1
 1216 0278 5B18     		adds	r3, r3, r1
 1217 027a 4FEA8303 		lsl	r3, r3, #2
 1218 027e D318     		adds	r3, r2, r3
 1219 0280 4FF00102 		mov	r2, #1
 1220 0284 5A70     		strb	r2, [r3, #1]
 636:.\Generated_Source\PSoC5/USB_std.c ****                                 USB_EP[i].epMode = (epType == USB_EP_TYPE_ISOC) ?
 1221              		.loc 1 636 0
 1222 0286 787F     		ldrb	r0, [r7, #29]	@ zero_extendqisi2
 1223 0288 FB7A     		ldrb	r3, [r7, #11]	@ zero_extendqisi2
 1224 028a 012B     		cmp	r3, #1
 1225 028c 02D1     		bne	.L82
 1226              		.loc 1 636 0 is_stmt 0 discriminator 1
 1227 028e 4FF00701 		mov	r1, #7
 1228 0292 01E0     		b	.L83
 1229              	.L82:
 1230              		.loc 1 636 0 discriminator 2
 1231 0294 4FF00D01 		mov	r1, #13
 1232              	.L83:
 1233              		.loc 1 636 0 discriminator 3
 1234 0298 40F20002 		movw	r2, #:lower16:USB_EP
 1235 029c C0F20002 		movt	r2, #:upper16:USB_EP
 1236 02a0 0346     		mov	r3, r0
 1237 02a2 4FEA4303 		lsl	r3, r3, #1
 1238 02a6 1B18     		adds	r3, r3, r0
 1239 02a8 4FEA8303 		lsl	r3, r3, #2
 1240 02ac D318     		adds	r3, r2, r3
 1241 02ae 0A46     		mov	r2, r1
 1242 02b0 5A71     		strb	r2, [r3, #5]
 1243 02b2 24E0     		b	.L84
 1244              	.L81:
 637:.\Generated_Source\PSoC5/USB_std.c ****                                                         USB_MODE_ISO_IN : USB_MODE_ACK_IN;
 638:.\Generated_Source\PSoC5/USB_std.c ****                                 /* Find and initialize CDC IN endpoint number */
 639:.\Generated_Source\PSoC5/USB_std.c ****                                 #if defined(USB_ENABLE_CDC_CLASS)
 640:.\Generated_Source\PSoC5/USB_std.c ****                                     if(((pEP->bMisc == USB_CLASS_CDC_DATA) ||
 641:.\Generated_Source\PSoC5/USB_std.c ****                                         (pEP->bMisc == USB_CLASS_CDC)) &&
 642:.\Generated_Source\PSoC5/USB_std.c ****                                         (epType != USB_EP_TYPE_INT))
 643:.\Generated_Source\PSoC5/USB_std.c ****                                     {
 644:.\Generated_Source\PSoC5/USB_std.c ****                                         USB_cdc_data_in_ep = i;
 645:.\Generated_Source\PSoC5/USB_std.c ****                                     }
 646:.\Generated_Source\PSoC5/USB_std.c ****                                 #endif  /*  USB_ENABLE_CDC_CLASS*/
 647:.\Generated_Source\PSoC5/USB_std.c ****                                 #if ( defined(USB_ENABLE_MIDI_STREAMING) && \
 648:.\Generated_Source\PSoC5/USB_std.c ****                                              (USB_MIDI_IN_BUFF_SIZE > 0) )
 649:.\Generated_Source\PSoC5/USB_std.c ****                                     if((pEP->bMisc == USB_CLASS_AUDIO) &&
 650:.\Generated_Source\PSoC5/USB_std.c ****                                        (epType == USB_EP_TYPE_BULK))
 651:.\Generated_Source\PSoC5/USB_std.c ****                                     {
 652:.\Generated_Source\PSoC5/USB_std.c ****                                         USB_midi_in_ep = i;
 653:.\Generated_Source\PSoC5/USB_std.c ****                                     }
 654:.\Generated_Source\PSoC5/USB_std.c ****                                 #endif  /*  USB_ENABLE_MIDI_STREAMING*/
 655:.\Generated_Source\PSoC5/USB_std.c ****                             }
 656:.\Generated_Source\PSoC5/USB_std.c ****                             else
 657:.\Generated_Source\PSoC5/USB_std.c ****                             {
 658:.\Generated_Source\PSoC5/USB_std.c ****                                 /* OUT Endpoint */
 659:.\Generated_Source\PSoC5/USB_std.c ****                                 USB_EP[i].apiEpState = USB_NO_EVENT_PENDING;
 1245              		.loc 1 659 0 is_stmt 1
 1246 02b4 797F     		ldrb	r1, [r7, #29]	@ zero_extendqisi2
 1247 02b6 40F20002 		movw	r2, #:lower16:USB_EP
ARM GAS  C:\Users\makij\AppData\Local\Temp\ccAkhLin.s 			page 35


 1248 02ba C0F20002 		movt	r2, #:upper16:USB_EP
 1249 02be 0B46     		mov	r3, r1
 1250 02c0 4FEA4303 		lsl	r3, r3, #1
 1251 02c4 5B18     		adds	r3, r3, r1
 1252 02c6 4FEA8303 		lsl	r3, r3, #2
 1253 02ca D318     		adds	r3, r2, r3
 1254 02cc 4FF00002 		mov	r2, #0
 1255 02d0 5A70     		strb	r2, [r3, #1]
 660:.\Generated_Source\PSoC5/USB_std.c ****                                 USB_EP[i].epMode = (epType == USB_EP_TYPE_ISOC) ?
 1256              		.loc 1 660 0
 1257 02d2 787F     		ldrb	r0, [r7, #29]	@ zero_extendqisi2
 1258 02d4 FB7A     		ldrb	r3, [r7, #11]	@ zero_extendqisi2
 1259 02d6 012B     		cmp	r3, #1
 1260 02d8 02D1     		bne	.L85
 1261              		.loc 1 660 0 is_stmt 0 discriminator 1
 1262 02da 4FF00501 		mov	r1, #5
 1263 02de 01E0     		b	.L86
 1264              	.L85:
 1265              		.loc 1 660 0 discriminator 2
 1266 02e0 4FF00901 		mov	r1, #9
 1267              	.L86:
 1268              		.loc 1 660 0 discriminator 3
 1269 02e4 40F20002 		movw	r2, #:lower16:USB_EP
 1270 02e8 C0F20002 		movt	r2, #:upper16:USB_EP
 1271 02ec 0346     		mov	r3, r0
 1272 02ee 4FEA4303 		lsl	r3, r3, #1
 1273 02f2 1B18     		adds	r3, r3, r0
 1274 02f4 4FEA8303 		lsl	r3, r3, #2
 1275 02f8 D318     		adds	r3, r2, r3
 1276 02fa 0A46     		mov	r2, r1
 1277 02fc 5A71     		strb	r2, [r3, #5]
 1278              	.L84:
 661:.\Generated_Source\PSoC5/USB_std.c ****                                                     USB_MODE_ISO_OUT : USB_MODE_ACK_OUT;
 662:.\Generated_Source\PSoC5/USB_std.c ****                                 /* Find and initialize CDC IN endpoint number */
 663:.\Generated_Source\PSoC5/USB_std.c ****                                 #if defined(USB_ENABLE_CDC_CLASS)
 664:.\Generated_Source\PSoC5/USB_std.c ****                                     if(((pEP->bMisc == USB_CLASS_CDC_DATA) ||
 665:.\Generated_Source\PSoC5/USB_std.c ****                                         (pEP->bMisc == USB_CLASS_CDC)) &&
 666:.\Generated_Source\PSoC5/USB_std.c ****                                         (epType != USB_EP_TYPE_INT))
 667:.\Generated_Source\PSoC5/USB_std.c ****                                     {
 668:.\Generated_Source\PSoC5/USB_std.c ****                                         USB_cdc_data_out_ep = i;
 669:.\Generated_Source\PSoC5/USB_std.c ****                                     }
 670:.\Generated_Source\PSoC5/USB_std.c ****                                 #endif  /*  USB_ENABLE_CDC_CLASS*/
 671:.\Generated_Source\PSoC5/USB_std.c ****                                 #if ( defined(USB_ENABLE_MIDI_STREAMING) && \
 672:.\Generated_Source\PSoC5/USB_std.c ****                                              (USB_MIDI_OUT_BUFF_SIZE > 0) )
 673:.\Generated_Source\PSoC5/USB_std.c ****                                     if((pEP->bMisc == USB_CLASS_AUDIO) &&
 674:.\Generated_Source\PSoC5/USB_std.c ****                                        (epType == USB_EP_TYPE_BULK))
 675:.\Generated_Source\PSoC5/USB_std.c ****                                     {
 676:.\Generated_Source\PSoC5/USB_std.c ****                                         USB_midi_out_ep = i;
 677:.\Generated_Source\PSoC5/USB_std.c ****                                     }
 678:.\Generated_Source\PSoC5/USB_std.c ****                                 #endif  /*  USB_ENABLE_MIDI_STREAMING*/
 679:.\Generated_Source\PSoC5/USB_std.c ****                             }
 680:.\Generated_Source\PSoC5/USB_std.c ****                             USB_EP[i].addr = pEP->addr;
 1279              		.loc 1 680 0 is_stmt 1
 1280 02fe 797F     		ldrb	r1, [r7, #29]	@ zero_extendqisi2
 1281 0300 7B69     		ldr	r3, [r7, #20]
 1282 0302 9878     		ldrb	r0, [r3, #2]	@ zero_extendqisi2
 1283 0304 40F20002 		movw	r2, #:lower16:USB_EP
ARM GAS  C:\Users\makij\AppData\Local\Temp\ccAkhLin.s 			page 36


 1284 0308 C0F20002 		movt	r2, #:upper16:USB_EP
 1285 030c 0B46     		mov	r3, r1
 1286 030e 4FEA4303 		lsl	r3, r3, #1
 1287 0312 5B18     		adds	r3, r3, r1
 1288 0314 4FEA8303 		lsl	r3, r3, #2
 1289 0318 D318     		adds	r3, r2, r3
 1290 031a 0246     		mov	r2, r0
 1291 031c 1A71     		strb	r2, [r3, #4]
 681:.\Generated_Source\PSoC5/USB_std.c ****                             USB_EP[i].attrib = pEP->attributes;
 1292              		.loc 1 681 0
 1293 031e 797F     		ldrb	r1, [r7, #29]	@ zero_extendqisi2
 1294 0320 7B69     		ldr	r3, [r7, #20]
 1295 0322 D878     		ldrb	r0, [r3, #3]	@ zero_extendqisi2
 1296 0324 40F20002 		movw	r2, #:lower16:USB_EP
 1297 0328 C0F20002 		movt	r2, #:upper16:USB_EP
 1298 032c 0B46     		mov	r3, r1
 1299 032e 4FEA4303 		lsl	r3, r3, #1
 1300 0332 5B18     		adds	r3, r3, r1
 1301 0334 4FEA8303 		lsl	r3, r3, #2
 1302 0338 D318     		adds	r3, r2, r3
 1303 033a 0246     		mov	r2, r0
 1304 033c 1A70     		strb	r2, [r3, #0]
 1305              	.L79:
 682:.\Generated_Source\PSoC5/USB_std.c **** 
 683:.\Generated_Source\PSoC5/USB_std.c ****                             #if(USB_EP_MM == USB__EP_DMAAUTO)
 684:.\Generated_Source\PSoC5/USB_std.c ****                                 break;      /* use first EP setting in Auto memory managment */
 685:.\Generated_Source\PSoC5/USB_std.c ****                             #endif /*  USB_EP_MM == USB__EP_DMAAUTO */
 686:.\Generated_Source\PSoC5/USB_std.c ****                         }
 687:.\Generated_Source\PSoC5/USB_std.c ****                     }
 688:.\Generated_Source\PSoC5/USB_std.c ****                     pEP = &pEP[1u];
 1306              		.loc 1 688 0
 1307 033e 7B69     		ldr	r3, [r7, #20]
 1308 0340 03F10803 		add	r3, r3, #8
 1309 0344 7B61     		str	r3, [r7, #20]
 619:.\Generated_Source\PSoC5/USB_std.c ****                 for (cur_ep = 0u; cur_ep < ep; cur_ep++)
 1310              		.loc 1 619 0
 1311 0346 BB7F     		ldrb	r3, [r7, #30]
 1312 0348 03F10103 		add	r3, r3, #1
 1313 034c BB77     		strb	r3, [r7, #30]
 1314              	.L78:
 619:.\Generated_Source\PSoC5/USB_std.c ****                 for (cur_ep = 0u; cur_ep < ep; cur_ep++)
 1315              		.loc 1 619 0 is_stmt 0 discriminator 1
 1316 034e BA7F     		ldrb	r2, [r7, #30]	@ zero_extendqisi2
 1317 0350 FB7F     		ldrb	r3, [r7, #31]	@ zero_extendqisi2
 1318 0352 9A42     		cmp	r2, r3
 1319 0354 FFF442AF 		bcc	.L87
 613:.\Generated_Source\PSoC5/USB_std.c ****             for (i = USB_EP1; i < USB_MAX_EP; i++)
 1320              		.loc 1 613 0 is_stmt 1
 1321 0358 7B7F     		ldrb	r3, [r7, #29]
 1322 035a 03F10103 		add	r3, r3, #1
 1323 035e 7B77     		strb	r3, [r7, #29]
 1324              	.L77:
 613:.\Generated_Source\PSoC5/USB_std.c ****             for (i = USB_EP1; i < USB_MAX_EP; i++)
 1325              		.loc 1 613 0 is_stmt 0 discriminator 1
 1326 0360 7B7F     		ldrb	r3, [r7, #29]	@ zero_extendqisi2
 1327 0362 082B     		cmp	r3, #8
 1328 0364 7FF633AF 		bls	.L88
ARM GAS  C:\Users\makij\AppData\Local\Temp\ccAkhLin.s 			page 37


 689:.\Generated_Source\PSoC5/USB_std.c ****                 }
 690:.\Generated_Source\PSoC5/USB_std.c ****             }
 691:.\Generated_Source\PSoC5/USB_std.c ****         #endif /*  (USB_EP_MA == USB__MA_DYNAMIC) */
 692:.\Generated_Source\PSoC5/USB_std.c **** 
 693:.\Generated_Source\PSoC5/USB_std.c ****         /* Init class array for each interface and interface number for each EP.
 694:.\Generated_Source\PSoC5/USB_std.c ****         *  It is used for handling Class specific requests directed to either an
 695:.\Generated_Source\PSoC5/USB_std.c ****         *  interface or the endpoint.
 696:.\Generated_Source\PSoC5/USB_std.c ****         */
 697:.\Generated_Source\PSoC5/USB_std.c ****         /* p_list points the endpoint setting table. */
 698:.\Generated_Source\PSoC5/USB_std.c ****         pEP = (const T_USB_EP_SETTINGS_BLOCK CYCODE *) pTmp->p_list;
 1329              		.loc 1 698 0 is_stmt 1
 1330 0368 3B69     		ldr	r3, [r7, #16]
 1331 036a 5B68     		ldr	r3, [r3, #4]
 1332 036c 7B61     		str	r3, [r7, #20]
 699:.\Generated_Source\PSoC5/USB_std.c ****         for (i = 0u; i < ep; i++)
 1333              		.loc 1 699 0
 1334 036e 4FF00003 		mov	r3, #0
 1335 0372 7B77     		strb	r3, [r7, #29]
 1336 0374 1CE0     		b	.L89
 1337              	.L90:
 700:.\Generated_Source\PSoC5/USB_std.c ****         {
 701:.\Generated_Source\PSoC5/USB_std.c ****             /* Configure interface number for each EP*/
 702:.\Generated_Source\PSoC5/USB_std.c ****             USB_EP[pEP->addr & USB_DIR_UNUSED].interface = pEP->interface;
 1338              		.loc 1 702 0 discriminator 2
 1339 0376 7B69     		ldr	r3, [r7, #20]
 1340 0378 9B78     		ldrb	r3, [r3, #2]	@ zero_extendqisi2
 1341 037a 03F07F01 		and	r1, r3, #127
 1342 037e 7B69     		ldr	r3, [r7, #20]
 1343 0380 1878     		ldrb	r0, [r3, #0]	@ zero_extendqisi2
 1344 0382 40F20002 		movw	r2, #:lower16:USB_EP
 1345 0386 C0F20002 		movt	r2, #:upper16:USB_EP
 1346 038a 0B46     		mov	r3, r1
 1347 038c 4FEA4303 		lsl	r3, r3, #1
 1348 0390 5B18     		adds	r3, r3, r1
 1349 0392 4FEA8303 		lsl	r3, r3, #2
 1350 0396 D318     		adds	r3, r2, r3
 1351 0398 03F10803 		add	r3, r3, #8
 1352 039c 0246     		mov	r2, r0
 1353 039e 9A70     		strb	r2, [r3, #2]
 703:.\Generated_Source\PSoC5/USB_std.c ****             pEP = &pEP[1u];
 1354              		.loc 1 703 0 discriminator 2
 1355 03a0 7B69     		ldr	r3, [r7, #20]
 1356 03a2 03F10803 		add	r3, r3, #8
 1357 03a6 7B61     		str	r3, [r7, #20]
 699:.\Generated_Source\PSoC5/USB_std.c ****         for (i = 0u; i < ep; i++)
 1358              		.loc 1 699 0 discriminator 2
 1359 03a8 7B7F     		ldrb	r3, [r7, #29]
 1360 03aa 03F10103 		add	r3, r3, #1
 1361 03ae 7B77     		strb	r3, [r7, #29]
 1362              	.L89:
 699:.\Generated_Source\PSoC5/USB_std.c ****         for (i = 0u; i < ep; i++)
 1363              		.loc 1 699 0 is_stmt 0 discriminator 1
 1364 03b0 7A7F     		ldrb	r2, [r7, #29]	@ zero_extendqisi2
 1365 03b2 FB7F     		ldrb	r3, [r7, #31]	@ zero_extendqisi2
 1366 03b4 9A42     		cmp	r2, r3
 1367 03b6 DED3     		bcc	.L90
 704:.\Generated_Source\PSoC5/USB_std.c ****         }
ARM GAS  C:\Users\makij\AppData\Local\Temp\ccAkhLin.s 			page 38


 705:.\Generated_Source\PSoC5/USB_std.c ****         /* Init pointer on interface class table*/
 706:.\Generated_Source\PSoC5/USB_std.c ****         USB_interfaceClass = USB_GetInterfaceClassTablePtr();
 1368              		.loc 1 706 0 is_stmt 1
 1369 03b8 FFF7FEFF 		bl	USB_GetInterfaceClassTablePtr
 1370 03bc 0246     		mov	r2, r0
 1371 03be 40F20003 		movw	r3, #:lower16:USB_interfaceClass
 1372 03c2 C0F20003 		movt	r3, #:upper16:USB_interfaceClass
 1373 03c6 1A60     		str	r2, [r3, #0]
 707:.\Generated_Source\PSoC5/USB_std.c ****         /* Set the endpoint buffer addresses */
 708:.\Generated_Source\PSoC5/USB_std.c **** 
 709:.\Generated_Source\PSoC5/USB_std.c ****         #if(USB_EP_MM != USB__EP_DMAAUTO)
 710:.\Generated_Source\PSoC5/USB_std.c ****             for (ep = USB_EP1; ep < USB_MAX_EP; ep++)
 1374              		.loc 1 710 0
 1375 03c8 4FF00103 		mov	r3, #1
 1376 03cc FB77     		strb	r3, [r7, #31]
 1377 03ce 24E0     		b	.L91
 1378              	.L92:
 711:.\Generated_Source\PSoC5/USB_std.c ****             {
 712:.\Generated_Source\PSoC5/USB_std.c ****                 USB_EP[ep].buffOffset = buffCount;
 1379              		.loc 1 712 0 discriminator 2
 1380 03d0 F97F     		ldrb	r1, [r7, #31]	@ zero_extendqisi2
 1381 03d2 40F20002 		movw	r2, #:lower16:USB_EP
 1382 03d6 C0F20002 		movt	r2, #:upper16:USB_EP
 1383 03da 0B46     		mov	r3, r1
 1384 03dc 4FEA4303 		lsl	r3, r3, #1
 1385 03e0 5B18     		adds	r3, r3, r1
 1386 03e2 4FEA8303 		lsl	r3, r3, #2
 1387 03e6 D318     		adds	r3, r2, r3
 1388 03e8 7A8B     		ldrh	r2, [r7, #26]	@ movhi
 1389 03ea DA80     		strh	r2, [r3, #6]	@ movhi
 713:.\Generated_Source\PSoC5/USB_std.c ****                  buffCount += USB_EP[ep].bufferSize;
 1390              		.loc 1 713 0 discriminator 2
 1391 03ec F97F     		ldrb	r1, [r7, #31]	@ zero_extendqisi2
 1392 03ee 40F20002 		movw	r2, #:lower16:USB_EP
 1393 03f2 C0F20002 		movt	r2, #:upper16:USB_EP
 1394 03f6 0B46     		mov	r3, r1
 1395 03f8 4FEA4303 		lsl	r3, r3, #1
 1396 03fc 5B18     		adds	r3, r3, r1
 1397 03fe 4FEA8303 		lsl	r3, r3, #2
 1398 0402 D318     		adds	r3, r2, r3
 1399 0404 03F10803 		add	r3, r3, #8
 1400 0408 1B88     		ldrh	r3, [r3, #0]	@ movhi
 1401 040a 9AB2     		uxth	r2, r3
 1402 040c 7B8B     		ldrh	r3, [r7, #26]	@ movhi
 1403 040e D318     		adds	r3, r2, r3
 1404 0410 7B83     		strh	r3, [r7, #26]	@ movhi
 710:.\Generated_Source\PSoC5/USB_std.c ****             for (ep = USB_EP1; ep < USB_MAX_EP; ep++)
 1405              		.loc 1 710 0 discriminator 2
 1406 0412 FB7F     		ldrb	r3, [r7, #31]
 1407 0414 03F10103 		add	r3, r3, #1
 1408 0418 FB77     		strb	r3, [r7, #31]
 1409              	.L91:
 710:.\Generated_Source\PSoC5/USB_std.c ****             for (ep = USB_EP1; ep < USB_MAX_EP; ep++)
 1410              		.loc 1 710 0 is_stmt 0 discriminator 1
 1411 041a FB7F     		ldrb	r3, [r7, #31]	@ zero_extendqisi2
 1412 041c 082B     		cmp	r3, #8
 1413 041e D7D9     		bls	.L92
ARM GAS  C:\Users\makij\AppData\Local\Temp\ccAkhLin.s 			page 39


 714:.\Generated_Source\PSoC5/USB_std.c ****             }
 715:.\Generated_Source\PSoC5/USB_std.c ****         #endif /*  USB_EP_MM != USB__EP_DMAAUTO */
 716:.\Generated_Source\PSoC5/USB_std.c **** 
 717:.\Generated_Source\PSoC5/USB_std.c ****         /* Configure hardware registers */
 718:.\Generated_Source\PSoC5/USB_std.c ****         USB_ConfigReg();
 1414              		.loc 1 718 0 is_stmt 1
 1415 0420 FFF7FEFF 		bl	USB_ConfigReg
 1416              	.L68:
 719:.\Generated_Source\PSoC5/USB_std.c ****     } /* USB_configuration > 0 */
 720:.\Generated_Source\PSoC5/USB_std.c **** }
 1417              		.loc 1 720 0
 1418 0424 07F12007 		add	r7, r7, #32
 1419 0428 BD46     		mov	sp, r7
 1420 042a 80BD     		pop	{r7, pc}
 1421              		.cfi_endproc
 1422              	.LFE2:
 1423              		.size	USB_Config, .-USB_Config
 1424              		.section	.text.USB_ConfigAltChanged,"ax",%progbits
 1425              		.align	2
 1426              		.global	USB_ConfigAltChanged
 1427              		.thumb
 1428              		.thumb_func
 1429              		.type	USB_ConfigAltChanged, %function
 1430              	USB_ConfigAltChanged:
 1431              	.LFB3:
 721:.\Generated_Source\PSoC5/USB_std.c **** 
 722:.\Generated_Source\PSoC5/USB_std.c **** 
 723:.\Generated_Source\PSoC5/USB_std.c **** /*******************************************************************************
 724:.\Generated_Source\PSoC5/USB_std.c **** * Function Name: USB_ConfigAltChanged
 725:.\Generated_Source\PSoC5/USB_std.c **** ********************************************************************************
 726:.\Generated_Source\PSoC5/USB_std.c **** *
 727:.\Generated_Source\PSoC5/USB_std.c **** * Summary:
 728:.\Generated_Source\PSoC5/USB_std.c **** *  This routine update configuration for the required endpoints only.
 729:.\Generated_Source\PSoC5/USB_std.c **** *  It is called after SET_INTERFACE request when Static memory allocation used.
 730:.\Generated_Source\PSoC5/USB_std.c **** *
 731:.\Generated_Source\PSoC5/USB_std.c **** * Parameters:
 732:.\Generated_Source\PSoC5/USB_std.c **** *  None.
 733:.\Generated_Source\PSoC5/USB_std.c **** *
 734:.\Generated_Source\PSoC5/USB_std.c **** * Return:
 735:.\Generated_Source\PSoC5/USB_std.c **** *  None.
 736:.\Generated_Source\PSoC5/USB_std.c **** *
 737:.\Generated_Source\PSoC5/USB_std.c **** * Reentrant:
 738:.\Generated_Source\PSoC5/USB_std.c **** *  No.
 739:.\Generated_Source\PSoC5/USB_std.c **** *
 740:.\Generated_Source\PSoC5/USB_std.c **** *******************************************************************************/
 741:.\Generated_Source\PSoC5/USB_std.c **** void USB_ConfigAltChanged(void) 
 742:.\Generated_Source\PSoC5/USB_std.c **** {
 1432              		.loc 1 742 0
 1433              		.cfi_startproc
 1434              		@ args = 0, pretend = 0, frame = 16
 1435              		@ frame_needed = 1, uses_anonymous_args = 0
 1436 0000 80B5     		push	{r7, lr}
 1437              	.LCFI9:
 1438              		.cfi_def_cfa_offset 8
 1439              		.cfi_offset 7, -8
 1440              		.cfi_offset 14, -4
 1441 0002 84B0     		sub	sp, sp, #16
ARM GAS  C:\Users\makij\AppData\Local\Temp\ccAkhLin.s 			page 40


 1442              	.LCFI10:
 1443              		.cfi_def_cfa_offset 24
 1444 0004 00AF     		add	r7, sp, #0
 1445              	.LCFI11:
 1446              		.cfi_def_cfa_register 7
 743:.\Generated_Source\PSoC5/USB_std.c ****     uint8 ep;
 744:.\Generated_Source\PSoC5/USB_std.c ****     uint8 cur_ep;
 745:.\Generated_Source\PSoC5/USB_std.c ****     uint8 i;
 746:.\Generated_Source\PSoC5/USB_std.c ****     uint8 epType;
 747:.\Generated_Source\PSoC5/USB_std.c ****     uint8 ri;
 748:.\Generated_Source\PSoC5/USB_std.c **** 
 749:.\Generated_Source\PSoC5/USB_std.c ****     const T_USB_LUT CYCODE *pTmp;
 750:.\Generated_Source\PSoC5/USB_std.c ****     const T_USB_EP_SETTINGS_BLOCK CYCODE *pEP;
 751:.\Generated_Source\PSoC5/USB_std.c **** 
 752:.\Generated_Source\PSoC5/USB_std.c **** 
 753:.\Generated_Source\PSoC5/USB_std.c ****     /* Init Endpoints and Device Status if configured */
 754:.\Generated_Source\PSoC5/USB_std.c ****     if(USB_configuration > 0u)
 1447              		.loc 1 754 0
 1448 0006 40F20003 		movw	r3, #:lower16:USB_configuration
 1449 000a C0F20003 		movt	r3, #:upper16:USB_configuration
 1450 000e 1B78     		ldrb	r3, [r3, #0]
 1451 0010 DBB2     		uxtb	r3, r3
 1452 0012 002B     		cmp	r3, #0
 1453 0014 00F09981 		beq	.L93
 755:.\Generated_Source\PSoC5/USB_std.c ****     {
 756:.\Generated_Source\PSoC5/USB_std.c ****         pTmp = USB_GetConfigTablePtr(USB_configuration - 1u);
 1454              		.loc 1 756 0
 1455 0018 40F20003 		movw	r3, #:lower16:USB_configuration
 1456 001c C0F20003 		movt	r3, #:upper16:USB_configuration
 1457 0020 1B78     		ldrb	r3, [r3, #0]
 1458 0022 DBB2     		uxtb	r3, r3
 1459 0024 03F1FF33 		add	r3, r3, #-1
 1460 0028 DBB2     		uxtb	r3, r3
 1461 002a 1846     		mov	r0, r3
 1462 002c FFF7FEFF 		bl	USB_GetConfigTablePtr
 1463 0030 7860     		str	r0, [r7, #4]
 757:.\Generated_Source\PSoC5/USB_std.c ****         pTmp = &pTmp[1u];
 1464              		.loc 1 757 0
 1465 0032 7B68     		ldr	r3, [r7, #4]
 1466 0034 03F10803 		add	r3, r3, #8
 1467 0038 7B60     		str	r3, [r7, #4]
 758:.\Generated_Source\PSoC5/USB_std.c ****         ep = pTmp->c;  /* For this table, c is the number of endpoints configurations  */
 1468              		.loc 1 758 0
 1469 003a 7B68     		ldr	r3, [r7, #4]
 1470 003c 1B78     		ldrb	r3, [r3, #0]
 1471 003e FB70     		strb	r3, [r7, #3]
 759:.\Generated_Source\PSoC5/USB_std.c **** 
 760:.\Generated_Source\PSoC5/USB_std.c ****         /* Do not touch EP which doesn't need reconfiguration */
 761:.\Generated_Source\PSoC5/USB_std.c ****         /* When Alt setting changed, the only required endpoints need to be reconfigured */
 762:.\Generated_Source\PSoC5/USB_std.c ****         /* p_list points the endpoint setting table. */
 763:.\Generated_Source\PSoC5/USB_std.c ****         pEP = (const T_USB_EP_SETTINGS_BLOCK CYCODE *) pTmp->p_list;
 1472              		.loc 1 763 0
 1473 0040 7B68     		ldr	r3, [r7, #4]
 1474 0042 5B68     		ldr	r3, [r3, #4]
 1475 0044 BB60     		str	r3, [r7, #8]
 764:.\Generated_Source\PSoC5/USB_std.c ****         for (i = 0u; i < ep; i++)
 1476              		.loc 1 764 0
ARM GAS  C:\Users\makij\AppData\Local\Temp\ccAkhLin.s 			page 41


 1477 0046 4FF00003 		mov	r3, #0
 1478 004a FB73     		strb	r3, [r7, #15]
 1479 004c 78E1     		b	.L95
 1480              	.L103:
 765:.\Generated_Source\PSoC5/USB_std.c ****         {
 766:.\Generated_Source\PSoC5/USB_std.c ****             /*If Alt setting changed and new is same with EP Alt */
 767:.\Generated_Source\PSoC5/USB_std.c ****             if((USB_interfaceSetting[pEP->interface] !=
 1481              		.loc 1 767 0
 1482 004e BB68     		ldr	r3, [r7, #8]
 1483 0050 1B78     		ldrb	r3, [r3, #0]	@ zero_extendqisi2
 1484 0052 1A46     		mov	r2, r3
 1485 0054 40F20003 		movw	r3, #:lower16:USB_interfaceSetting
 1486 0058 C0F20003 		movt	r3, #:upper16:USB_interfaceSetting
 1487 005c 9B5C     		ldrb	r3, [r3, r2]
 1488 005e DAB2     		uxtb	r2, r3
 768:.\Generated_Source\PSoC5/USB_std.c ****                 USB_interfaceSetting_last[pEP->interface] ) &&
 1489              		.loc 1 768 0
 1490 0060 BB68     		ldr	r3, [r7, #8]
 1491 0062 1B78     		ldrb	r3, [r3, #0]	@ zero_extendqisi2
 1492 0064 1946     		mov	r1, r3
 1493 0066 40F20003 		movw	r3, #:lower16:USB_interfaceSetting_last
 1494 006a C0F20003 		movt	r3, #:upper16:USB_interfaceSetting_last
 1495 006e 5B5C     		ldrb	r3, [r3, r1]
 1496 0070 DBB2     		uxtb	r3, r3
 767:.\Generated_Source\PSoC5/USB_std.c ****             if((USB_interfaceSetting[pEP->interface] !=
 1497              		.loc 1 767 0
 1498 0072 9A42     		cmp	r2, r3
 1499 0074 00F05C81 		beq	.L96
 769:.\Generated_Source\PSoC5/USB_std.c ****                (USB_interfaceSetting[pEP->interface] == pEP->altSetting) &&
 1500              		.loc 1 769 0
 1501 0078 BB68     		ldr	r3, [r7, #8]
 1502 007a 1B78     		ldrb	r3, [r3, #0]	@ zero_extendqisi2
 1503 007c 1A46     		mov	r2, r3
 1504 007e 40F20003 		movw	r3, #:lower16:USB_interfaceSetting
 1505 0082 C0F20003 		movt	r3, #:upper16:USB_interfaceSetting
 1506 0086 9B5C     		ldrb	r3, [r3, r2]
 1507 0088 DAB2     		uxtb	r2, r3
 1508 008a BB68     		ldr	r3, [r7, #8]
 1509 008c 5B78     		ldrb	r3, [r3, #1]	@ zero_extendqisi2
 768:.\Generated_Source\PSoC5/USB_std.c ****                 USB_interfaceSetting_last[pEP->interface] ) &&
 1510              		.loc 1 768 0
 1511 008e 9A42     		cmp	r2, r3
 1512 0090 40F04E81 		bne	.L96
 770:.\Generated_Source\PSoC5/USB_std.c ****                (pEP->interface == CY_GET_REG8(USB_wIndexLo)))
 1513              		.loc 1 770 0
 1514 0094 BB68     		ldr	r3, [r7, #8]
 1515 0096 1A78     		ldrb	r2, [r3, #0]	@ zero_extendqisi2
 1516 0098 46F20403 		movw	r3, #24580
 1517 009c C4F20003 		movt	r3, 16384
 1518 00a0 1B78     		ldrb	r3, [r3, #0]
 1519 00a2 DBB2     		uxtb	r3, r3
 769:.\Generated_Source\PSoC5/USB_std.c ****                (USB_interfaceSetting[pEP->interface] == pEP->altSetting) &&
 1520              		.loc 1 769 0
 1521 00a4 9A42     		cmp	r2, r3
 1522 00a6 40F04381 		bne	.L96
 771:.\Generated_Source\PSoC5/USB_std.c ****             {
 772:.\Generated_Source\PSoC5/USB_std.c ****                 cur_ep = pEP->addr & USB_DIR_UNUSED;
ARM GAS  C:\Users\makij\AppData\Local\Temp\ccAkhLin.s 			page 42


 1523              		.loc 1 772 0
 1524 00aa BB68     		ldr	r3, [r7, #8]
 1525 00ac 9B78     		ldrb	r3, [r3, #2]	@ zero_extendqisi2
 1526 00ae 03F07F03 		and	r3, r3, #127
 1527 00b2 BB70     		strb	r3, [r7, #2]
 773:.\Generated_Source\PSoC5/USB_std.c ****                 ri = ((cur_ep - USB_EP1) << USB_EPX_CNTX_ADDR_SHIFT);
 1528              		.loc 1 773 0
 1529 00b4 BB78     		ldrb	r3, [r7, #2]
 1530 00b6 03F1FF33 		add	r3, r3, #-1
 1531 00ba DBB2     		uxtb	r3, r3
 1532 00bc 4FEA0313 		lsl	r3, r3, #4
 1533 00c0 7B70     		strb	r3, [r7, #1]
 774:.\Generated_Source\PSoC5/USB_std.c ****                 epType = pEP->attributes & USB_EP_TYPE_MASK;
 1534              		.loc 1 774 0
 1535 00c2 BB68     		ldr	r3, [r7, #8]
 1536 00c4 DB78     		ldrb	r3, [r3, #3]	@ zero_extendqisi2
 1537 00c6 03F00303 		and	r3, r3, #3
 1538 00ca 3B70     		strb	r3, [r7, #0]
 775:.\Generated_Source\PSoC5/USB_std.c ****                 if ((pEP->addr & USB_DIR_IN) != 0u)
 1539              		.loc 1 775 0
 1540 00cc BB68     		ldr	r3, [r7, #8]
 1541 00ce 9B78     		ldrb	r3, [r3, #2]	@ zero_extendqisi2
 1542 00d0 DBB2     		uxtb	r3, r3
 1543 00d2 5BB2     		sxtb	r3, r3
 1544 00d4 002B     		cmp	r3, #0
 1545 00d6 25DA     		bge	.L97
 776:.\Generated_Source\PSoC5/USB_std.c ****                 {
 777:.\Generated_Source\PSoC5/USB_std.c ****                     /* IN Endpoint */
 778:.\Generated_Source\PSoC5/USB_std.c ****                     USB_EP[cur_ep].apiEpState = USB_EVENT_PENDING;
 1546              		.loc 1 778 0
 1547 00d8 B978     		ldrb	r1, [r7, #2]	@ zero_extendqisi2
 1548 00da 40F20002 		movw	r2, #:lower16:USB_EP
 1549 00de C0F20002 		movt	r2, #:upper16:USB_EP
 1550 00e2 0B46     		mov	r3, r1
 1551 00e4 4FEA4303 		lsl	r3, r3, #1
 1552 00e8 5B18     		adds	r3, r3, r1
 1553 00ea 4FEA8303 		lsl	r3, r3, #2
 1554 00ee D318     		adds	r3, r2, r3
 1555 00f0 4FF00102 		mov	r2, #1
 1556 00f4 5A70     		strb	r2, [r3, #1]
 779:.\Generated_Source\PSoC5/USB_std.c ****                     USB_EP[cur_ep].epMode = (epType == USB_EP_TYPE_ISOC) ?
 1557              		.loc 1 779 0
 1558 00f6 B878     		ldrb	r0, [r7, #2]	@ zero_extendqisi2
 1559 00f8 3B78     		ldrb	r3, [r7, #0]	@ zero_extendqisi2
 1560 00fa 012B     		cmp	r3, #1
 1561 00fc 02D1     		bne	.L98
 1562              		.loc 1 779 0 is_stmt 0 discriminator 1
 1563 00fe 4FF00701 		mov	r1, #7
 1564 0102 01E0     		b	.L99
 1565              	.L98:
 1566              		.loc 1 779 0 discriminator 2
 1567 0104 4FF00D01 		mov	r1, #13
 1568              	.L99:
 1569              		.loc 1 779 0 discriminator 3
 1570 0108 40F20002 		movw	r2, #:lower16:USB_EP
 1571 010c C0F20002 		movt	r2, #:upper16:USB_EP
 1572 0110 0346     		mov	r3, r0
ARM GAS  C:\Users\makij\AppData\Local\Temp\ccAkhLin.s 			page 43


 1573 0112 4FEA4303 		lsl	r3, r3, #1
 1574 0116 1B18     		adds	r3, r3, r0
 1575 0118 4FEA8303 		lsl	r3, r3, #2
 1576 011c D318     		adds	r3, r2, r3
 1577 011e 0A46     		mov	r2, r1
 1578 0120 5A71     		strb	r2, [r3, #5]
 1579 0122 24E0     		b	.L100
 1580              	.L97:
 780:.\Generated_Source\PSoC5/USB_std.c ****                                                 USB_MODE_ISO_IN : USB_MODE_ACK_IN;
 781:.\Generated_Source\PSoC5/USB_std.c ****                 }
 782:.\Generated_Source\PSoC5/USB_std.c ****                 else
 783:.\Generated_Source\PSoC5/USB_std.c ****                 {
 784:.\Generated_Source\PSoC5/USB_std.c ****                     /* OUT Endpoint */
 785:.\Generated_Source\PSoC5/USB_std.c ****                     USB_EP[cur_ep].apiEpState = USB_NO_EVENT_PENDING;
 1581              		.loc 1 785 0 is_stmt 1
 1582 0124 B978     		ldrb	r1, [r7, #2]	@ zero_extendqisi2
 1583 0126 40F20002 		movw	r2, #:lower16:USB_EP
 1584 012a C0F20002 		movt	r2, #:upper16:USB_EP
 1585 012e 0B46     		mov	r3, r1
 1586 0130 4FEA4303 		lsl	r3, r3, #1
 1587 0134 5B18     		adds	r3, r3, r1
 1588 0136 4FEA8303 		lsl	r3, r3, #2
 1589 013a D318     		adds	r3, r2, r3
 1590 013c 4FF00002 		mov	r2, #0
 1591 0140 5A70     		strb	r2, [r3, #1]
 786:.\Generated_Source\PSoC5/USB_std.c ****                     USB_EP[cur_ep].epMode = (epType == USB_EP_TYPE_ISOC) ?
 1592              		.loc 1 786 0
 1593 0142 B878     		ldrb	r0, [r7, #2]	@ zero_extendqisi2
 1594 0144 3B78     		ldrb	r3, [r7, #0]	@ zero_extendqisi2
 1595 0146 012B     		cmp	r3, #1
 1596 0148 02D1     		bne	.L101
 1597              		.loc 1 786 0 is_stmt 0 discriminator 1
 1598 014a 4FF00501 		mov	r1, #5
 1599 014e 01E0     		b	.L102
 1600              	.L101:
 1601              		.loc 1 786 0 discriminator 2
 1602 0150 4FF00901 		mov	r1, #9
 1603              	.L102:
 1604              		.loc 1 786 0 discriminator 3
 1605 0154 40F20002 		movw	r2, #:lower16:USB_EP
 1606 0158 C0F20002 		movt	r2, #:upper16:USB_EP
 1607 015c 0346     		mov	r3, r0
 1608 015e 4FEA4303 		lsl	r3, r3, #1
 1609 0162 1B18     		adds	r3, r3, r0
 1610 0164 4FEA8303 		lsl	r3, r3, #2
 1611 0168 D318     		adds	r3, r2, r3
 1612 016a 0A46     		mov	r2, r1
 1613 016c 5A71     		strb	r2, [r3, #5]
 1614              	.L100:
 787:.\Generated_Source\PSoC5/USB_std.c ****                                                 USB_MODE_ISO_OUT : USB_MODE_ACK_OUT;
 788:.\Generated_Source\PSoC5/USB_std.c ****                 }
 789:.\Generated_Source\PSoC5/USB_std.c ****                  /* Change the SIE mode for the selected EP to NAK ALL */
 790:.\Generated_Source\PSoC5/USB_std.c ****                  CY_SET_REG8((reg8 *)(USB_SIE_EP1_CR0_IND + ri), USB_MODE_NAK_IN_OUT);
 1615              		.loc 1 790 0 is_stmt 1
 1616 016e 7A78     		ldrb	r2, [r7, #1]	@ zero_extendqisi2
 1617 0170 46F20E03 		movw	r3, #24590
 1618 0174 C4F20003 		movt	r3, 16384
ARM GAS  C:\Users\makij\AppData\Local\Temp\ccAkhLin.s 			page 44


 1619 0178 D318     		adds	r3, r2, r3
 1620 017a 4FF00102 		mov	r2, #1
 1621 017e 1A70     		strb	r2, [r3, #0]
 791:.\Generated_Source\PSoC5/USB_std.c ****                 USB_EP[cur_ep].bufferSize = pEP->bufferSize;
 1622              		.loc 1 791 0
 1623 0180 B978     		ldrb	r1, [r7, #2]	@ zero_extendqisi2
 1624 0182 BB68     		ldr	r3, [r7, #8]
 1625 0184 9888     		ldrh	r0, [r3, #4]
 1626 0186 40F20002 		movw	r2, #:lower16:USB_EP
 1627 018a C0F20002 		movt	r2, #:upper16:USB_EP
 1628 018e 0B46     		mov	r3, r1
 1629 0190 4FEA4303 		lsl	r3, r3, #1
 1630 0194 5B18     		adds	r3, r3, r1
 1631 0196 4FEA8303 		lsl	r3, r3, #2
 1632 019a D318     		adds	r3, r2, r3
 1633 019c 03F10803 		add	r3, r3, #8
 1634 01a0 0246     		mov	r2, r0	@ movhi
 1635 01a2 1A80     		strh	r2, [r3, #0]	@ movhi
 792:.\Generated_Source\PSoC5/USB_std.c ****                 USB_EP[cur_ep].addr = pEP->addr;
 1636              		.loc 1 792 0
 1637 01a4 B978     		ldrb	r1, [r7, #2]	@ zero_extendqisi2
 1638 01a6 BB68     		ldr	r3, [r7, #8]
 1639 01a8 9878     		ldrb	r0, [r3, #2]	@ zero_extendqisi2
 1640 01aa 40F20002 		movw	r2, #:lower16:USB_EP
 1641 01ae C0F20002 		movt	r2, #:upper16:USB_EP
 1642 01b2 0B46     		mov	r3, r1
 1643 01b4 4FEA4303 		lsl	r3, r3, #1
 1644 01b8 5B18     		adds	r3, r3, r1
 1645 01ba 4FEA8303 		lsl	r3, r3, #2
 1646 01be D318     		adds	r3, r2, r3
 1647 01c0 0246     		mov	r2, r0
 1648 01c2 1A71     		strb	r2, [r3, #4]
 793:.\Generated_Source\PSoC5/USB_std.c ****                 USB_EP[cur_ep].attrib = pEP->attributes;
 1649              		.loc 1 793 0
 1650 01c4 B978     		ldrb	r1, [r7, #2]	@ zero_extendqisi2
 1651 01c6 BB68     		ldr	r3, [r7, #8]
 1652 01c8 D878     		ldrb	r0, [r3, #3]	@ zero_extendqisi2
 1653 01ca 40F20002 		movw	r2, #:lower16:USB_EP
 1654 01ce C0F20002 		movt	r2, #:upper16:USB_EP
 1655 01d2 0B46     		mov	r3, r1
 1656 01d4 4FEA4303 		lsl	r3, r3, #1
 1657 01d8 5B18     		adds	r3, r3, r1
 1658 01da 4FEA8303 		lsl	r3, r3, #2
 1659 01de D318     		adds	r3, r2, r3
 1660 01e0 0246     		mov	r2, r0
 1661 01e2 1A70     		strb	r2, [r3, #0]
 794:.\Generated_Source\PSoC5/USB_std.c **** 
 795:.\Generated_Source\PSoC5/USB_std.c ****                 /* Clear the data toggle */
 796:.\Generated_Source\PSoC5/USB_std.c ****                 USB_EP[cur_ep].epToggle = 0u;
 1662              		.loc 1 796 0
 1663 01e4 B978     		ldrb	r1, [r7, #2]	@ zero_extendqisi2
 1664 01e6 40F20002 		movw	r2, #:lower16:USB_EP
 1665 01ea C0F20002 		movt	r2, #:upper16:USB_EP
 1666 01ee 0B46     		mov	r3, r1
 1667 01f0 4FEA4303 		lsl	r3, r3, #1
 1668 01f4 5B18     		adds	r3, r3, r1
 1669 01f6 4FEA8303 		lsl	r3, r3, #2
ARM GAS  C:\Users\makij\AppData\Local\Temp\ccAkhLin.s 			page 45


 1670 01fa D318     		adds	r3, r2, r3
 1671 01fc 4FF00002 		mov	r2, #0
 1672 0200 DA70     		strb	r2, [r3, #3]
 797:.\Generated_Source\PSoC5/USB_std.c **** 
 798:.\Generated_Source\PSoC5/USB_std.c ****                 /* Dynamic reconfiguration for mode 3 transfer */
 799:.\Generated_Source\PSoC5/USB_std.c ****             #if(USB_EP_MM == USB__EP_DMAAUTO)
 800:.\Generated_Source\PSoC5/USB_std.c ****                 /* In_data_rdy for selected EP should be set to 0 */
 801:.\Generated_Source\PSoC5/USB_std.c ****                 * (reg8 *)(USB_ARB_EP1_CFG_IND + ri) &= (uint8)~USB_ARB_EPX_CFG_IN_DATA_RDY;
 802:.\Generated_Source\PSoC5/USB_std.c **** 
 803:.\Generated_Source\PSoC5/USB_std.c ****                 /* write the EP number for which reconfiguration is required */
 804:.\Generated_Source\PSoC5/USB_std.c ****                 USB_DYN_RECONFIG_REG = (cur_ep - USB_EP1) <<
 805:.\Generated_Source\PSoC5/USB_std.c ****                                                     USB_DYN_RECONFIG_EP_SHIFT;
 806:.\Generated_Source\PSoC5/USB_std.c ****                 /* Set the dyn_config_en bit in dynamic reconfiguration register */
 807:.\Generated_Source\PSoC5/USB_std.c ****                 USB_DYN_RECONFIG_REG |= USB_DYN_RECONFIG_ENABLE;
 808:.\Generated_Source\PSoC5/USB_std.c ****                 /* wait for the dyn_config_rdy bit to set by the block,
 809:.\Generated_Source\PSoC5/USB_std.c ****                 *  this bit will be set to 1 when block is ready for reconfiguration.
 810:.\Generated_Source\PSoC5/USB_std.c ****                 */
 811:.\Generated_Source\PSoC5/USB_std.c ****                 while((USB_DYN_RECONFIG_REG & USB_DYN_RECONFIG_RDY_STS) == 0u)
 812:.\Generated_Source\PSoC5/USB_std.c ****                 {
 813:.\Generated_Source\PSoC5/USB_std.c ****                     ;
 814:.\Generated_Source\PSoC5/USB_std.c ****                 }
 815:.\Generated_Source\PSoC5/USB_std.c ****                 /* Once dyn_config_rdy bit is set, FW can change the EP configuration. */
 816:.\Generated_Source\PSoC5/USB_std.c ****                 /* Change EP Type with new direction */
 817:.\Generated_Source\PSoC5/USB_std.c ****                 if((pEP->addr & USB_DIR_IN) == 0u)
 818:.\Generated_Source\PSoC5/USB_std.c ****                 {
 819:.\Generated_Source\PSoC5/USB_std.c ****                     USB_EP_TYPE_REG |= (uint8)(0x01u << (cur_ep - USB_EP1));
 820:.\Generated_Source\PSoC5/USB_std.c ****                 }
 821:.\Generated_Source\PSoC5/USB_std.c ****                 else
 822:.\Generated_Source\PSoC5/USB_std.c ****                 {
 823:.\Generated_Source\PSoC5/USB_std.c ****                     USB_EP_TYPE_REG &= (uint8)~(uint8)(0x01u << (cur_ep - USB_EP1));
 824:.\Generated_Source\PSoC5/USB_std.c ****                 }
 825:.\Generated_Source\PSoC5/USB_std.c ****                 /* dynamic reconfiguration enable bit cleared, pointers and control/status
 826:.\Generated_Source\PSoC5/USB_std.c ****                 *  signals for the selected EP is cleared/re-initialized on negative edge
 827:.\Generated_Source\PSoC5/USB_std.c ****                 *  of dynamic reconfiguration enable bit).
 828:.\Generated_Source\PSoC5/USB_std.c ****                 */
 829:.\Generated_Source\PSoC5/USB_std.c ****                 USB_DYN_RECONFIG_REG &= (uint8)~USB_DYN_RECONFIG_ENABLE;
 830:.\Generated_Source\PSoC5/USB_std.c ****                 /* The main loop has to re-enable DMA and OUT endpoint*/
 831:.\Generated_Source\PSoC5/USB_std.c ****             #else
 832:.\Generated_Source\PSoC5/USB_std.c ****                 CY_SET_REG8((reg8 *)(USB_SIE_EP1_CNT0_IND + ri),
 1673              		.loc 1 832 0
 1674 0202 7A78     		ldrb	r2, [r7, #1]	@ zero_extendqisi2
 1675 0204 46F20C03 		movw	r3, #24588
 1676 0208 C4F20003 		movt	r3, 16384
 1677 020c D318     		adds	r3, r2, r3
 1678 020e 1846     		mov	r0, r3
 1679 0210 B978     		ldrb	r1, [r7, #2]	@ zero_extendqisi2
 1680 0212 40F20002 		movw	r2, #:lower16:USB_EP
 1681 0216 C0F20002 		movt	r2, #:upper16:USB_EP
 1682 021a 0B46     		mov	r3, r1
 1683 021c 4FEA4303 		lsl	r3, r3, #1
 1684 0220 5B18     		adds	r3, r3, r1
 1685 0222 4FEA8303 		lsl	r3, r3, #2
 1686 0226 D318     		adds	r3, r2, r3
 1687 0228 03F10803 		add	r3, r3, #8
 1688 022c 1B88     		ldrh	r3, [r3, #0]	@ movhi
 1689 022e 9BB2     		uxth	r3, r3
 1690 0230 4FEA1323 		lsr	r3, r3, #8
ARM GAS  C:\Users\makij\AppData\Local\Temp\ccAkhLin.s 			page 46


 1691 0234 9BB2     		uxth	r3, r3
 1692 0236 DBB2     		uxtb	r3, r3
 1693 0238 0370     		strb	r3, [r0, #0]
 833:.\Generated_Source\PSoC5/USB_std.c ****                                                                 USB_EP[cur_ep].bufferSize >> 8u);
 834:.\Generated_Source\PSoC5/USB_std.c ****                 CY_SET_REG8((reg8 *)(USB_SIE_EP1_CNT1_IND + ri),
 1694              		.loc 1 834 0
 1695 023a 7A78     		ldrb	r2, [r7, #1]	@ zero_extendqisi2
 1696 023c 46F20D03 		movw	r3, #24589
 1697 0240 C4F20003 		movt	r3, 16384
 1698 0244 D318     		adds	r3, r2, r3
 1699 0246 1846     		mov	r0, r3
 1700 0248 B978     		ldrb	r1, [r7, #2]	@ zero_extendqisi2
 1701 024a 40F20002 		movw	r2, #:lower16:USB_EP
 1702 024e C0F20002 		movt	r2, #:upper16:USB_EP
 1703 0252 0B46     		mov	r3, r1
 1704 0254 4FEA4303 		lsl	r3, r3, #1
 1705 0258 5B18     		adds	r3, r3, r1
 1706 025a 4FEA8303 		lsl	r3, r3, #2
 1707 025e D318     		adds	r3, r2, r3
 1708 0260 03F10803 		add	r3, r3, #8
 1709 0264 1B88     		ldrh	r3, [r3, #0]	@ movhi
 1710 0266 9BB2     		uxth	r3, r3
 1711 0268 DBB2     		uxtb	r3, r3
 1712 026a 0370     		strb	r3, [r0, #0]
 835:.\Generated_Source\PSoC5/USB_std.c ****                                                                 USB_EP[cur_ep].bufferSize & 0xFFu);
 836:.\Generated_Source\PSoC5/USB_std.c ****                 CY_SET_REG8((reg8 *)(USB_ARB_RW1_RA_IND + ri),
 1713              		.loc 1 836 0
 1714 026c 7A78     		ldrb	r2, [r7, #1]	@ zero_extendqisi2
 1715 026e 46F28603 		movw	r3, #24710
 1716 0272 C4F20003 		movt	r3, 16384
 1717 0276 D318     		adds	r3, r2, r3
 1718 0278 1846     		mov	r0, r3
 1719 027a B978     		ldrb	r1, [r7, #2]	@ zero_extendqisi2
 1720 027c 40F20002 		movw	r2, #:lower16:USB_EP
 1721 0280 C0F20002 		movt	r2, #:upper16:USB_EP
 1722 0284 0B46     		mov	r3, r1
 1723 0286 4FEA4303 		lsl	r3, r3, #1
 1724 028a 5B18     		adds	r3, r3, r1
 1725 028c 4FEA8303 		lsl	r3, r3, #2
 1726 0290 D318     		adds	r3, r2, r3
 1727 0292 DB88     		ldrh	r3, [r3, #6]	@ movhi
 1728 0294 9BB2     		uxth	r3, r3
 1729 0296 DBB2     		uxtb	r3, r3
 1730 0298 0370     		strb	r3, [r0, #0]
 837:.\Generated_Source\PSoC5/USB_std.c ****                                                                 USB_EP[cur_ep].buffOffset & 0xFFu);
 838:.\Generated_Source\PSoC5/USB_std.c ****                 CY_SET_REG8((reg8 *)(USB_ARB_RW1_RA_MSB_IND + ri),
 1731              		.loc 1 838 0
 1732 029a 7A78     		ldrb	r2, [r7, #1]	@ zero_extendqisi2
 1733 029c 46F28703 		movw	r3, #24711
 1734 02a0 C4F20003 		movt	r3, 16384
 1735 02a4 D318     		adds	r3, r2, r3
 1736 02a6 1846     		mov	r0, r3
 1737 02a8 B978     		ldrb	r1, [r7, #2]	@ zero_extendqisi2
 1738 02aa 40F20002 		movw	r2, #:lower16:USB_EP
 1739 02ae C0F20002 		movt	r2, #:upper16:USB_EP
 1740 02b2 0B46     		mov	r3, r1
 1741 02b4 4FEA4303 		lsl	r3, r3, #1
ARM GAS  C:\Users\makij\AppData\Local\Temp\ccAkhLin.s 			page 47


 1742 02b8 5B18     		adds	r3, r3, r1
 1743 02ba 4FEA8303 		lsl	r3, r3, #2
 1744 02be D318     		adds	r3, r2, r3
 1745 02c0 DB88     		ldrh	r3, [r3, #6]	@ movhi
 1746 02c2 9BB2     		uxth	r3, r3
 1747 02c4 4FEA1323 		lsr	r3, r3, #8
 1748 02c8 9BB2     		uxth	r3, r3
 1749 02ca DBB2     		uxtb	r3, r3
 1750 02cc 0370     		strb	r3, [r0, #0]
 839:.\Generated_Source\PSoC5/USB_std.c ****                                                                 USB_EP[cur_ep].buffOffset >> 8u);
 840:.\Generated_Source\PSoC5/USB_std.c ****                 CY_SET_REG8((reg8 *)(USB_ARB_RW1_WA_IND + ri),
 1751              		.loc 1 840 0
 1752 02ce 7A78     		ldrb	r2, [r7, #1]	@ zero_extendqisi2
 1753 02d0 46F28403 		movw	r3, #24708
 1754 02d4 C4F20003 		movt	r3, 16384
 1755 02d8 D318     		adds	r3, r2, r3
 1756 02da 1846     		mov	r0, r3
 1757 02dc B978     		ldrb	r1, [r7, #2]	@ zero_extendqisi2
 1758 02de 40F20002 		movw	r2, #:lower16:USB_EP
 1759 02e2 C0F20002 		movt	r2, #:upper16:USB_EP
 1760 02e6 0B46     		mov	r3, r1
 1761 02e8 4FEA4303 		lsl	r3, r3, #1
 1762 02ec 5B18     		adds	r3, r3, r1
 1763 02ee 4FEA8303 		lsl	r3, r3, #2
 1764 02f2 D318     		adds	r3, r2, r3
 1765 02f4 DB88     		ldrh	r3, [r3, #6]	@ movhi
 1766 02f6 9BB2     		uxth	r3, r3
 1767 02f8 DBB2     		uxtb	r3, r3
 1768 02fa 0370     		strb	r3, [r0, #0]
 841:.\Generated_Source\PSoC5/USB_std.c ****                                                                 USB_EP[cur_ep].buffOffset & 0xFFu);
 842:.\Generated_Source\PSoC5/USB_std.c ****                 CY_SET_REG8((reg8 *)(USB_ARB_RW1_WA_MSB_IND + ri),
 1769              		.loc 1 842 0
 1770 02fc 7A78     		ldrb	r2, [r7, #1]	@ zero_extendqisi2
 1771 02fe 46F28503 		movw	r3, #24709
 1772 0302 C4F20003 		movt	r3, 16384
 1773 0306 D318     		adds	r3, r2, r3
 1774 0308 1846     		mov	r0, r3
 1775 030a B978     		ldrb	r1, [r7, #2]	@ zero_extendqisi2
 1776 030c 40F20002 		movw	r2, #:lower16:USB_EP
 1777 0310 C0F20002 		movt	r2, #:upper16:USB_EP
 1778 0314 0B46     		mov	r3, r1
 1779 0316 4FEA4303 		lsl	r3, r3, #1
 1780 031a 5B18     		adds	r3, r3, r1
 1781 031c 4FEA8303 		lsl	r3, r3, #2
 1782 0320 D318     		adds	r3, r2, r3
 1783 0322 DB88     		ldrh	r3, [r3, #6]	@ movhi
 1784 0324 9BB2     		uxth	r3, r3
 1785 0326 4FEA1323 		lsr	r3, r3, #8
 1786 032a 9BB2     		uxth	r3, r3
 1787 032c DBB2     		uxtb	r3, r3
 1788 032e 0370     		strb	r3, [r0, #0]
 1789              	.L96:
 843:.\Generated_Source\PSoC5/USB_std.c ****                                                                 USB_EP[cur_ep].buffOffset >> 8u);
 844:.\Generated_Source\PSoC5/USB_std.c ****             #endif /*  USB_EP_MM == USB__EP_DMAAUTO */
 845:.\Generated_Source\PSoC5/USB_std.c ****             }
 846:.\Generated_Source\PSoC5/USB_std.c ****             /* Get next EP element */
 847:.\Generated_Source\PSoC5/USB_std.c ****             pEP = &pEP[1u];
ARM GAS  C:\Users\makij\AppData\Local\Temp\ccAkhLin.s 			page 48


 1790              		.loc 1 847 0
 1791 0330 BB68     		ldr	r3, [r7, #8]
 1792 0332 03F10803 		add	r3, r3, #8
 1793 0336 BB60     		str	r3, [r7, #8]
 764:.\Generated_Source\PSoC5/USB_std.c ****         for (i = 0u; i < ep; i++)
 1794              		.loc 1 764 0
 1795 0338 FB7B     		ldrb	r3, [r7, #15]
 1796 033a 03F10103 		add	r3, r3, #1
 1797 033e FB73     		strb	r3, [r7, #15]
 1798              	.L95:
 764:.\Generated_Source\PSoC5/USB_std.c ****         for (i = 0u; i < ep; i++)
 1799              		.loc 1 764 0 is_stmt 0 discriminator 1
 1800 0340 FA7B     		ldrb	r2, [r7, #15]	@ zero_extendqisi2
 1801 0342 FB78     		ldrb	r3, [r7, #3]	@ zero_extendqisi2
 1802 0344 9A42     		cmp	r2, r3
 1803 0346 FFF482AE 		bcc	.L103
 1804              	.L93:
 848:.\Generated_Source\PSoC5/USB_std.c ****         }
 849:.\Generated_Source\PSoC5/USB_std.c ****     }   /* USB_configuration > 0 */
 850:.\Generated_Source\PSoC5/USB_std.c **** }
 1805              		.loc 1 850 0 is_stmt 1
 1806 034a 07F11007 		add	r7, r7, #16
 1807 034e BD46     		mov	sp, r7
 1808 0350 80BD     		pop	{r7, pc}
 1809              		.cfi_endproc
 1810              	.LFE3:
 1811              		.size	USB_ConfigAltChanged, .-USB_ConfigAltChanged
 1812 0352 00BF     		.section	.text.USB_GetConfigTablePtr,"ax",%progbits
 1813              		.align	2
 1814              		.global	USB_GetConfigTablePtr
 1815              		.thumb
 1816              		.thumb_func
 1817              		.type	USB_GetConfigTablePtr, %function
 1818              	USB_GetConfigTablePtr:
 1819              	.LFB4:
 851:.\Generated_Source\PSoC5/USB_std.c **** 
 852:.\Generated_Source\PSoC5/USB_std.c **** 
 853:.\Generated_Source\PSoC5/USB_std.c **** /*******************************************************************************
 854:.\Generated_Source\PSoC5/USB_std.c **** * Function Name: USB_GetConfigTablePtr
 855:.\Generated_Source\PSoC5/USB_std.c **** ********************************************************************************
 856:.\Generated_Source\PSoC5/USB_std.c **** *
 857:.\Generated_Source\PSoC5/USB_std.c **** * Summary:
 858:.\Generated_Source\PSoC5/USB_std.c **** *  This routine returns a pointer a configuration table entry
 859:.\Generated_Source\PSoC5/USB_std.c **** *
 860:.\Generated_Source\PSoC5/USB_std.c **** * Parameters:
 861:.\Generated_Source\PSoC5/USB_std.c **** *  confIndex:  Configuration Index
 862:.\Generated_Source\PSoC5/USB_std.c **** *
 863:.\Generated_Source\PSoC5/USB_std.c **** * Return:
 864:.\Generated_Source\PSoC5/USB_std.c **** *  Device Descriptor pointer or NULL when descriptor isn't exists.
 865:.\Generated_Source\PSoC5/USB_std.c **** *
 866:.\Generated_Source\PSoC5/USB_std.c **** *******************************************************************************/
 867:.\Generated_Source\PSoC5/USB_std.c **** const T_USB_LUT CYCODE *USB_GetConfigTablePtr(uint8 confIndex)
 868:.\Generated_Source\PSoC5/USB_std.c ****                                                         
 869:.\Generated_Source\PSoC5/USB_std.c **** {
 1820              		.loc 1 869 0
 1821              		.cfi_startproc
 1822              		@ args = 0, pretend = 0, frame = 16
ARM GAS  C:\Users\makij\AppData\Local\Temp\ccAkhLin.s 			page 49


 1823              		@ frame_needed = 1, uses_anonymous_args = 0
 1824              		@ link register save eliminated.
 1825 0000 80B4     		push	{r7}
 1826              	.LCFI12:
 1827              		.cfi_def_cfa_offset 4
 1828              		.cfi_offset 7, -4
 1829 0002 85B0     		sub	sp, sp, #20
 1830              	.LCFI13:
 1831              		.cfi_def_cfa_offset 24
 1832 0004 00AF     		add	r7, sp, #0
 1833              	.LCFI14:
 1834              		.cfi_def_cfa_register 7
 1835 0006 0346     		mov	r3, r0
 1836 0008 FB71     		strb	r3, [r7, #7]
 870:.\Generated_Source\PSoC5/USB_std.c ****     /* Device Table */
 871:.\Generated_Source\PSoC5/USB_std.c ****     const T_USB_LUT CYCODE *pTmp;
 872:.\Generated_Source\PSoC5/USB_std.c **** 
 873:.\Generated_Source\PSoC5/USB_std.c ****     pTmp = (const T_USB_LUT CYCODE *) USB_TABLE[USB_device].p_list;
 1837              		.loc 1 873 0
 1838 000a 40F20003 		movw	r3, #:lower16:USB_device
 1839 000e C0F20003 		movt	r3, #:upper16:USB_device
 1840 0012 1B78     		ldrb	r3, [r3, #0]
 1841 0014 DBB2     		uxtb	r3, r3
 1842 0016 40F20002 		movw	r2, #:lower16:USB_TABLE
 1843 001a C0F20002 		movt	r2, #:upper16:USB_TABLE
 1844 001e 4FEAC303 		lsl	r3, r3, #3
 1845 0022 D318     		adds	r3, r2, r3
 1846 0024 5B68     		ldr	r3, [r3, #4]
 1847 0026 FB60     		str	r3, [r7, #12]
 874:.\Generated_Source\PSoC5/USB_std.c **** 
 875:.\Generated_Source\PSoC5/USB_std.c ****     /* The first entry points to the Device Descriptor,
 876:.\Generated_Source\PSoC5/USB_std.c ****     *  the rest configuration entries.
 877:.\Generated_Source\PSoC5/USB_std.c ****     *  Set pointer to the first Configuration Descriptor
 878:.\Generated_Source\PSoC5/USB_std.c ****     */
 879:.\Generated_Source\PSoC5/USB_std.c ****     pTmp = &pTmp[1u];
 1848              		.loc 1 879 0
 1849 0028 FB68     		ldr	r3, [r7, #12]
 1850 002a 03F10803 		add	r3, r3, #8
 1851 002e FB60     		str	r3, [r7, #12]
 880:.\Generated_Source\PSoC5/USB_std.c ****     /* For this table, c is the number of configuration descriptors  */
 881:.\Generated_Source\PSoC5/USB_std.c ****     if(confIndex >= pTmp->c)   /* Verify that required configuration descriptor exists */
 1852              		.loc 1 881 0
 1853 0030 FB68     		ldr	r3, [r7, #12]
 1854 0032 1B78     		ldrb	r3, [r3, #0]	@ zero_extendqisi2
 1855 0034 FA79     		ldrb	r2, [r7, #7]	@ zero_extendqisi2
 1856 0036 9A42     		cmp	r2, r3
 1857 0038 03D3     		bcc	.L105
 882:.\Generated_Source\PSoC5/USB_std.c ****     {
 883:.\Generated_Source\PSoC5/USB_std.c ****         pTmp = (const T_USB_LUT CYCODE *) NULL;
 1858              		.loc 1 883 0
 1859 003a 4FF00003 		mov	r3, #0
 1860 003e FB60     		str	r3, [r7, #12]
 1861 0040 06E0     		b	.L106
 1862              	.L105:
 884:.\Generated_Source\PSoC5/USB_std.c ****     }
 885:.\Generated_Source\PSoC5/USB_std.c ****     else
 886:.\Generated_Source\PSoC5/USB_std.c ****     {
ARM GAS  C:\Users\makij\AppData\Local\Temp\ccAkhLin.s 			page 50


 887:.\Generated_Source\PSoC5/USB_std.c ****         pTmp = (const T_USB_LUT CYCODE *) pTmp[confIndex].p_list;
 1863              		.loc 1 887 0
 1864 0042 FB79     		ldrb	r3, [r7, #7]	@ zero_extendqisi2
 1865 0044 4FEAC303 		lsl	r3, r3, #3
 1866 0048 FA68     		ldr	r2, [r7, #12]
 1867 004a D318     		adds	r3, r2, r3
 1868 004c 5B68     		ldr	r3, [r3, #4]
 1869 004e FB60     		str	r3, [r7, #12]
 1870              	.L106:
 888:.\Generated_Source\PSoC5/USB_std.c ****     }
 889:.\Generated_Source\PSoC5/USB_std.c ****     
 890:.\Generated_Source\PSoC5/USB_std.c ****     return( pTmp );
 1871              		.loc 1 890 0
 1872 0050 FB68     		ldr	r3, [r7, #12]
 891:.\Generated_Source\PSoC5/USB_std.c **** }
 1873              		.loc 1 891 0
 1874 0052 1846     		mov	r0, r3
 1875 0054 07F11407 		add	r7, r7, #20
 1876 0058 BD46     		mov	sp, r7
 1877 005a 80BC     		pop	{r7}
 1878 005c 7047     		bx	lr
 1879              		.cfi_endproc
 1880              	.LFE4:
 1881              		.size	USB_GetConfigTablePtr, .-USB_GetConfigTablePtr
 1882 005e 00BF     		.section	.text.USB_GetDeviceTablePtr,"ax",%progbits
 1883              		.align	2
 1884              		.global	USB_GetDeviceTablePtr
 1885              		.thumb
 1886              		.thumb_func
 1887              		.type	USB_GetDeviceTablePtr, %function
 1888              	USB_GetDeviceTablePtr:
 1889              	.LFB5:
 892:.\Generated_Source\PSoC5/USB_std.c **** 
 893:.\Generated_Source\PSoC5/USB_std.c **** 
 894:.\Generated_Source\PSoC5/USB_std.c **** /*******************************************************************************
 895:.\Generated_Source\PSoC5/USB_std.c **** * Function Name: USB_GetDeviceTablePtr
 896:.\Generated_Source\PSoC5/USB_std.c **** ********************************************************************************
 897:.\Generated_Source\PSoC5/USB_std.c **** *
 898:.\Generated_Source\PSoC5/USB_std.c **** * Summary:
 899:.\Generated_Source\PSoC5/USB_std.c **** *  This routine returns a pointer to the Device table
 900:.\Generated_Source\PSoC5/USB_std.c **** *
 901:.\Generated_Source\PSoC5/USB_std.c **** * Parameters:
 902:.\Generated_Source\PSoC5/USB_std.c **** *  None.
 903:.\Generated_Source\PSoC5/USB_std.c **** *
 904:.\Generated_Source\PSoC5/USB_std.c **** * Return:
 905:.\Generated_Source\PSoC5/USB_std.c **** *  Device Table pointer
 906:.\Generated_Source\PSoC5/USB_std.c **** *
 907:.\Generated_Source\PSoC5/USB_std.c **** *******************************************************************************/
 908:.\Generated_Source\PSoC5/USB_std.c **** const T_USB_LUT CYCODE *USB_GetDeviceTablePtr(void)
 909:.\Generated_Source\PSoC5/USB_std.c ****                                                             
 910:.\Generated_Source\PSoC5/USB_std.c **** {
 1890              		.loc 1 910 0
 1891              		.cfi_startproc
 1892              		@ args = 0, pretend = 0, frame = 0
 1893              		@ frame_needed = 1, uses_anonymous_args = 0
 1894              		@ link register save eliminated.
 1895 0000 80B4     		push	{r7}
ARM GAS  C:\Users\makij\AppData\Local\Temp\ccAkhLin.s 			page 51


 1896              	.LCFI15:
 1897              		.cfi_def_cfa_offset 4
 1898              		.cfi_offset 7, -4
 1899 0002 00AF     		add	r7, sp, #0
 1900              	.LCFI16:
 1901              		.cfi_def_cfa_register 7
 911:.\Generated_Source\PSoC5/USB_std.c ****     /* Device Table */
 912:.\Generated_Source\PSoC5/USB_std.c ****     return( (const T_USB_LUT CYCODE *) USB_TABLE[USB_device].p_list );
 1902              		.loc 1 912 0
 1903 0004 40F20003 		movw	r3, #:lower16:USB_device
 1904 0008 C0F20003 		movt	r3, #:upper16:USB_device
 1905 000c 1B78     		ldrb	r3, [r3, #0]
 1906 000e DBB2     		uxtb	r3, r3
 1907 0010 40F20002 		movw	r2, #:lower16:USB_TABLE
 1908 0014 C0F20002 		movt	r2, #:upper16:USB_TABLE
 1909 0018 4FEAC303 		lsl	r3, r3, #3
 1910 001c D318     		adds	r3, r2, r3
 1911 001e 5B68     		ldr	r3, [r3, #4]
 913:.\Generated_Source\PSoC5/USB_std.c **** }
 1912              		.loc 1 913 0
 1913 0020 1846     		mov	r0, r3
 1914 0022 BD46     		mov	sp, r7
 1915 0024 80BC     		pop	{r7}
 1916 0026 7047     		bx	lr
 1917              		.cfi_endproc
 1918              	.LFE5:
 1919              		.size	USB_GetDeviceTablePtr, .-USB_GetDeviceTablePtr
 1920              		.section	.text.USB_GetInterfaceClassTablePtr,"ax",%progbits
 1921              		.align	2
 1922              		.global	USB_GetInterfaceClassTablePtr
 1923              		.thumb
 1924              		.thumb_func
 1925              		.type	USB_GetInterfaceClassTablePtr, %function
 1926              	USB_GetInterfaceClassTablePtr:
 1927              	.LFB6:
 914:.\Generated_Source\PSoC5/USB_std.c **** 
 915:.\Generated_Source\PSoC5/USB_std.c **** 
 916:.\Generated_Source\PSoC5/USB_std.c **** /*******************************************************************************
 917:.\Generated_Source\PSoC5/USB_std.c **** * Function Name: USB_GetInterfaceClassTablePtr
 918:.\Generated_Source\PSoC5/USB_std.c **** ********************************************************************************
 919:.\Generated_Source\PSoC5/USB_std.c **** *
 920:.\Generated_Source\PSoC5/USB_std.c **** * Summary:
 921:.\Generated_Source\PSoC5/USB_std.c **** *  This routine returns Interface Class table pointer, which contains
 922:.\Generated_Source\PSoC5/USB_std.c **** *  the relation between interface number and interface class.
 923:.\Generated_Source\PSoC5/USB_std.c **** *
 924:.\Generated_Source\PSoC5/USB_std.c **** * Parameters:
 925:.\Generated_Source\PSoC5/USB_std.c **** *  None.
 926:.\Generated_Source\PSoC5/USB_std.c **** *
 927:.\Generated_Source\PSoC5/USB_std.c **** * Return:
 928:.\Generated_Source\PSoC5/USB_std.c **** *  Interface Class table pointer.
 929:.\Generated_Source\PSoC5/USB_std.c **** *
 930:.\Generated_Source\PSoC5/USB_std.c **** *******************************************************************************/
 931:.\Generated_Source\PSoC5/USB_std.c **** const uint8 CYCODE *USB_GetInterfaceClassTablePtr(void)
 932:.\Generated_Source\PSoC5/USB_std.c ****                                                         
 933:.\Generated_Source\PSoC5/USB_std.c **** {
 1928              		.loc 1 933 0
 1929              		.cfi_startproc
ARM GAS  C:\Users\makij\AppData\Local\Temp\ccAkhLin.s 			page 52


 1930              		@ args = 0, pretend = 0, frame = 16
 1931              		@ frame_needed = 1, uses_anonymous_args = 0
 1932 0000 80B5     		push	{r7, lr}
 1933              	.LCFI17:
 1934              		.cfi_def_cfa_offset 8
 1935              		.cfi_offset 7, -8
 1936              		.cfi_offset 14, -4
 1937 0002 84B0     		sub	sp, sp, #16
 1938              	.LCFI18:
 1939              		.cfi_def_cfa_offset 24
 1940 0004 00AF     		add	r7, sp, #0
 1941              	.LCFI19:
 1942              		.cfi_def_cfa_register 7
 934:.\Generated_Source\PSoC5/USB_std.c ****     const T_USB_LUT CYCODE *pTmp;
 935:.\Generated_Source\PSoC5/USB_std.c ****     const uint8 CYCODE *pInterfaceClass;
 936:.\Generated_Source\PSoC5/USB_std.c ****     uint8 currentInterfacesNum;
 937:.\Generated_Source\PSoC5/USB_std.c **** 
 938:.\Generated_Source\PSoC5/USB_std.c ****     pTmp = USB_GetConfigTablePtr(USB_configuration - 1u);
 1943              		.loc 1 938 0
 1944 0006 40F20003 		movw	r3, #:lower16:USB_configuration
 1945 000a C0F20003 		movt	r3, #:upper16:USB_configuration
 1946 000e 1B78     		ldrb	r3, [r3, #0]
 1947 0010 DBB2     		uxtb	r3, r3
 1948 0012 03F1FF33 		add	r3, r3, #-1
 1949 0016 DBB2     		uxtb	r3, r3
 1950 0018 1846     		mov	r0, r3
 1951 001a FFF7FEFF 		bl	USB_GetConfigTablePtr
 1952 001e B860     		str	r0, [r7, #8]
 939:.\Generated_Source\PSoC5/USB_std.c ****     if( pTmp != NULL )
 1953              		.loc 1 939 0
 1954 0020 BB68     		ldr	r3, [r7, #8]
 1955 0022 002B     		cmp	r3, #0
 1956 0024 0FD0     		beq	.L111
 940:.\Generated_Source\PSoC5/USB_std.c ****     {
 941:.\Generated_Source\PSoC5/USB_std.c ****         currentInterfacesNum  = ((const uint8 *) pTmp->p_list)[USB_CONFIG_DESCR_NUM_INTERFACES];
 1957              		.loc 1 941 0
 1958 0026 BB68     		ldr	r3, [r7, #8]
 1959 0028 5B68     		ldr	r3, [r3, #4]
 1960 002a 1B79     		ldrb	r3, [r3, #4]
 1961 002c FB71     		strb	r3, [r7, #7]
 942:.\Generated_Source\PSoC5/USB_std.c ****         /* Third entry in the LUT starts the Interface Table pointers */
 943:.\Generated_Source\PSoC5/USB_std.c ****         /* The INTERFACE_CLASS table is located after all interfaces */
 944:.\Generated_Source\PSoC5/USB_std.c ****         pTmp = &pTmp[currentInterfacesNum + 2u];
 1962              		.loc 1 944 0
 1963 002e FB79     		ldrb	r3, [r7, #7]	@ zero_extendqisi2
 1964 0030 03F10203 		add	r3, r3, #2
 1965 0034 4FEAC303 		lsl	r3, r3, #3
 1966 0038 BA68     		ldr	r2, [r7, #8]
 1967 003a D318     		adds	r3, r2, r3
 1968 003c BB60     		str	r3, [r7, #8]
 945:.\Generated_Source\PSoC5/USB_std.c ****         pInterfaceClass = (const uint8 CYCODE *) pTmp->p_list;
 1969              		.loc 1 945 0
 1970 003e BB68     		ldr	r3, [r7, #8]
 1971 0040 5B68     		ldr	r3, [r3, #4]
 1972 0042 FB60     		str	r3, [r7, #12]
 1973 0044 02E0     		b	.L112
 1974              	.L111:
ARM GAS  C:\Users\makij\AppData\Local\Temp\ccAkhLin.s 			page 53


 946:.\Generated_Source\PSoC5/USB_std.c ****     }
 947:.\Generated_Source\PSoC5/USB_std.c ****     else
 948:.\Generated_Source\PSoC5/USB_std.c ****     {
 949:.\Generated_Source\PSoC5/USB_std.c ****         pInterfaceClass = (const uint8 CYCODE *) NULL;
 1975              		.loc 1 949 0
 1976 0046 4FF00003 		mov	r3, #0
 1977 004a FB60     		str	r3, [r7, #12]
 1978              	.L112:
 950:.\Generated_Source\PSoC5/USB_std.c ****     }
 951:.\Generated_Source\PSoC5/USB_std.c ****     
 952:.\Generated_Source\PSoC5/USB_std.c ****     return( pInterfaceClass );
 1979              		.loc 1 952 0
 1980 004c FB68     		ldr	r3, [r7, #12]
 953:.\Generated_Source\PSoC5/USB_std.c **** }
 1981              		.loc 1 953 0
 1982 004e 1846     		mov	r0, r3
 1983 0050 07F11007 		add	r7, r7, #16
 1984 0054 BD46     		mov	sp, r7
 1985 0056 80BD     		pop	{r7, pc}
 1986              		.cfi_endproc
 1987              	.LFE6:
 1988              		.size	USB_GetInterfaceClassTablePtr, .-USB_GetInterfaceClassTablePtr
 1989              		.section	.text.USB_TerminateEP,"ax",%progbits
 1990              		.align	2
 1991              		.global	USB_TerminateEP
 1992              		.thumb
 1993              		.thumb_func
 1994              		.type	USB_TerminateEP, %function
 1995              	USB_TerminateEP:
 1996              	.LFB7:
 954:.\Generated_Source\PSoC5/USB_std.c **** 
 955:.\Generated_Source\PSoC5/USB_std.c **** 
 956:.\Generated_Source\PSoC5/USB_std.c **** /*******************************************************************************
 957:.\Generated_Source\PSoC5/USB_std.c **** * Function Name: USB_TerminateEP
 958:.\Generated_Source\PSoC5/USB_std.c **** ********************************************************************************
 959:.\Generated_Source\PSoC5/USB_std.c **** *
 960:.\Generated_Source\PSoC5/USB_std.c **** * Summary:
 961:.\Generated_Source\PSoC5/USB_std.c **** *  This function terminates the specified USBFS endpoint.
 962:.\Generated_Source\PSoC5/USB_std.c **** *  This function should be used before endpoint reconfiguration.
 963:.\Generated_Source\PSoC5/USB_std.c **** *
 964:.\Generated_Source\PSoC5/USB_std.c **** * Parameters:
 965:.\Generated_Source\PSoC5/USB_std.c **** *  Endpoint number.
 966:.\Generated_Source\PSoC5/USB_std.c **** *
 967:.\Generated_Source\PSoC5/USB_std.c **** * Return:
 968:.\Generated_Source\PSoC5/USB_std.c **** *  None.
 969:.\Generated_Source\PSoC5/USB_std.c **** *
 970:.\Generated_Source\PSoC5/USB_std.c **** * Reentrant:
 971:.\Generated_Source\PSoC5/USB_std.c **** *  No.
 972:.\Generated_Source\PSoC5/USB_std.c **** *
 973:.\Generated_Source\PSoC5/USB_std.c **** *******************************************************************************/
 974:.\Generated_Source\PSoC5/USB_std.c **** void USB_TerminateEP(uint8 ep) 
 975:.\Generated_Source\PSoC5/USB_std.c **** {
 1997              		.loc 1 975 0
 1998              		.cfi_startproc
 1999              		@ args = 0, pretend = 0, frame = 16
 2000              		@ frame_needed = 1, uses_anonymous_args = 0
 2001              		@ link register save eliminated.
ARM GAS  C:\Users\makij\AppData\Local\Temp\ccAkhLin.s 			page 54


 2002 0000 80B4     		push	{r7}
 2003              	.LCFI20:
 2004              		.cfi_def_cfa_offset 4
 2005              		.cfi_offset 7, -4
 2006 0002 85B0     		sub	sp, sp, #20
 2007              	.LCFI21:
 2008              		.cfi_def_cfa_offset 24
 2009 0004 00AF     		add	r7, sp, #0
 2010              	.LCFI22:
 2011              		.cfi_def_cfa_register 7
 2012 0006 0346     		mov	r3, r0
 2013 0008 FB71     		strb	r3, [r7, #7]
 976:.\Generated_Source\PSoC5/USB_std.c ****     uint8 ri;
 977:.\Generated_Source\PSoC5/USB_std.c **** 
 978:.\Generated_Source\PSoC5/USB_std.c ****     ep &= USB_DIR_UNUSED;
 2014              		.loc 1 978 0
 2015 000a FB79     		ldrb	r3, [r7, #7]
 2016 000c 03F07F03 		and	r3, r3, #127
 2017 0010 FB71     		strb	r3, [r7, #7]
 979:.\Generated_Source\PSoC5/USB_std.c ****     ri = ((ep - USB_EP1) << USB_EPX_CNTX_ADDR_SHIFT);
 2018              		.loc 1 979 0
 2019 0012 FB79     		ldrb	r3, [r7, #7]
 2020 0014 03F1FF33 		add	r3, r3, #-1
 2021 0018 DBB2     		uxtb	r3, r3
 2022 001a 4FEA0313 		lsl	r3, r3, #4
 2023 001e FB73     		strb	r3, [r7, #15]
 980:.\Generated_Source\PSoC5/USB_std.c **** 
 981:.\Generated_Source\PSoC5/USB_std.c ****     if ((ep > USB_EP0) && (ep < USB_MAX_EP))
 2024              		.loc 1 981 0
 2025 0020 FB79     		ldrb	r3, [r7, #7]	@ zero_extendqisi2
 2026 0022 002B     		cmp	r3, #0
 2027 0024 64D0     		beq	.L114
 2028              		.loc 1 981 0 is_stmt 0 discriminator 1
 2029 0026 FB79     		ldrb	r3, [r7, #7]	@ zero_extendqisi2
 2030 0028 082B     		cmp	r3, #8
 2031 002a 61D8     		bhi	.L114
 982:.\Generated_Source\PSoC5/USB_std.c ****     {
 983:.\Generated_Source\PSoC5/USB_std.c ****         /* Set the endpoint Halt */
 984:.\Generated_Source\PSoC5/USB_std.c ****         USB_EP[ep].hwEpState |= (USB_ENDPOINT_STATUS_HALT);
 2032              		.loc 1 984 0 is_stmt 1
 2033 002c F979     		ldrb	r1, [r7, #7]	@ zero_extendqisi2
 2034 002e F879     		ldrb	r0, [r7, #7]	@ zero_extendqisi2
 2035 0030 40F20002 		movw	r2, #:lower16:USB_EP
 2036 0034 C0F20002 		movt	r2, #:upper16:USB_EP
 2037 0038 0346     		mov	r3, r0
 2038 003a 4FEA4303 		lsl	r3, r3, #1
 2039 003e 1B18     		adds	r3, r3, r0
 2040 0040 4FEA8303 		lsl	r3, r3, #2
 2041 0044 D318     		adds	r3, r2, r3
 2042 0046 9B78     		ldrb	r3, [r3, #2]
 2043 0048 DBB2     		uxtb	r3, r3
 2044 004a 43F00103 		orr	r3, r3, #1
 2045 004e D8B2     		uxtb	r0, r3
 2046 0050 40F20002 		movw	r2, #:lower16:USB_EP
 2047 0054 C0F20002 		movt	r2, #:upper16:USB_EP
 2048 0058 0B46     		mov	r3, r1
 2049 005a 4FEA4303 		lsl	r3, r3, #1
ARM GAS  C:\Users\makij\AppData\Local\Temp\ccAkhLin.s 			page 55


 2050 005e 5B18     		adds	r3, r3, r1
 2051 0060 4FEA8303 		lsl	r3, r3, #2
 2052 0064 D318     		adds	r3, r2, r3
 2053 0066 0246     		mov	r2, r0
 2054 0068 9A70     		strb	r2, [r3, #2]
 985:.\Generated_Source\PSoC5/USB_std.c **** 
 986:.\Generated_Source\PSoC5/USB_std.c ****         /* Clear the data toggle */
 987:.\Generated_Source\PSoC5/USB_std.c ****         USB_EP[ep].epToggle = 0u;
 2055              		.loc 1 987 0
 2056 006a F979     		ldrb	r1, [r7, #7]	@ zero_extendqisi2
 2057 006c 40F20002 		movw	r2, #:lower16:USB_EP
 2058 0070 C0F20002 		movt	r2, #:upper16:USB_EP
 2059 0074 0B46     		mov	r3, r1
 2060 0076 4FEA4303 		lsl	r3, r3, #1
 2061 007a 5B18     		adds	r3, r3, r1
 2062 007c 4FEA8303 		lsl	r3, r3, #2
 2063 0080 D318     		adds	r3, r2, r3
 2064 0082 4FF00002 		mov	r2, #0
 2065 0086 DA70     		strb	r2, [r3, #3]
 988:.\Generated_Source\PSoC5/USB_std.c ****         USB_EP[ep].apiEpState = USB_NO_EVENT_ALLOWED;
 2066              		.loc 1 988 0
 2067 0088 F979     		ldrb	r1, [r7, #7]	@ zero_extendqisi2
 2068 008a 40F20002 		movw	r2, #:lower16:USB_EP
 2069 008e C0F20002 		movt	r2, #:upper16:USB_EP
 2070 0092 0B46     		mov	r3, r1
 2071 0094 4FEA4303 		lsl	r3, r3, #1
 2072 0098 5B18     		adds	r3, r3, r1
 2073 009a 4FEA8303 		lsl	r3, r3, #2
 2074 009e D318     		adds	r3, r2, r3
 2075 00a0 4FF00202 		mov	r2, #2
 2076 00a4 5A70     		strb	r2, [r3, #1]
 989:.\Generated_Source\PSoC5/USB_std.c **** 
 990:.\Generated_Source\PSoC5/USB_std.c ****         if ((USB_EP[ep].addr & USB_DIR_IN) != 0u)
 2077              		.loc 1 990 0
 2078 00a6 F979     		ldrb	r1, [r7, #7]	@ zero_extendqisi2
 2079 00a8 40F20002 		movw	r2, #:lower16:USB_EP
 2080 00ac C0F20002 		movt	r2, #:upper16:USB_EP
 2081 00b0 0B46     		mov	r3, r1
 2082 00b2 4FEA4303 		lsl	r3, r3, #1
 2083 00b6 5B18     		adds	r3, r3, r1
 2084 00b8 4FEA8303 		lsl	r3, r3, #2
 2085 00bc D318     		adds	r3, r2, r3
 2086 00be 1B79     		ldrb	r3, [r3, #4]
 2087 00c0 DBB2     		uxtb	r3, r3
 2088 00c2 DBB2     		uxtb	r3, r3
 2089 00c4 5BB2     		sxtb	r3, r3
 2090 00c6 002B     		cmp	r3, #0
 2091 00c8 09DA     		bge	.L116
 991:.\Generated_Source\PSoC5/USB_std.c ****         {
 992:.\Generated_Source\PSoC5/USB_std.c ****             /* IN Endpoint */
 993:.\Generated_Source\PSoC5/USB_std.c ****             CY_SET_REG8((reg8 *)(USB_SIE_EP1_CR0_IND + ri), USB_MODE_NAK_IN);
 2092              		.loc 1 993 0
 2093 00ca FA7B     		ldrb	r2, [r7, #15]	@ zero_extendqisi2
 2094 00cc 46F20E03 		movw	r3, #24590
 2095 00d0 C4F20003 		movt	r3, 16384
 2096 00d4 D318     		adds	r3, r2, r3
 2097 00d6 4FF00C02 		mov	r2, #12
ARM GAS  C:\Users\makij\AppData\Local\Temp\ccAkhLin.s 			page 56


 2098 00da 1A70     		strb	r2, [r3, #0]
 2099 00dc 08E0     		b	.L114
 2100              	.L116:
 994:.\Generated_Source\PSoC5/USB_std.c ****         }
 995:.\Generated_Source\PSoC5/USB_std.c ****         else
 996:.\Generated_Source\PSoC5/USB_std.c ****         {
 997:.\Generated_Source\PSoC5/USB_std.c ****             /* OUT Endpoint */
 998:.\Generated_Source\PSoC5/USB_std.c ****             CY_SET_REG8((reg8 *)(USB_SIE_EP1_CR0_IND + ri), USB_MODE_NAK_OUT);
 2101              		.loc 1 998 0
 2102 00de FA7B     		ldrb	r2, [r7, #15]	@ zero_extendqisi2
 2103 00e0 46F20E03 		movw	r3, #24590
 2104 00e4 C4F20003 		movt	r3, 16384
 2105 00e8 D318     		adds	r3, r2, r3
 2106 00ea 4FF00802 		mov	r2, #8
 2107 00ee 1A70     		strb	r2, [r3, #0]
 2108              	.L114:
 999:.\Generated_Source\PSoC5/USB_std.c ****         }
1000:.\Generated_Source\PSoC5/USB_std.c ****     }
1001:.\Generated_Source\PSoC5/USB_std.c **** }
 2109              		.loc 1 1001 0
 2110 00f0 07F11407 		add	r7, r7, #20
 2111 00f4 BD46     		mov	sp, r7
 2112 00f6 80BC     		pop	{r7}
 2113 00f8 7047     		bx	lr
 2114              		.cfi_endproc
 2115              	.LFE7:
 2116              		.size	USB_TerminateEP, .-USB_TerminateEP
 2117 00fa 00BF     		.section	.text.USB_SetEndpointHalt,"ax",%progbits
 2118              		.align	2
 2119              		.global	USB_SetEndpointHalt
 2120              		.thumb
 2121              		.thumb_func
 2122              		.type	USB_SetEndpointHalt, %function
 2123              	USB_SetEndpointHalt:
 2124              	.LFB8:
1002:.\Generated_Source\PSoC5/USB_std.c **** 
1003:.\Generated_Source\PSoC5/USB_std.c **** 
1004:.\Generated_Source\PSoC5/USB_std.c **** /*******************************************************************************
1005:.\Generated_Source\PSoC5/USB_std.c **** * Function Name: USB_SetEndpointHalt
1006:.\Generated_Source\PSoC5/USB_std.c **** ********************************************************************************
1007:.\Generated_Source\PSoC5/USB_std.c **** *
1008:.\Generated_Source\PSoC5/USB_std.c **** * Summary:
1009:.\Generated_Source\PSoC5/USB_std.c **** *  This routine handles set endpoint halt.
1010:.\Generated_Source\PSoC5/USB_std.c **** *
1011:.\Generated_Source\PSoC5/USB_std.c **** * Parameters:
1012:.\Generated_Source\PSoC5/USB_std.c **** *  None.
1013:.\Generated_Source\PSoC5/USB_std.c **** *
1014:.\Generated_Source\PSoC5/USB_std.c **** * Return:
1015:.\Generated_Source\PSoC5/USB_std.c **** *  requestHandled.
1016:.\Generated_Source\PSoC5/USB_std.c **** *
1017:.\Generated_Source\PSoC5/USB_std.c **** * Reentrant:
1018:.\Generated_Source\PSoC5/USB_std.c **** *  No.
1019:.\Generated_Source\PSoC5/USB_std.c **** *
1020:.\Generated_Source\PSoC5/USB_std.c **** *******************************************************************************/
1021:.\Generated_Source\PSoC5/USB_std.c **** uint8 USB_SetEndpointHalt(void) 
1022:.\Generated_Source\PSoC5/USB_std.c **** {
 2125              		.loc 1 1022 0
ARM GAS  C:\Users\makij\AppData\Local\Temp\ccAkhLin.s 			page 57


 2126              		.cfi_startproc
 2127              		@ args = 0, pretend = 0, frame = 8
 2128              		@ frame_needed = 1, uses_anonymous_args = 0
 2129 0000 80B5     		push	{r7, lr}
 2130              	.LCFI23:
 2131              		.cfi_def_cfa_offset 8
 2132              		.cfi_offset 7, -8
 2133              		.cfi_offset 14, -4
 2134 0002 82B0     		sub	sp, sp, #8
 2135              	.LCFI24:
 2136              		.cfi_def_cfa_offset 16
 2137 0004 00AF     		add	r7, sp, #0
 2138              	.LCFI25:
 2139              		.cfi_def_cfa_register 7
1023:.\Generated_Source\PSoC5/USB_std.c ****     uint8 ep;
1024:.\Generated_Source\PSoC5/USB_std.c ****     uint8 ri;
1025:.\Generated_Source\PSoC5/USB_std.c ****     uint8 requestHandled = USB_FALSE;
 2140              		.loc 1 1025 0
 2141 0006 4FF00003 		mov	r3, #0
 2142 000a FB71     		strb	r3, [r7, #7]
1026:.\Generated_Source\PSoC5/USB_std.c **** 
1027:.\Generated_Source\PSoC5/USB_std.c ****     /* Set endpoint halt */
1028:.\Generated_Source\PSoC5/USB_std.c ****     ep = CY_GET_REG8(USB_wIndexLo) & USB_DIR_UNUSED;
 2143              		.loc 1 1028 0
 2144 000c 46F20403 		movw	r3, #24580
 2145 0010 C4F20003 		movt	r3, 16384
 2146 0014 1B78     		ldrb	r3, [r3, #0]
 2147 0016 DBB2     		uxtb	r3, r3
 2148 0018 03F07F03 		and	r3, r3, #127
 2149 001c BB71     		strb	r3, [r7, #6]
1029:.\Generated_Source\PSoC5/USB_std.c ****     ri = ((ep - USB_EP1) << USB_EPX_CNTX_ADDR_SHIFT);
 2150              		.loc 1 1029 0
 2151 001e BB79     		ldrb	r3, [r7, #6]
 2152 0020 03F1FF33 		add	r3, r3, #-1
 2153 0024 DBB2     		uxtb	r3, r3
 2154 0026 4FEA0313 		lsl	r3, r3, #4
 2155 002a 7B71     		strb	r3, [r7, #5]
1030:.\Generated_Source\PSoC5/USB_std.c **** 
1031:.\Generated_Source\PSoC5/USB_std.c ****     if ((ep > USB_EP0) && (ep < USB_MAX_EP))
 2156              		.loc 1 1031 0
 2157 002c BB79     		ldrb	r3, [r7, #6]	@ zero_extendqisi2
 2158 002e 002B     		cmp	r3, #0
 2159 0030 78D0     		beq	.L118
 2160              		.loc 1 1031 0 is_stmt 0 discriminator 1
 2161 0032 BB79     		ldrb	r3, [r7, #6]	@ zero_extendqisi2
 2162 0034 082B     		cmp	r3, #8
 2163 0036 75D8     		bhi	.L118
1032:.\Generated_Source\PSoC5/USB_std.c ****     {
1033:.\Generated_Source\PSoC5/USB_std.c ****         /* Set the endpoint Halt */
1034:.\Generated_Source\PSoC5/USB_std.c ****         USB_EP[ep].hwEpState |= (USB_ENDPOINT_STATUS_HALT);
 2164              		.loc 1 1034 0 is_stmt 1
 2165 0038 B979     		ldrb	r1, [r7, #6]	@ zero_extendqisi2
 2166 003a B879     		ldrb	r0, [r7, #6]	@ zero_extendqisi2
 2167 003c 40F20002 		movw	r2, #:lower16:USB_EP
 2168 0040 C0F20002 		movt	r2, #:upper16:USB_EP
 2169 0044 0346     		mov	r3, r0
 2170 0046 4FEA4303 		lsl	r3, r3, #1
ARM GAS  C:\Users\makij\AppData\Local\Temp\ccAkhLin.s 			page 58


 2171 004a 1B18     		adds	r3, r3, r0
 2172 004c 4FEA8303 		lsl	r3, r3, #2
 2173 0050 D318     		adds	r3, r2, r3
 2174 0052 9B78     		ldrb	r3, [r3, #2]
 2175 0054 DBB2     		uxtb	r3, r3
 2176 0056 43F00103 		orr	r3, r3, #1
 2177 005a D8B2     		uxtb	r0, r3
 2178 005c 40F20002 		movw	r2, #:lower16:USB_EP
 2179 0060 C0F20002 		movt	r2, #:upper16:USB_EP
 2180 0064 0B46     		mov	r3, r1
 2181 0066 4FEA4303 		lsl	r3, r3, #1
 2182 006a 5B18     		adds	r3, r3, r1
 2183 006c 4FEA8303 		lsl	r3, r3, #2
 2184 0070 D318     		adds	r3, r2, r3
 2185 0072 0246     		mov	r2, r0
 2186 0074 9A70     		strb	r2, [r3, #2]
1035:.\Generated_Source\PSoC5/USB_std.c **** 
1036:.\Generated_Source\PSoC5/USB_std.c ****         /* Clear the data toggle */
1037:.\Generated_Source\PSoC5/USB_std.c ****         USB_EP[ep].epToggle = 0u;
 2187              		.loc 1 1037 0
 2188 0076 B979     		ldrb	r1, [r7, #6]	@ zero_extendqisi2
 2189 0078 40F20002 		movw	r2, #:lower16:USB_EP
 2190 007c C0F20002 		movt	r2, #:upper16:USB_EP
 2191 0080 0B46     		mov	r3, r1
 2192 0082 4FEA4303 		lsl	r3, r3, #1
 2193 0086 5B18     		adds	r3, r3, r1
 2194 0088 4FEA8303 		lsl	r3, r3, #2
 2195 008c D318     		adds	r3, r2, r3
 2196 008e 4FF00002 		mov	r2, #0
 2197 0092 DA70     		strb	r2, [r3, #3]
1038:.\Generated_Source\PSoC5/USB_std.c ****         USB_EP[ep].apiEpState |= USB_NO_EVENT_ALLOWED;
 2198              		.loc 1 1038 0
 2199 0094 B979     		ldrb	r1, [r7, #6]	@ zero_extendqisi2
 2200 0096 B879     		ldrb	r0, [r7, #6]	@ zero_extendqisi2
 2201 0098 40F20002 		movw	r2, #:lower16:USB_EP
 2202 009c C0F20002 		movt	r2, #:upper16:USB_EP
 2203 00a0 0346     		mov	r3, r0
 2204 00a2 4FEA4303 		lsl	r3, r3, #1
 2205 00a6 1B18     		adds	r3, r3, r0
 2206 00a8 4FEA8303 		lsl	r3, r3, #2
 2207 00ac D318     		adds	r3, r2, r3
 2208 00ae 5B78     		ldrb	r3, [r3, #1]
 2209 00b0 DBB2     		uxtb	r3, r3
 2210 00b2 43F00203 		orr	r3, r3, #2
 2211 00b6 D8B2     		uxtb	r0, r3
 2212 00b8 40F20002 		movw	r2, #:lower16:USB_EP
 2213 00bc C0F20002 		movt	r2, #:upper16:USB_EP
 2214 00c0 0B46     		mov	r3, r1
 2215 00c2 4FEA4303 		lsl	r3, r3, #1
 2216 00c6 5B18     		adds	r3, r3, r1
 2217 00c8 4FEA8303 		lsl	r3, r3, #2
 2218 00cc D318     		adds	r3, r2, r3
 2219 00ce 0246     		mov	r2, r0
 2220 00d0 5A70     		strb	r2, [r3, #1]
1039:.\Generated_Source\PSoC5/USB_std.c **** 
1040:.\Generated_Source\PSoC5/USB_std.c ****         if ((USB_EP[ep].addr & USB_DIR_IN) != 0u)
 2221              		.loc 1 1040 0
ARM GAS  C:\Users\makij\AppData\Local\Temp\ccAkhLin.s 			page 59


 2222 00d2 B979     		ldrb	r1, [r7, #6]	@ zero_extendqisi2
 2223 00d4 40F20002 		movw	r2, #:lower16:USB_EP
 2224 00d8 C0F20002 		movt	r2, #:upper16:USB_EP
 2225 00dc 0B46     		mov	r3, r1
 2226 00de 4FEA4303 		lsl	r3, r3, #1
 2227 00e2 5B18     		adds	r3, r3, r1
 2228 00e4 4FEA8303 		lsl	r3, r3, #2
 2229 00e8 D318     		adds	r3, r2, r3
 2230 00ea 1B79     		ldrb	r3, [r3, #4]
 2231 00ec DBB2     		uxtb	r3, r3
 2232 00ee DBB2     		uxtb	r3, r3
 2233 00f0 5BB2     		sxtb	r3, r3
 2234 00f2 002B     		cmp	r3, #0
 2235 00f4 09DA     		bge	.L119
1041:.\Generated_Source\PSoC5/USB_std.c ****         {
1042:.\Generated_Source\PSoC5/USB_std.c ****             /* IN Endpoint */
1043:.\Generated_Source\PSoC5/USB_std.c ****             CY_SET_REG8((reg8 *)(USB_SIE_EP1_CR0_IND + ri), USB_MODE_STALL_DATA_EP |
 2236              		.loc 1 1043 0
 2237 00f6 7A79     		ldrb	r2, [r7, #5]	@ zero_extendqisi2
 2238 00f8 46F20E03 		movw	r3, #24590
 2239 00fc C4F20003 		movt	r3, 16384
 2240 0100 D318     		adds	r3, r2, r3
 2241 0102 4FF08D02 		mov	r2, #141
 2242 0106 1A70     		strb	r2, [r3, #0]
 2243 0108 08E0     		b	.L120
 2244              	.L119:
1044:.\Generated_Source\PSoC5/USB_std.c ****                                                                USB_MODE_ACK_IN);
1045:.\Generated_Source\PSoC5/USB_std.c ****         }
1046:.\Generated_Source\PSoC5/USB_std.c ****         else
1047:.\Generated_Source\PSoC5/USB_std.c ****         {
1048:.\Generated_Source\PSoC5/USB_std.c ****             /* OUT Endpoint */
1049:.\Generated_Source\PSoC5/USB_std.c ****             CY_SET_REG8((reg8 *)(USB_SIE_EP1_CR0_IND + ri), USB_MODE_STALL_DATA_EP |
 2245              		.loc 1 1049 0
 2246 010a 7A79     		ldrb	r2, [r7, #5]	@ zero_extendqisi2
 2247 010c 46F20E03 		movw	r3, #24590
 2248 0110 C4F20003 		movt	r3, 16384
 2249 0114 D318     		adds	r3, r2, r3
 2250 0116 4FF08902 		mov	r2, #137
 2251 011a 1A70     		strb	r2, [r3, #0]
 2252              	.L120:
1050:.\Generated_Source\PSoC5/USB_std.c ****                                                                USB_MODE_ACK_OUT);
1051:.\Generated_Source\PSoC5/USB_std.c ****         }
1052:.\Generated_Source\PSoC5/USB_std.c ****         requestHandled = USB_InitNoDataControlTransfer();
 2253              		.loc 1 1052 0
 2254 011c FFF7FEFF 		bl	USB_InitNoDataControlTransfer
 2255 0120 0346     		mov	r3, r0
 2256 0122 FB71     		strb	r3, [r7, #7]
 2257              	.L118:
1053:.\Generated_Source\PSoC5/USB_std.c ****     }
1054:.\Generated_Source\PSoC5/USB_std.c **** 
1055:.\Generated_Source\PSoC5/USB_std.c ****     return(requestHandled);
 2258              		.loc 1 1055 0
 2259 0124 FB79     		ldrb	r3, [r7, #7]	@ zero_extendqisi2
1056:.\Generated_Source\PSoC5/USB_std.c **** }
 2260              		.loc 1 1056 0
 2261 0126 1846     		mov	r0, r3
 2262 0128 07F10807 		add	r7, r7, #8
ARM GAS  C:\Users\makij\AppData\Local\Temp\ccAkhLin.s 			page 60


 2263 012c BD46     		mov	sp, r7
 2264 012e 80BD     		pop	{r7, pc}
 2265              		.cfi_endproc
 2266              	.LFE8:
 2267              		.size	USB_SetEndpointHalt, .-USB_SetEndpointHalt
 2268              		.section	.text.USB_ClearEndpointHalt,"ax",%progbits
 2269              		.align	2
 2270              		.global	USB_ClearEndpointHalt
 2271              		.thumb
 2272              		.thumb_func
 2273              		.type	USB_ClearEndpointHalt, %function
 2274              	USB_ClearEndpointHalt:
 2275              	.LFB9:
1057:.\Generated_Source\PSoC5/USB_std.c **** 
1058:.\Generated_Source\PSoC5/USB_std.c **** 
1059:.\Generated_Source\PSoC5/USB_std.c **** /*******************************************************************************
1060:.\Generated_Source\PSoC5/USB_std.c **** * Function Name: USB_ClearEndpointHalt
1061:.\Generated_Source\PSoC5/USB_std.c **** ********************************************************************************
1062:.\Generated_Source\PSoC5/USB_std.c **** *
1063:.\Generated_Source\PSoC5/USB_std.c **** * Summary:
1064:.\Generated_Source\PSoC5/USB_std.c **** *  This routine handles clear endpoint halt.
1065:.\Generated_Source\PSoC5/USB_std.c **** *
1066:.\Generated_Source\PSoC5/USB_std.c **** * Parameters:
1067:.\Generated_Source\PSoC5/USB_std.c **** *  None.
1068:.\Generated_Source\PSoC5/USB_std.c **** *
1069:.\Generated_Source\PSoC5/USB_std.c **** * Return:
1070:.\Generated_Source\PSoC5/USB_std.c **** *  requestHandled.
1071:.\Generated_Source\PSoC5/USB_std.c **** *
1072:.\Generated_Source\PSoC5/USB_std.c **** * Reentrant:
1073:.\Generated_Source\PSoC5/USB_std.c **** *  No.
1074:.\Generated_Source\PSoC5/USB_std.c **** *
1075:.\Generated_Source\PSoC5/USB_std.c **** *******************************************************************************/
1076:.\Generated_Source\PSoC5/USB_std.c **** uint8 USB_ClearEndpointHalt(void) 
1077:.\Generated_Source\PSoC5/USB_std.c **** {
 2276              		.loc 1 1077 0
 2277              		.cfi_startproc
 2278              		@ args = 0, pretend = 0, frame = 8
 2279              		@ frame_needed = 1, uses_anonymous_args = 0
 2280 0000 80B5     		push	{r7, lr}
 2281              	.LCFI26:
 2282              		.cfi_def_cfa_offset 8
 2283              		.cfi_offset 7, -8
 2284              		.cfi_offset 14, -4
 2285 0002 82B0     		sub	sp, sp, #8
 2286              	.LCFI27:
 2287              		.cfi_def_cfa_offset 16
 2288 0004 00AF     		add	r7, sp, #0
 2289              	.LCFI28:
 2290              		.cfi_def_cfa_register 7
1078:.\Generated_Source\PSoC5/USB_std.c ****     uint8 ep;
1079:.\Generated_Source\PSoC5/USB_std.c ****     uint8 ri;
1080:.\Generated_Source\PSoC5/USB_std.c ****     uint8 requestHandled = USB_FALSE;
 2291              		.loc 1 1080 0
 2292 0006 4FF00003 		mov	r3, #0
 2293 000a FB71     		strb	r3, [r7, #7]
1081:.\Generated_Source\PSoC5/USB_std.c **** 
1082:.\Generated_Source\PSoC5/USB_std.c ****     /* Clear endpoint halt */
ARM GAS  C:\Users\makij\AppData\Local\Temp\ccAkhLin.s 			page 61


1083:.\Generated_Source\PSoC5/USB_std.c ****     ep = CY_GET_REG8(USB_wIndexLo) & USB_DIR_UNUSED;
 2294              		.loc 1 1083 0
 2295 000c 46F20403 		movw	r3, #24580
 2296 0010 C4F20003 		movt	r3, 16384
 2297 0014 1B78     		ldrb	r3, [r3, #0]
 2298 0016 DBB2     		uxtb	r3, r3
 2299 0018 03F07F03 		and	r3, r3, #127
 2300 001c BB71     		strb	r3, [r7, #6]
1084:.\Generated_Source\PSoC5/USB_std.c ****     ri = ((ep - USB_EP1) << USB_EPX_CNTX_ADDR_SHIFT);
 2301              		.loc 1 1084 0
 2302 001e BB79     		ldrb	r3, [r7, #6]
 2303 0020 03F1FF33 		add	r3, r3, #-1
 2304 0024 DBB2     		uxtb	r3, r3
 2305 0026 4FEA0313 		lsl	r3, r3, #4
 2306 002a 7B71     		strb	r3, [r7, #5]
1085:.\Generated_Source\PSoC5/USB_std.c **** 
1086:.\Generated_Source\PSoC5/USB_std.c ****     if ((ep > USB_EP0) && (ep < USB_MAX_EP))
 2307              		.loc 1 1086 0
 2308 002c BB79     		ldrb	r3, [r7, #6]	@ zero_extendqisi2
 2309 002e 002B     		cmp	r3, #0
 2310 0030 00F0C180 		beq	.L123
 2311              		.loc 1 1086 0 is_stmt 0 discriminator 1
 2312 0034 BB79     		ldrb	r3, [r7, #6]	@ zero_extendqisi2
 2313 0036 082B     		cmp	r3, #8
 2314 0038 00F2BD80 		bhi	.L123
1087:.\Generated_Source\PSoC5/USB_std.c ****     {
1088:.\Generated_Source\PSoC5/USB_std.c ****         /* Clear the endpoint Halt */
1089:.\Generated_Source\PSoC5/USB_std.c ****         USB_EP[ep].hwEpState &= (uint8)~(USB_ENDPOINT_STATUS_HALT);
 2315              		.loc 1 1089 0 is_stmt 1
 2316 003c B979     		ldrb	r1, [r7, #6]	@ zero_extendqisi2
 2317 003e B879     		ldrb	r0, [r7, #6]	@ zero_extendqisi2
 2318 0040 40F20002 		movw	r2, #:lower16:USB_EP
 2319 0044 C0F20002 		movt	r2, #:upper16:USB_EP
 2320 0048 0346     		mov	r3, r0
 2321 004a 4FEA4303 		lsl	r3, r3, #1
 2322 004e 1B18     		adds	r3, r3, r0
 2323 0050 4FEA8303 		lsl	r3, r3, #2
 2324 0054 D318     		adds	r3, r2, r3
 2325 0056 9B78     		ldrb	r3, [r3, #2]
 2326 0058 DBB2     		uxtb	r3, r3
 2327 005a 23F00103 		bic	r3, r3, #1
 2328 005e D8B2     		uxtb	r0, r3
 2329 0060 40F20002 		movw	r2, #:lower16:USB_EP
 2330 0064 C0F20002 		movt	r2, #:upper16:USB_EP
 2331 0068 0B46     		mov	r3, r1
 2332 006a 4FEA4303 		lsl	r3, r3, #1
 2333 006e 5B18     		adds	r3, r3, r1
 2334 0070 4FEA8303 		lsl	r3, r3, #2
 2335 0074 D318     		adds	r3, r2, r3
 2336 0076 0246     		mov	r2, r0
 2337 0078 9A70     		strb	r2, [r3, #2]
1090:.\Generated_Source\PSoC5/USB_std.c **** 
1091:.\Generated_Source\PSoC5/USB_std.c ****         /* Clear the data toggle */
1092:.\Generated_Source\PSoC5/USB_std.c ****         USB_EP[ep].epToggle = 0u;
 2338              		.loc 1 1092 0
 2339 007a B979     		ldrb	r1, [r7, #6]	@ zero_extendqisi2
 2340 007c 40F20002 		movw	r2, #:lower16:USB_EP
ARM GAS  C:\Users\makij\AppData\Local\Temp\ccAkhLin.s 			page 62


 2341 0080 C0F20002 		movt	r2, #:upper16:USB_EP
 2342 0084 0B46     		mov	r3, r1
 2343 0086 4FEA4303 		lsl	r3, r3, #1
 2344 008a 5B18     		adds	r3, r3, r1
 2345 008c 4FEA8303 		lsl	r3, r3, #2
 2346 0090 D318     		adds	r3, r2, r3
 2347 0092 4FF00002 		mov	r2, #0
 2348 0096 DA70     		strb	r2, [r3, #3]
1093:.\Generated_Source\PSoC5/USB_std.c ****         /* Clear toggle bit for already armed packet */
1094:.\Generated_Source\PSoC5/USB_std.c ****         CY_SET_REG8((reg8 *)(USB_SIE_EP1_CNT0_IND + ri), CY_GET_REG8(
 2349              		.loc 1 1094 0
 2350 0098 7A79     		ldrb	r2, [r7, #5]	@ zero_extendqisi2
 2351 009a 46F20C03 		movw	r3, #24588
 2352 009e C4F20003 		movt	r3, 16384
 2353 00a2 D318     		adds	r3, r2, r3
 2354 00a4 1A46     		mov	r2, r3
 2355 00a6 7979     		ldrb	r1, [r7, #5]	@ zero_extendqisi2
 2356 00a8 46F20C03 		movw	r3, #24588
 2357 00ac C4F20003 		movt	r3, 16384
 2358 00b0 CB18     		adds	r3, r1, r3
 2359 00b2 1B78     		ldrb	r3, [r3, #0]
 2360 00b4 DBB2     		uxtb	r3, r3
 2361 00b6 03F07F03 		and	r3, r3, #127
 2362 00ba DBB2     		uxtb	r3, r3
 2363 00bc 1370     		strb	r3, [r2, #0]
1095:.\Generated_Source\PSoC5/USB_std.c ****                     (reg8 *)(USB_SIE_EP1_CNT0_IND + ri)) & (uint8)~USB_EPX_CNT_DATA_TOGGLE);
1096:.\Generated_Source\PSoC5/USB_std.c ****         /* Return API State as it was defined before */
1097:.\Generated_Source\PSoC5/USB_std.c ****         USB_EP[ep].apiEpState &= (uint8)~USB_NO_EVENT_ALLOWED;
 2364              		.loc 1 1097 0
 2365 00be B979     		ldrb	r1, [r7, #6]	@ zero_extendqisi2
 2366 00c0 B879     		ldrb	r0, [r7, #6]	@ zero_extendqisi2
 2367 00c2 40F20002 		movw	r2, #:lower16:USB_EP
 2368 00c6 C0F20002 		movt	r2, #:upper16:USB_EP
 2369 00ca 0346     		mov	r3, r0
 2370 00cc 4FEA4303 		lsl	r3, r3, #1
 2371 00d0 1B18     		adds	r3, r3, r0
 2372 00d2 4FEA8303 		lsl	r3, r3, #2
 2373 00d6 D318     		adds	r3, r2, r3
 2374 00d8 5B78     		ldrb	r3, [r3, #1]
 2375 00da DBB2     		uxtb	r3, r3
 2376 00dc 23F00203 		bic	r3, r3, #2
 2377 00e0 D8B2     		uxtb	r0, r3
 2378 00e2 40F20002 		movw	r2, #:lower16:USB_EP
 2379 00e6 C0F20002 		movt	r2, #:upper16:USB_EP
 2380 00ea 0B46     		mov	r3, r1
 2381 00ec 4FEA4303 		lsl	r3, r3, #1
 2382 00f0 5B18     		adds	r3, r3, r1
 2383 00f2 4FEA8303 		lsl	r3, r3, #2
 2384 00f6 D318     		adds	r3, r2, r3
 2385 00f8 0246     		mov	r2, r0
 2386 00fa 5A70     		strb	r2, [r3, #1]
1098:.\Generated_Source\PSoC5/USB_std.c **** 
1099:.\Generated_Source\PSoC5/USB_std.c ****         if ((USB_EP[ep].addr & USB_DIR_IN) != 0u)
 2387              		.loc 1 1099 0
 2388 00fc B979     		ldrb	r1, [r7, #6]	@ zero_extendqisi2
 2389 00fe 40F20002 		movw	r2, #:lower16:USB_EP
 2390 0102 C0F20002 		movt	r2, #:upper16:USB_EP
ARM GAS  C:\Users\makij\AppData\Local\Temp\ccAkhLin.s 			page 63


 2391 0106 0B46     		mov	r3, r1
 2392 0108 4FEA4303 		lsl	r3, r3, #1
 2393 010c 5B18     		adds	r3, r3, r1
 2394 010e 4FEA8303 		lsl	r3, r3, #2
 2395 0112 D318     		adds	r3, r2, r3
 2396 0114 1B79     		ldrb	r3, [r3, #4]
 2397 0116 DBB2     		uxtb	r3, r3
 2398 0118 DBB2     		uxtb	r3, r3
 2399 011a 5BB2     		sxtb	r3, r3
 2400 011c 002B     		cmp	r3, #0
 2401 011e 23DA     		bge	.L124
1100:.\Generated_Source\PSoC5/USB_std.c ****         {
1101:.\Generated_Source\PSoC5/USB_std.c ****             /* IN Endpoint */
1102:.\Generated_Source\PSoC5/USB_std.c ****             if(USB_EP[ep].apiEpState == USB_IN_BUFFER_EMPTY)
 2402              		.loc 1 1102 0
 2403 0120 B979     		ldrb	r1, [r7, #6]	@ zero_extendqisi2
 2404 0122 40F20002 		movw	r2, #:lower16:USB_EP
 2405 0126 C0F20002 		movt	r2, #:upper16:USB_EP
 2406 012a 0B46     		mov	r3, r1
 2407 012c 4FEA4303 		lsl	r3, r3, #1
 2408 0130 5B18     		adds	r3, r3, r1
 2409 0132 4FEA8303 		lsl	r3, r3, #2
 2410 0136 D318     		adds	r3, r2, r3
 2411 0138 5B78     		ldrb	r3, [r3, #1]
 2412 013a DBB2     		uxtb	r3, r3
 2413 013c 012B     		cmp	r3, #1
 2414 013e 09D1     		bne	.L125
1103:.\Generated_Source\PSoC5/USB_std.c ****             {       /* Wait for next packet from application */
1104:.\Generated_Source\PSoC5/USB_std.c ****                 CY_SET_REG8((reg8 *)(USB_SIE_EP1_CR0_IND + ri), USB_MODE_NAK_IN);
 2415              		.loc 1 1104 0
 2416 0140 7A79     		ldrb	r2, [r7, #5]	@ zero_extendqisi2
 2417 0142 46F20E03 		movw	r3, #24590
 2418 0146 C4F20003 		movt	r3, 16384
 2419 014a D318     		adds	r3, r2, r3
 2420 014c 4FF00C02 		mov	r2, #12
 2421 0150 1A70     		strb	r2, [r3, #0]
 2422 0152 2CE0     		b	.L126
 2423              	.L125:
1105:.\Generated_Source\PSoC5/USB_std.c ****             }
1106:.\Generated_Source\PSoC5/USB_std.c ****             else    /* Continue armed transfer */
1107:.\Generated_Source\PSoC5/USB_std.c ****             {
1108:.\Generated_Source\PSoC5/USB_std.c ****                 CY_SET_REG8((reg8 *)(USB_SIE_EP1_CR0_IND + ri), USB_MODE_ACK_IN);
 2424              		.loc 1 1108 0
 2425 0154 7A79     		ldrb	r2, [r7, #5]	@ zero_extendqisi2
 2426 0156 46F20E03 		movw	r3, #24590
 2427 015a C4F20003 		movt	r3, 16384
 2428 015e D318     		adds	r3, r2, r3
 2429 0160 4FF00D02 		mov	r2, #13
 2430 0164 1A70     		strb	r2, [r3, #0]
 2431 0166 22E0     		b	.L126
 2432              	.L124:
1109:.\Generated_Source\PSoC5/USB_std.c ****             }
1110:.\Generated_Source\PSoC5/USB_std.c ****         }
1111:.\Generated_Source\PSoC5/USB_std.c ****         else
1112:.\Generated_Source\PSoC5/USB_std.c ****         {
1113:.\Generated_Source\PSoC5/USB_std.c ****             /* OUT Endpoint */
1114:.\Generated_Source\PSoC5/USB_std.c ****             if(USB_EP[ep].apiEpState == USB_OUT_BUFFER_FULL)
ARM GAS  C:\Users\makij\AppData\Local\Temp\ccAkhLin.s 			page 64


 2433              		.loc 1 1114 0
 2434 0168 B979     		ldrb	r1, [r7, #6]	@ zero_extendqisi2
 2435 016a 40F20002 		movw	r2, #:lower16:USB_EP
 2436 016e C0F20002 		movt	r2, #:upper16:USB_EP
 2437 0172 0B46     		mov	r3, r1
 2438 0174 4FEA4303 		lsl	r3, r3, #1
 2439 0178 5B18     		adds	r3, r3, r1
 2440 017a 4FEA8303 		lsl	r3, r3, #2
 2441 017e D318     		adds	r3, r2, r3
 2442 0180 5B78     		ldrb	r3, [r3, #1]
 2443 0182 DBB2     		uxtb	r3, r3
 2444 0184 012B     		cmp	r3, #1
 2445 0186 09D1     		bne	.L127
1115:.\Generated_Source\PSoC5/USB_std.c ****             {       /* Allow application to read full buffer */
1116:.\Generated_Source\PSoC5/USB_std.c ****                 CY_SET_REG8((reg8 *)(USB_SIE_EP1_CR0_IND + ri), USB_MODE_NAK_OUT);
 2446              		.loc 1 1116 0
 2447 0188 7A79     		ldrb	r2, [r7, #5]	@ zero_extendqisi2
 2448 018a 46F20E03 		movw	r3, #24590
 2449 018e C4F20003 		movt	r3, 16384
 2450 0192 D318     		adds	r3, r2, r3
 2451 0194 4FF00802 		mov	r2, #8
 2452 0198 1A70     		strb	r2, [r3, #0]
 2453 019a 08E0     		b	.L126
 2454              	.L127:
1117:.\Generated_Source\PSoC5/USB_std.c ****             }
1118:.\Generated_Source\PSoC5/USB_std.c ****             else    /* Mark endpoint as empty, so it will be reloaded */
1119:.\Generated_Source\PSoC5/USB_std.c ****             {
1120:.\Generated_Source\PSoC5/USB_std.c ****                 CY_SET_REG8((reg8 *)(USB_SIE_EP1_CR0_IND + ri), USB_MODE_ACK_OUT);
 2455              		.loc 1 1120 0
 2456 019c 7A79     		ldrb	r2, [r7, #5]	@ zero_extendqisi2
 2457 019e 46F20E03 		movw	r3, #24590
 2458 01a2 C4F20003 		movt	r3, 16384
 2459 01a6 D318     		adds	r3, r2, r3
 2460 01a8 4FF00902 		mov	r2, #9
 2461 01ac 1A70     		strb	r2, [r3, #0]
 2462              	.L126:
1121:.\Generated_Source\PSoC5/USB_std.c ****             }
1122:.\Generated_Source\PSoC5/USB_std.c ****         }
1123:.\Generated_Source\PSoC5/USB_std.c ****         requestHandled = USB_InitNoDataControlTransfer();
 2463              		.loc 1 1123 0
 2464 01ae FFF7FEFF 		bl	USB_InitNoDataControlTransfer
 2465 01b2 0346     		mov	r3, r0
 2466 01b4 FB71     		strb	r3, [r7, #7]
 2467              	.L123:
1124:.\Generated_Source\PSoC5/USB_std.c ****     }
1125:.\Generated_Source\PSoC5/USB_std.c **** 
1126:.\Generated_Source\PSoC5/USB_std.c ****     return(requestHandled);
 2468              		.loc 1 1126 0
 2469 01b6 FB79     		ldrb	r3, [r7, #7]	@ zero_extendqisi2
1127:.\Generated_Source\PSoC5/USB_std.c **** }
 2470              		.loc 1 1127 0
 2471 01b8 1846     		mov	r0, r3
 2472 01ba 07F10807 		add	r7, r7, #8
 2473 01be BD46     		mov	sp, r7
 2474 01c0 80BD     		pop	{r7, pc}
 2475              		.cfi_endproc
 2476              	.LFE9:
ARM GAS  C:\Users\makij\AppData\Local\Temp\ccAkhLin.s 			page 65


 2477              		.size	USB_ClearEndpointHalt, .-USB_ClearEndpointHalt
 2478 01c2 00BF     		.section	.text.USB_ValidateAlternateSetting,"ax",%progbits
 2479              		.align	2
 2480              		.global	USB_ValidateAlternateSetting
 2481              		.thumb
 2482              		.thumb_func
 2483              		.type	USB_ValidateAlternateSetting, %function
 2484              	USB_ValidateAlternateSetting:
 2485              	.LFB10:
1128:.\Generated_Source\PSoC5/USB_std.c **** 
1129:.\Generated_Source\PSoC5/USB_std.c **** 
1130:.\Generated_Source\PSoC5/USB_std.c **** /*******************************************************************************
1131:.\Generated_Source\PSoC5/USB_std.c **** * Function Name: USB_ValidateAlternateSetting
1132:.\Generated_Source\PSoC5/USB_std.c **** ********************************************************************************
1133:.\Generated_Source\PSoC5/USB_std.c **** *
1134:.\Generated_Source\PSoC5/USB_std.c **** * Summary:
1135:.\Generated_Source\PSoC5/USB_std.c **** *  Validates (and records) a SET INTERFACE request.
1136:.\Generated_Source\PSoC5/USB_std.c **** *
1137:.\Generated_Source\PSoC5/USB_std.c **** * Parameters:
1138:.\Generated_Source\PSoC5/USB_std.c **** *  None.
1139:.\Generated_Source\PSoC5/USB_std.c **** *
1140:.\Generated_Source\PSoC5/USB_std.c **** * Return:
1141:.\Generated_Source\PSoC5/USB_std.c **** *  requestHandled.
1142:.\Generated_Source\PSoC5/USB_std.c **** *
1143:.\Generated_Source\PSoC5/USB_std.c **** * Reentrant:
1144:.\Generated_Source\PSoC5/USB_std.c **** *  No.
1145:.\Generated_Source\PSoC5/USB_std.c **** *
1146:.\Generated_Source\PSoC5/USB_std.c **** *******************************************************************************/
1147:.\Generated_Source\PSoC5/USB_std.c **** uint8 USB_ValidateAlternateSetting(void) 
1148:.\Generated_Source\PSoC5/USB_std.c **** {
 2486              		.loc 1 1148 0
 2487              		.cfi_startproc
 2488              		@ args = 0, pretend = 0, frame = 16
 2489              		@ frame_needed = 1, uses_anonymous_args = 0
 2490 0000 80B5     		push	{r7, lr}
 2491              	.LCFI29:
 2492              		.cfi_def_cfa_offset 8
 2493              		.cfi_offset 7, -8
 2494              		.cfi_offset 14, -4
 2495 0002 84B0     		sub	sp, sp, #16
 2496              	.LCFI30:
 2497              		.cfi_def_cfa_offset 24
 2498 0004 00AF     		add	r7, sp, #0
 2499              	.LCFI31:
 2500              		.cfi_def_cfa_register 7
1149:.\Generated_Source\PSoC5/USB_std.c ****     uint8 requestHandled = USB_TRUE;
 2501              		.loc 1 1149 0
 2502 0006 4FF00103 		mov	r3, #1
 2503 000a FB73     		strb	r3, [r7, #15]
1150:.\Generated_Source\PSoC5/USB_std.c ****     uint8 interfaceNum;
1151:.\Generated_Source\PSoC5/USB_std.c ****     const T_USB_LUT CYCODE *pTmp;
1152:.\Generated_Source\PSoC5/USB_std.c ****     uint8 currentInterfacesNum;
1153:.\Generated_Source\PSoC5/USB_std.c **** 
1154:.\Generated_Source\PSoC5/USB_std.c ****     interfaceNum = CY_GET_REG8(USB_wIndexLo);
 2504              		.loc 1 1154 0
 2505 000c 46F20403 		movw	r3, #24580
 2506 0010 C4F20003 		movt	r3, 16384
ARM GAS  C:\Users\makij\AppData\Local\Temp\ccAkhLin.s 			page 66


 2507 0014 1B78     		ldrb	r3, [r3, #0]
 2508 0016 BB73     		strb	r3, [r7, #14]
1155:.\Generated_Source\PSoC5/USB_std.c ****     /* Validate interface setting, stall if invalid. */
1156:.\Generated_Source\PSoC5/USB_std.c ****     pTmp = USB_GetConfigTablePtr(USB_configuration - 1u);
 2509              		.loc 1 1156 0
 2510 0018 40F20003 		movw	r3, #:lower16:USB_configuration
 2511 001c C0F20003 		movt	r3, #:upper16:USB_configuration
 2512 0020 1B78     		ldrb	r3, [r3, #0]
 2513 0022 DBB2     		uxtb	r3, r3
 2514 0024 03F1FF33 		add	r3, r3, #-1
 2515 0028 DBB2     		uxtb	r3, r3
 2516 002a 1846     		mov	r0, r3
 2517 002c FFF7FEFF 		bl	USB_GetConfigTablePtr
 2518 0030 B860     		str	r0, [r7, #8]
1157:.\Generated_Source\PSoC5/USB_std.c ****     currentInterfacesNum  = ((const uint8 *) pTmp->p_list)[USB_CONFIG_DESCR_NUM_INTERFACES];
 2519              		.loc 1 1157 0
 2520 0032 BB68     		ldr	r3, [r7, #8]
 2521 0034 5B68     		ldr	r3, [r3, #4]
 2522 0036 1B79     		ldrb	r3, [r3, #4]
 2523 0038 FB71     		strb	r3, [r7, #7]
1158:.\Generated_Source\PSoC5/USB_std.c **** 
1159:.\Generated_Source\PSoC5/USB_std.c ****     if((interfaceNum >= currentInterfacesNum) || (interfaceNum >= USB_MAX_INTERFACES_NUMBER))
 2524              		.loc 1 1159 0
 2525 003a BA7B     		ldrb	r2, [r7, #14]	@ zero_extendqisi2
 2526 003c FB79     		ldrb	r3, [r7, #7]	@ zero_extendqisi2
 2527 003e 9A42     		cmp	r2, r3
 2528 0040 02D2     		bcs	.L130
 2529              		.loc 1 1159 0 is_stmt 0 discriminator 1
 2530 0042 BB7B     		ldrb	r3, [r7, #14]	@ zero_extendqisi2
 2531 0044 002B     		cmp	r3, #0
 2532 0046 03D0     		beq	.L131
 2533              	.L130:
1160:.\Generated_Source\PSoC5/USB_std.c ****     {   /* Wrong interface number */
1161:.\Generated_Source\PSoC5/USB_std.c ****         requestHandled = USB_FALSE;
 2534              		.loc 1 1161 0 is_stmt 1
 2535 0048 4FF00003 		mov	r3, #0
 2536 004c FB73     		strb	r3, [r7, #15]
 2537 004e 18E0     		b	.L132
 2538              	.L131:
1162:.\Generated_Source\PSoC5/USB_std.c ****     }
1163:.\Generated_Source\PSoC5/USB_std.c ****     else
1164:.\Generated_Source\PSoC5/USB_std.c ****     {
1165:.\Generated_Source\PSoC5/USB_std.c ****         /* Save current Alt setting to find out the difference in Config() function */
1166:.\Generated_Source\PSoC5/USB_std.c ****         USB_interfaceSetting_last[interfaceNum] = USB_interfaceSetting[interfaceNum];
 2539              		.loc 1 1166 0
 2540 0050 BA7B     		ldrb	r2, [r7, #14]	@ zero_extendqisi2
 2541 0052 B97B     		ldrb	r1, [r7, #14]	@ zero_extendqisi2
 2542 0054 40F20003 		movw	r3, #:lower16:USB_interfaceSetting
 2543 0058 C0F20003 		movt	r3, #:upper16:USB_interfaceSetting
 2544 005c 5B5C     		ldrb	r3, [r3, r1]
 2545 005e D9B2     		uxtb	r1, r3
 2546 0060 40F20003 		movw	r3, #:lower16:USB_interfaceSetting_last
 2547 0064 C0F20003 		movt	r3, #:upper16:USB_interfaceSetting_last
 2548 0068 9954     		strb	r1, [r3, r2]
1167:.\Generated_Source\PSoC5/USB_std.c ****         USB_interfaceSetting[interfaceNum] = CY_GET_REG8(USB_wValueLo);
 2549              		.loc 1 1167 0
 2550 006a BA7B     		ldrb	r2, [r7, #14]	@ zero_extendqisi2
ARM GAS  C:\Users\makij\AppData\Local\Temp\ccAkhLin.s 			page 67


 2551 006c 46F20203 		movw	r3, #24578
 2552 0070 C4F20003 		movt	r3, 16384
 2553 0074 1B78     		ldrb	r3, [r3, #0]
 2554 0076 D9B2     		uxtb	r1, r3
 2555 0078 40F20003 		movw	r3, #:lower16:USB_interfaceSetting
 2556 007c C0F20003 		movt	r3, #:upper16:USB_interfaceSetting
 2557 0080 9954     		strb	r1, [r3, r2]
 2558              	.L132:
1168:.\Generated_Source\PSoC5/USB_std.c ****     }
1169:.\Generated_Source\PSoC5/USB_std.c **** 
1170:.\Generated_Source\PSoC5/USB_std.c ****     return (requestHandled);
 2559              		.loc 1 1170 0
 2560 0082 FB7B     		ldrb	r3, [r7, #15]	@ zero_extendqisi2
1171:.\Generated_Source\PSoC5/USB_std.c **** }
 2561              		.loc 1 1171 0
 2562 0084 1846     		mov	r0, r3
 2563 0086 07F11007 		add	r7, r7, #16
 2564 008a BD46     		mov	sp, r7
 2565 008c 80BD     		pop	{r7, pc}
 2566              		.cfi_endproc
 2567              	.LFE10:
 2568              		.size	USB_ValidateAlternateSetting, .-USB_ValidateAlternateSetting
 2569              		.bss
 2570              		.align	2
 2571              	USB_tBuffer.4962:
 2572 0000 0000     		.space	2
 2573 0002 0000     		.text
 2574              	.Letext0:
 2575              		.file 2 ".\\Generated_Source\\PSoC5\\cytypes.h"
 2576              		.file 3 ".\\Generated_Source\\PSoC5\\USB.h"
 2577              		.file 4 ".\\Generated_Source\\PSoC5\\USB_pvt.h"