ARM GAS  C:\Users\makij\AppData\Local\Temp\cc86oqbM.s 			page 1


   1              		.syntax unified
   2              		.cpu cortex-m3
   3              		.fpu softvfp
   4              		.eabi_attribute 20, 1
   5              		.eabi_attribute 21, 1
   6              		.eabi_attribute 23, 3
   7              		.eabi_attribute 24, 1
   8              		.eabi_attribute 25, 1
   9              		.eabi_attribute 26, 1
  10              		.eabi_attribute 30, 6
  11              		.eabi_attribute 34, 1
  12              		.eabi_attribute 18, 4
  13              		.thumb
  14              		.file	"main.c"
  15              		.text
  16              	.Ltext0:
  17              		.cfi_sections	.debug_frame
  18              		.comm	usb,80,4
  19              		.comm	hex,160,4
  20              		.comm	packetBin,4,4
  21              		.comm	packetSend,640,4
  22              		.comm	dec,4,4
  23              		.global	messageSize
  24              		.bss
  25              		.type	messageSize, %object
  26              		.size	messageSize, 1
  27              	messageSize:
  28 0000 00       		.space	1
  29              		.comm	packetUSB,80,4
  30              		.global	dataReady
  31              		.type	dataReady, %object
  32              		.size	dataReady, 1
  33              	dataReady:
  34 0001 00       		.space	1
  35              		.global	i_send
  36 0002 0000     		.align	2
  37              		.type	i_send, %object
  38              		.size	i_send, 4
  39              	i_send:
  40 0004 00000000 		.space	4
  41              		.global	messageBufferPosition
  42              		.type	messageBufferPosition, %object
  43              		.size	messageBufferPosition, 1
  44              	messageBufferPosition:
  45 0008 00       		.space	1
  46              		.comm	messageReady,1,1
  47 0009 000000   		.section	.text.isr_sendingData,"ax",%progbits
  48              		.align	2
  49              		.global	isr_sendingData
  50              		.thumb
  51              		.thumb_func
  52              		.type	isr_sendingData, %function
  53              	isr_sendingData:
  54              	.LFB56:
  55              		.file 1 ".\\main.c"
   1:.\main.c      **** /* ========================================
   2:.\main.c      ****  *
ARM GAS  C:\Users\makij\AppData\Local\Temp\cc86oqbM.s 			page 2


   3:.\main.c      ****  * Copyright YOUR COMPANY, THE YEAR
   4:.\main.c      ****  * All Rights Reserved
   5:.\main.c      ****  * UNPUBLISHED, LICENSED SOFTWARE.
   6:.\main.c      ****  *
   7:.\main.c      ****  * CONFIDENTIAL AND PROPRIETARY INFORMATION
   8:.\main.c      ****  * WHICH IS THE PROPERTY OF your company.
   9:.\main.c      ****  *
  10:.\main.c      ****  * ========================================
  11:.\main.c      **** */
  12:.\main.c      **** #include <project.h>
  13:.\main.c      **** 
  14:.\main.c      **** #include <stdio.h>
  15:.\main.c      **** #include <stdlib.h>
  16:.\main.c      **** #include <math.h>
  17:.\main.c      **** #include <stdbool.h>
  18:.\main.c      **** 
  19:.\main.c      **** #include "main.h"
  20:.\main.c      **** 
  21:.\main.c      **** 
  22:.\main.c      **** //usb and sending data
  23:.\main.c      **** char usb[80];
  24:.\main.c      **** char hex[80*2];
  25:.\main.c      **** char packetBin[4];
  26:.\main.c      **** char packetSend[80*8];
  27:.\main.c      **** unsigned int dec;
  28:.\main.c      **** uint8 messageSize = 0;
  29:.\main.c      **** 
  30:.\main.c      **** //memset(usb, '0', 80);
  31:.\main.c      **** //memset(hex, '0', (80*2));
  32:.\main.c      **** //memset(packetBin, '0', 4);
  33:.\main.c      **** //memset(packetSend, '0', (80*8));
  34:.\main.c      **** 
  35:.\main.c      **** char packetUSB[80];
  36:.\main.c      **** //char packetMessage[80];
  37:.\main.c      **** //char packetHex[80*2];
  38:.\main.c      **** //uint8 packetBinary[4];
  39:.\main.c      **** //uint8 packetSend[80*8];
  40:.\main.c      **** //uint8 dec;
  41:.\main.c      **** //uint8 flag = 1;
  42:.\main.c      **** bool dataReady = false;
  43:.\main.c      **** int i_send = 0;
  44:.\main.c      **** 
  45:.\main.c      **** uint8 messageBufferPosition = 0;
  46:.\main.c      **** bool messageReady;
  47:.\main.c      **** 
  48:.\main.c      **** CY_ISR(isr_sendingData)
  49:.\main.c      **** {
  56              		.loc 1 49 0
  57              		.cfi_startproc
  58              		@ args = 0, pretend = 0, frame = 0
  59              		@ frame_needed = 1, uses_anonymous_args = 0
  60              		@ link register save eliminated.
  61 0000 80B4     		push	{r7}
  62              	.LCFI0:
  63              		.cfi_def_cfa_offset 4
  64              		.cfi_offset 7, -4
  65 0002 00AF     		add	r7, sp, #0
ARM GAS  C:\Users\makij\AppData\Local\Temp\cc86oqbM.s 			page 3


  66              	.LCFI1:
  67              		.cfi_def_cfa_register 7
  50:.\main.c      **** 	//flag = !flag;
  51:.\main.c      **** 	//Transm_Output_Write(flag);
  52:.\main.c      **** //	Transm_Output_Write(packetSend[i_send]);
  53:.\main.c      **** 	i_send++;
  68              		.loc 1 53 0
  69 0004 40F20003 		movw	r3, #:lower16:i_send
  70 0008 C0F20003 		movt	r3, #:upper16:i_send
  71 000c 1B68     		ldr	r3, [r3, #0]
  72 000e 03F10102 		add	r2, r3, #1
  73 0012 40F20003 		movw	r3, #:lower16:i_send
  74 0016 C0F20003 		movt	r3, #:upper16:i_send
  75 001a 1A60     		str	r2, [r3, #0]
  54:.\main.c      **** }
  76              		.loc 1 54 0
  77 001c BD46     		mov	sp, r7
  78 001e 80BC     		pop	{r7}
  79 0020 7047     		bx	lr
  80              		.cfi_endproc
  81              	.LFE56:
  82              		.size	isr_sendingData, .-isr_sendingData
  83              		.global	__aeabi_i2d
  84              		.global	__aeabi_dmul
  85              		.global	__aeabi_dadd
  86              		.global	__aeabi_d2iz
  87 0022 00BF     		.section	.text.hex_decimal,"ax",%progbits
  88              		.align	2
  89              		.global	hex_decimal
  90              		.thumb
  91              		.thumb_func
  92              		.type	hex_decimal, %function
  93              	hex_decimal:
  94              	.LFB57:
  55:.\main.c      **** 
  56:.\main.c      **** int hex_decimal(char hex[])   /* Function to convert hexadecimal to decimal. */
  57:.\main.c      **** {
  95              		.loc 1 57 0
  96              		.cfi_startproc
  97              		@ args = 0, pretend = 0, frame = 24
  98              		@ frame_needed = 1, uses_anonymous_args = 0
  99 0000 2DE9B043 		push	{r4, r5, r7, r8, r9, lr}
 100              	.LCFI2:
 101              		.cfi_def_cfa_offset 24
 102              		.cfi_offset 4, -24
 103              		.cfi_offset 5, -20
 104              		.cfi_offset 7, -16
 105              		.cfi_offset 8, -12
 106              		.cfi_offset 9, -8
 107              		.cfi_offset 14, -4
 108 0004 86B0     		sub	sp, sp, #24
 109              	.LCFI3:
 110              		.cfi_def_cfa_offset 48
 111 0006 00AF     		add	r7, sp, #0
 112              	.LCFI4:
 113              		.cfi_def_cfa_register 7
 114 0008 7860     		str	r0, [r7, #4]
ARM GAS  C:\Users\makij\AppData\Local\Temp\cc86oqbM.s 			page 4


  58:.\main.c      ****   int i, length, sum=0;
 115              		.loc 1 58 0
 116 000a 4FF00003 		mov	r3, #0
 117 000e FB60     		str	r3, [r7, #12]
  59:.\main.c      ****     for(length=0; hex[length]!='\0'; ++length);
 118              		.loc 1 59 0
 119 0010 4FF00003 		mov	r3, #0
 120 0014 3B61     		str	r3, [r7, #16]
 121 0016 03E0     		b	.L3
 122              	.L4:
 123              		.loc 1 59 0 is_stmt 0 discriminator 2
 124 0018 3B69     		ldr	r3, [r7, #16]
 125 001a 03F10103 		add	r3, r3, #1
 126 001e 3B61     		str	r3, [r7, #16]
 127              	.L3:
 128              		.loc 1 59 0 discriminator 1
 129 0020 3B69     		ldr	r3, [r7, #16]
 130 0022 7A68     		ldr	r2, [r7, #4]
 131 0024 D318     		adds	r3, r2, r3
 132 0026 1B78     		ldrb	r3, [r3, #0]	@ zero_extendqisi2
 133 0028 002B     		cmp	r3, #0
 134 002a F5D1     		bne	.L4
  60:.\main.c      ****     for(; hex[i]!='\0'; ++i, --length)
 135              		.loc 1 60 0 is_stmt 1
 136 002c C7E0     		b	.L5
 137              	.L9:
  61:.\main.c      ****     {
  62:.\main.c      ****         if(hex[i]>='0' && hex[i]<='9')
 138              		.loc 1 62 0
 139 002e 7B69     		ldr	r3, [r7, #20]
 140 0030 7A68     		ldr	r2, [r7, #4]
 141 0032 D318     		adds	r3, r2, r3
 142 0034 1B78     		ldrb	r3, [r3, #0]	@ zero_extendqisi2
 143 0036 2F2B     		cmp	r3, #47
 144 0038 39D9     		bls	.L6
 145              		.loc 1 62 0 is_stmt 0 discriminator 1
 146 003a 7B69     		ldr	r3, [r7, #20]
 147 003c 7A68     		ldr	r2, [r7, #4]
 148 003e D318     		adds	r3, r2, r3
 149 0040 1B78     		ldrb	r3, [r3, #0]	@ zero_extendqisi2
 150 0042 392B     		cmp	r3, #57
 151 0044 33D8     		bhi	.L6
  63:.\main.c      ****             sum+=(hex[i]-'0')*pow(16,length-1);
 152              		.loc 1 63 0 is_stmt 1
 153 0046 F868     		ldr	r0, [r7, #12]
 154 0048 FFF7FEFF 		bl	__aeabi_i2d
 155 004c 0446     		mov	r4, r0
 156 004e 0D46     		mov	r5, r1
 157 0050 7B69     		ldr	r3, [r7, #20]
 158 0052 7A68     		ldr	r2, [r7, #4]
 159 0054 D318     		adds	r3, r2, r3
 160 0056 1B78     		ldrb	r3, [r3, #0]	@ zero_extendqisi2
 161 0058 A3F13003 		sub	r3, r3, #48
 162 005c 1846     		mov	r0, r3
 163 005e FFF7FEFF 		bl	__aeabi_i2d
 164 0062 8046     		mov	r8, r0
 165 0064 8946     		mov	r9, r1
ARM GAS  C:\Users\makij\AppData\Local\Temp\cc86oqbM.s 			page 5


 166 0066 3B69     		ldr	r3, [r7, #16]
 167 0068 03F1FF33 		add	r3, r3, #-1
 168 006c 1846     		mov	r0, r3
 169 006e FFF7FEFF 		bl	__aeabi_i2d
 170 0072 0246     		mov	r2, r0
 171 0074 0B46     		mov	r3, r1
 172 0076 4FF00000 		mov	r0, #0
 173 007a 4FF00001 		mov	r1, #0
 174 007e C4F23001 		movt	r1, 16432
 175 0082 FFF7FEFF 		bl	pow
 176 0086 0246     		mov	r2, r0
 177 0088 0B46     		mov	r3, r1
 178 008a 4046     		mov	r0, r8
 179 008c 4946     		mov	r1, r9
 180 008e FFF7FEFF 		bl	__aeabi_dmul
 181 0092 0246     		mov	r2, r0
 182 0094 0B46     		mov	r3, r1
 183 0096 2046     		mov	r0, r4
 184 0098 2946     		mov	r1, r5
 185 009a FFF7FEFF 		bl	__aeabi_dadd
 186 009e 0246     		mov	r2, r0
 187 00a0 0B46     		mov	r3, r1
 188 00a2 1046     		mov	r0, r2
 189 00a4 1946     		mov	r1, r3
 190 00a6 FFF7FEFF 		bl	__aeabi_d2iz
 191 00aa 0346     		mov	r3, r0
 192 00ac FB60     		str	r3, [r7, #12]
 193              	.L6:
  64:.\main.c      ****         if(hex[i]>='A' && hex[i]<='F')
 194              		.loc 1 64 0
 195 00ae 7B69     		ldr	r3, [r7, #20]
 196 00b0 7A68     		ldr	r2, [r7, #4]
 197 00b2 D318     		adds	r3, r2, r3
 198 00b4 1B78     		ldrb	r3, [r3, #0]	@ zero_extendqisi2
 199 00b6 402B     		cmp	r3, #64
 200 00b8 39D9     		bls	.L7
 201              		.loc 1 64 0 is_stmt 0 discriminator 1
 202 00ba 7B69     		ldr	r3, [r7, #20]
 203 00bc 7A68     		ldr	r2, [r7, #4]
 204 00be D318     		adds	r3, r2, r3
 205 00c0 1B78     		ldrb	r3, [r3, #0]	@ zero_extendqisi2
 206 00c2 462B     		cmp	r3, #70
 207 00c4 33D8     		bhi	.L7
  65:.\main.c      ****             sum+=(hex[i]-55)*pow(16,length-1);
 208              		.loc 1 65 0 is_stmt 1
 209 00c6 F868     		ldr	r0, [r7, #12]
 210 00c8 FFF7FEFF 		bl	__aeabi_i2d
 211 00cc 0446     		mov	r4, r0
 212 00ce 0D46     		mov	r5, r1
 213 00d0 7B69     		ldr	r3, [r7, #20]
 214 00d2 7A68     		ldr	r2, [r7, #4]
 215 00d4 D318     		adds	r3, r2, r3
 216 00d6 1B78     		ldrb	r3, [r3, #0]	@ zero_extendqisi2
 217 00d8 A3F13703 		sub	r3, r3, #55
 218 00dc 1846     		mov	r0, r3
 219 00de FFF7FEFF 		bl	__aeabi_i2d
 220 00e2 8046     		mov	r8, r0
ARM GAS  C:\Users\makij\AppData\Local\Temp\cc86oqbM.s 			page 6


 221 00e4 8946     		mov	r9, r1
 222 00e6 3B69     		ldr	r3, [r7, #16]
 223 00e8 03F1FF33 		add	r3, r3, #-1
 224 00ec 1846     		mov	r0, r3
 225 00ee FFF7FEFF 		bl	__aeabi_i2d
 226 00f2 0246     		mov	r2, r0
 227 00f4 0B46     		mov	r3, r1
 228 00f6 4FF00000 		mov	r0, #0
 229 00fa 4FF00001 		mov	r1, #0
 230 00fe C4F23001 		movt	r1, 16432
 231 0102 FFF7FEFF 		bl	pow
 232 0106 0246     		mov	r2, r0
 233 0108 0B46     		mov	r3, r1
 234 010a 4046     		mov	r0, r8
 235 010c 4946     		mov	r1, r9
 236 010e FFF7FEFF 		bl	__aeabi_dmul
 237 0112 0246     		mov	r2, r0
 238 0114 0B46     		mov	r3, r1
 239 0116 2046     		mov	r0, r4
 240 0118 2946     		mov	r1, r5
 241 011a FFF7FEFF 		bl	__aeabi_dadd
 242 011e 0246     		mov	r2, r0
 243 0120 0B46     		mov	r3, r1
 244 0122 1046     		mov	r0, r2
 245 0124 1946     		mov	r1, r3
 246 0126 FFF7FEFF 		bl	__aeabi_d2iz
 247 012a 0346     		mov	r3, r0
 248 012c FB60     		str	r3, [r7, #12]
 249              	.L7:
  66:.\main.c      ****         if(hex[i]>='a' && hex[i]<='f')
 250              		.loc 1 66 0
 251 012e 7B69     		ldr	r3, [r7, #20]
 252 0130 7A68     		ldr	r2, [r7, #4]
 253 0132 D318     		adds	r3, r2, r3
 254 0134 1B78     		ldrb	r3, [r3, #0]	@ zero_extendqisi2
 255 0136 602B     		cmp	r3, #96
 256 0138 39D9     		bls	.L8
 257              		.loc 1 66 0 is_stmt 0 discriminator 1
 258 013a 7B69     		ldr	r3, [r7, #20]
 259 013c 7A68     		ldr	r2, [r7, #4]
 260 013e D318     		adds	r3, r2, r3
 261 0140 1B78     		ldrb	r3, [r3, #0]	@ zero_extendqisi2
 262 0142 662B     		cmp	r3, #102
 263 0144 33D8     		bhi	.L8
  67:.\main.c      ****             sum+=(hex[i]-87)*pow(16,length-1);
 264              		.loc 1 67 0 is_stmt 1
 265 0146 F868     		ldr	r0, [r7, #12]
 266 0148 FFF7FEFF 		bl	__aeabi_i2d
 267 014c 0446     		mov	r4, r0
 268 014e 0D46     		mov	r5, r1
 269 0150 7B69     		ldr	r3, [r7, #20]
 270 0152 7A68     		ldr	r2, [r7, #4]
 271 0154 D318     		adds	r3, r2, r3
 272 0156 1B78     		ldrb	r3, [r3, #0]	@ zero_extendqisi2
 273 0158 A3F15703 		sub	r3, r3, #87
 274 015c 1846     		mov	r0, r3
 275 015e FFF7FEFF 		bl	__aeabi_i2d
ARM GAS  C:\Users\makij\AppData\Local\Temp\cc86oqbM.s 			page 7


 276 0162 8046     		mov	r8, r0
 277 0164 8946     		mov	r9, r1
 278 0166 3B69     		ldr	r3, [r7, #16]
 279 0168 03F1FF33 		add	r3, r3, #-1
 280 016c 1846     		mov	r0, r3
 281 016e FFF7FEFF 		bl	__aeabi_i2d
 282 0172 0246     		mov	r2, r0
 283 0174 0B46     		mov	r3, r1
 284 0176 4FF00000 		mov	r0, #0
 285 017a 4FF00001 		mov	r1, #0
 286 017e C4F23001 		movt	r1, 16432
 287 0182 FFF7FEFF 		bl	pow
 288 0186 0246     		mov	r2, r0
 289 0188 0B46     		mov	r3, r1
 290 018a 4046     		mov	r0, r8
 291 018c 4946     		mov	r1, r9
 292 018e FFF7FEFF 		bl	__aeabi_dmul
 293 0192 0246     		mov	r2, r0
 294 0194 0B46     		mov	r3, r1
 295 0196 2046     		mov	r0, r4
 296 0198 2946     		mov	r1, r5
 297 019a FFF7FEFF 		bl	__aeabi_dadd
 298 019e 0246     		mov	r2, r0
 299 01a0 0B46     		mov	r3, r1
 300 01a2 1046     		mov	r0, r2
 301 01a4 1946     		mov	r1, r3
 302 01a6 FFF7FEFF 		bl	__aeabi_d2iz
 303 01aa 0346     		mov	r3, r0
 304 01ac FB60     		str	r3, [r7, #12]
 305              	.L8:
  60:.\main.c      ****     for(; hex[i]!='\0'; ++i, --length)
 306              		.loc 1 60 0
 307 01ae 7B69     		ldr	r3, [r7, #20]
 308 01b0 03F10103 		add	r3, r3, #1
 309 01b4 7B61     		str	r3, [r7, #20]
 310 01b6 3B69     		ldr	r3, [r7, #16]
 311 01b8 03F1FF33 		add	r3, r3, #-1
 312 01bc 3B61     		str	r3, [r7, #16]
 313              	.L5:
  60:.\main.c      ****     for(; hex[i]!='\0'; ++i, --length)
 314              		.loc 1 60 0 is_stmt 0 discriminator 1
 315 01be 7B69     		ldr	r3, [r7, #20]
 316 01c0 7A68     		ldr	r2, [r7, #4]
 317 01c2 D318     		adds	r3, r2, r3
 318 01c4 1B78     		ldrb	r3, [r3, #0]	@ zero_extendqisi2
 319 01c6 002B     		cmp	r3, #0
 320 01c8 7FF431AF 		bne	.L9
  68:.\main.c      ****     }
  69:.\main.c      ****     return sum;
 321              		.loc 1 69 0 is_stmt 1
 322 01cc FB68     		ldr	r3, [r7, #12]
  70:.\main.c      **** }
 323              		.loc 1 70 0
 324 01ce 1846     		mov	r0, r3
 325 01d0 07F11807 		add	r7, r7, #24
 326 01d4 BD46     		mov	sp, r7
 327 01d6 BDE8B083 		pop	{r4, r5, r7, r8, r9, pc}
ARM GAS  C:\Users\makij\AppData\Local\Temp\cc86oqbM.s 			page 8


 328              		.cfi_endproc
 329              	.LFE57:
 330              		.size	hex_decimal, .-hex_decimal
 331 01da 00BF     		.section	.text.mystrrev,"ax",%progbits
 332              		.align	2
 333              		.global	mystrrev
 334              		.thumb
 335              		.thumb_func
 336              		.type	mystrrev, %function
 337              	mystrrev:
 338              	.LFB58:
  71:.\main.c      **** 
  72:.\main.c      **** void mystrrev(char hex[])
  73:.\main.c      **** {
 339              		.loc 1 73 0
 340              		.cfi_startproc
 341              		@ args = 0, pretend = 0, frame = 32
 342              		@ frame_needed = 1, uses_anonymous_args = 0
 343 0000 2DE9F043 		push	{r4, r5, r6, r7, r8, r9, lr}
 344              	.LCFI5:
 345              		.cfi_def_cfa_offset 28
 346              		.cfi_offset 4, -28
 347              		.cfi_offset 5, -24
 348              		.cfi_offset 6, -20
 349              		.cfi_offset 7, -16
 350              		.cfi_offset 8, -12
 351              		.cfi_offset 9, -8
 352              		.cfi_offset 14, -4
 353 0004 89B0     		sub	sp, sp, #36
 354              	.LCFI6:
 355              		.cfi_def_cfa_offset 64
 356 0006 00AF     		add	r7, sp, #0
 357              	.LCFI7:
 358              		.cfi_def_cfa_register 7
 359 0008 7860     		str	r0, [r7, #4]
  74:.\main.c      **** 	int length;
  75:.\main.c      **** 	for(length = 0; hex[length] != '\0'; ++length);
 360              		.loc 1 75 0
 361 000a 4FF00003 		mov	r3, #0
 362 000e FB61     		str	r3, [r7, #28]
 363 0010 03E0     		b	.L12
 364              	.L13:
 365              		.loc 1 75 0 is_stmt 0 discriminator 2
 366 0012 FB69     		ldr	r3, [r7, #28]
 367 0014 03F10103 		add	r3, r3, #1
 368 0018 FB61     		str	r3, [r7, #28]
 369              	.L12:
 370              		.loc 1 75 0 discriminator 1
 371 001a FB69     		ldr	r3, [r7, #28]
 372 001c 7A68     		ldr	r2, [r7, #4]
 373 001e D318     		adds	r3, r2, r3
 374 0020 1B78     		ldrb	r3, [r3, #0]	@ zero_extendqisi2
 375 0022 002B     		cmp	r3, #0
 376 0024 F5D1     		bne	.L13
  76:.\main.c      **** 	
  77:.\main.c      **** 	char temp[length];
 377              		.loc 1 77 0 is_stmt 1
ARM GAS  C:\Users\makij\AppData\Local\Temp\cc86oqbM.s 			page 9


 378 0026 F969     		ldr	r1, [r7, #28]
 379 0028 6B46     		mov	r3, sp
 380 002a 1E46     		mov	r6, r3
 381 002c 01F1FF33 		add	r3, r1, #-1
 382 0030 3B61     		str	r3, [r7, #16]
 383 0032 0846     		mov	r0, r1
 384 0034 0246     		mov	r2, r0
 385 0036 4FF00003 		mov	r3, #0
 386 003a 4FEA5270 		lsr	r0, r2, #29
 387 003e 4FEAC309 		lsl	r9, r3, #3
 388 0042 40EA0909 		orr	r9, r0, r9
 389 0046 4FEAC208 		lsl	r8, r2, #3
 390 004a 0846     		mov	r0, r1
 391 004c 0246     		mov	r2, r0
 392 004e 4FF00003 		mov	r3, #0
 393 0052 4FEA5270 		lsr	r0, r2, #29
 394 0056 4FEAC305 		lsl	r5, r3, #3
 395 005a 0543     		orrs	r5, r5, r0
 396 005c 4FEAC204 		lsl	r4, r2, #3
 397 0060 0B46     		mov	r3, r1
 398 0062 03F10703 		add	r3, r3, #7
 399 0066 4FEAD303 		lsr	r3, r3, #3
 400 006a 4FEAC303 		lsl	r3, r3, #3
 401 006e ADEB030D 		sub	sp, sp, r3
 402 0072 6B46     		mov	r3, sp
 403 0074 03F10003 		add	r3, r3, #0
 404 0078 FB60     		str	r3, [r7, #12]
  78:.\main.c      **** 	strcpy(temp, hex);
 405              		.loc 1 78 0
 406 007a FB68     		ldr	r3, [r7, #12]
 407 007c 1846     		mov	r0, r3
 408 007e 7968     		ldr	r1, [r7, #4]
 409 0080 FFF7FEFF 		bl	strcpy
  79:.\main.c      **** 	int i, i2;
  80:.\main.c      **** 	i2 = length-1;
 410              		.loc 1 80 0
 411 0084 FB69     		ldr	r3, [r7, #28]
 412 0086 03F1FF33 		add	r3, r3, #-1
 413 008a 7B61     		str	r3, [r7, #20]
  81:.\main.c      **** 	for(i = 0; i <length; i++)
 414              		.loc 1 81 0
 415 008c 4FF00003 		mov	r3, #0
 416 0090 BB61     		str	r3, [r7, #24]
 417 0092 0FE0     		b	.L14
 418              	.L15:
  82:.\main.c      **** 	{
  83:.\main.c      **** 		hex[i] = temp[i2];	
 419              		.loc 1 83 0 discriminator 2
 420 0094 BB69     		ldr	r3, [r7, #24]
 421 0096 7A68     		ldr	r2, [r7, #4]
 422 0098 D318     		adds	r3, r2, r3
 423 009a F968     		ldr	r1, [r7, #12]
 424 009c 7A69     		ldr	r2, [r7, #20]
 425 009e 8A18     		adds	r2, r1, r2
 426 00a0 1278     		ldrb	r2, [r2, #0]	@ zero_extendqisi2
 427 00a2 1A70     		strb	r2, [r3, #0]
  84:.\main.c      **** 		i2--;
ARM GAS  C:\Users\makij\AppData\Local\Temp\cc86oqbM.s 			page 10


 428              		.loc 1 84 0 discriminator 2
 429 00a4 7B69     		ldr	r3, [r7, #20]
 430 00a6 03F1FF33 		add	r3, r3, #-1
 431 00aa 7B61     		str	r3, [r7, #20]
  81:.\main.c      **** 	for(i = 0; i <length; i++)
 432              		.loc 1 81 0 discriminator 2
 433 00ac BB69     		ldr	r3, [r7, #24]
 434 00ae 03F10103 		add	r3, r3, #1
 435 00b2 BB61     		str	r3, [r7, #24]
 436              	.L14:
  81:.\main.c      **** 	for(i = 0; i <length; i++)
 437              		.loc 1 81 0 is_stmt 0 discriminator 1
 438 00b4 BA69     		ldr	r2, [r7, #24]
 439 00b6 FB69     		ldr	r3, [r7, #28]
 440 00b8 9A42     		cmp	r2, r3
 441 00ba EBDB     		blt	.L15
 442 00bc B546     		mov	sp, r6
  85:.\main.c      **** 	}
  86:.\main.c      **** }
 443              		.loc 1 86 0 is_stmt 1
 444 00be 07F12407 		add	r7, r7, #36
 445 00c2 BD46     		mov	sp, r7
 446 00c4 BDE8F083 		pop	{r4, r5, r6, r7, r8, r9, pc}
 447              		.cfi_endproc
 448              	.LFE58:
 449              		.size	mystrrev, .-mystrrev
 450              		.section	.text.decimal_hex,"ax",%progbits
 451              		.align	2
 452              		.global	decimal_hex
 453              		.thumb
 454              		.thumb_func
 455              		.type	decimal_hex, %function
 456              	decimal_hex:
 457              	.LFB59:
  87:.\main.c      **** 
  88:.\main.c      **** void decimal_hex(int n, char hex[]) /* Function to convert decimal to hexadecimal. */
  89:.\main.c      **** {
 458              		.loc 1 89 0
 459              		.cfi_startproc
 460              		@ args = 0, pretend = 0, frame = 16
 461              		@ frame_needed = 1, uses_anonymous_args = 0
 462 0000 80B5     		push	{r7, lr}
 463              	.LCFI8:
 464              		.cfi_def_cfa_offset 8
 465              		.cfi_offset 7, -8
 466              		.cfi_offset 14, -4
 467 0002 84B0     		sub	sp, sp, #16
 468              	.LCFI9:
 469              		.cfi_def_cfa_offset 24
 470 0004 00AF     		add	r7, sp, #0
 471              	.LCFI10:
 472              		.cfi_def_cfa_register 7
 473 0006 7860     		str	r0, [r7, #4]
 474 0008 3960     		str	r1, [r7, #0]
  90:.\main.c      ****     int i=0,rem;
 475              		.loc 1 90 0
 476 000a 4FF00003 		mov	r3, #0
ARM GAS  C:\Users\makij\AppData\Local\Temp\cc86oqbM.s 			page 11


 477 000e FB60     		str	r3, [r7, #12]
  91:.\main.c      ****     while (n!=0)
 478              		.loc 1 91 0
 479 0010 62E0     		b	.L17
 480              	.L29:
  92:.\main.c      ****     {
  93:.\main.c      ****         rem=n%16;
 481              		.loc 1 93 0
 482 0012 7A68     		ldr	r2, [r7, #4]
 483 0014 4FF00F03 		mov	r3, #15
 484 0018 C8F20003 		movt	r3, 32768
 485 001c 1340     		ands	r3, r3, r2
 486 001e 002B     		cmp	r3, #0
 487 0020 05DA     		bge	.L18
 488 0022 03F1FF33 		add	r3, r3, #-1
 489 0026 63F00F03 		orn	r3, r3, #15
 490 002a 03F10103 		add	r3, r3, #1
 491              	.L18:
 492 002e BB60     		str	r3, [r7, #8]
  94:.\main.c      ****         switch(rem)
 493              		.loc 1 94 0
 494 0030 BB68     		ldr	r3, [r7, #8]
 495 0032 A3F10A03 		sub	r3, r3, #10
 496 0036 052B     		cmp	r3, #5
 497 0038 38D8     		bhi	.L19
 498 003a 01A2     		adr	r2, .L26
 499 003c 52F823F0 		ldr	pc, [r2, r3, lsl #2]
 500              		.align	2
 501              	.L26:
 502 0040 59000000 		.word	.L20+1
 503 0044 67000000 		.word	.L21+1
 504 0048 75000000 		.word	.L22+1
 505 004c 83000000 		.word	.L23+1
 506 0050 91000000 		.word	.L24+1
 507 0054 9F000000 		.word	.L25+1
 508              	.L20:
  95:.\main.c      ****         {
  96:.\main.c      ****             case 10:
  97:.\main.c      ****               hex[i]='A';
 509              		.loc 1 97 0
 510 0058 FB68     		ldr	r3, [r7, #12]
 511 005a 3A68     		ldr	r2, [r7, #0]
 512 005c D318     		adds	r3, r2, r3
 513 005e 4FF04102 		mov	r2, #65
 514 0062 1A70     		strb	r2, [r3, #0]
  98:.\main.c      ****               break;
 515              		.loc 1 98 0
 516 0064 2CE0     		b	.L27
 517              	.L21:
  99:.\main.c      ****             case 11:
 100:.\main.c      ****               hex[i]='B';
 518              		.loc 1 100 0
 519 0066 FB68     		ldr	r3, [r7, #12]
 520 0068 3A68     		ldr	r2, [r7, #0]
 521 006a D318     		adds	r3, r2, r3
 522 006c 4FF04202 		mov	r2, #66
 523 0070 1A70     		strb	r2, [r3, #0]
ARM GAS  C:\Users\makij\AppData\Local\Temp\cc86oqbM.s 			page 12


 101:.\main.c      ****               break;
 524              		.loc 1 101 0
 525 0072 25E0     		b	.L27
 526              	.L22:
 102:.\main.c      ****             case 12:
 103:.\main.c      ****               hex[i]='C';
 527              		.loc 1 103 0
 528 0074 FB68     		ldr	r3, [r7, #12]
 529 0076 3A68     		ldr	r2, [r7, #0]
 530 0078 D318     		adds	r3, r2, r3
 531 007a 4FF04302 		mov	r2, #67
 532 007e 1A70     		strb	r2, [r3, #0]
 104:.\main.c      ****               break;
 533              		.loc 1 104 0
 534 0080 1EE0     		b	.L27
 535              	.L23:
 105:.\main.c      ****             case 13:
 106:.\main.c      ****               hex[i]='D';
 536              		.loc 1 106 0
 537 0082 FB68     		ldr	r3, [r7, #12]
 538 0084 3A68     		ldr	r2, [r7, #0]
 539 0086 D318     		adds	r3, r2, r3
 540 0088 4FF04402 		mov	r2, #68
 541 008c 1A70     		strb	r2, [r3, #0]
 107:.\main.c      ****               break;
 542              		.loc 1 107 0
 543 008e 17E0     		b	.L27
 544              	.L24:
 108:.\main.c      ****             case 14:
 109:.\main.c      ****               hex[i]='E';
 545              		.loc 1 109 0
 546 0090 FB68     		ldr	r3, [r7, #12]
 547 0092 3A68     		ldr	r2, [r7, #0]
 548 0094 D318     		adds	r3, r2, r3
 549 0096 4FF04502 		mov	r2, #69
 550 009a 1A70     		strb	r2, [r3, #0]
 110:.\main.c      ****               break;
 551              		.loc 1 110 0
 552 009c 10E0     		b	.L27
 553              	.L25:
 111:.\main.c      ****             case 15:
 112:.\main.c      ****               hex[i]='F';
 554              		.loc 1 112 0
 555 009e FB68     		ldr	r3, [r7, #12]
 556 00a0 3A68     		ldr	r2, [r7, #0]
 557 00a2 D318     		adds	r3, r2, r3
 558 00a4 4FF04602 		mov	r2, #70
 559 00a8 1A70     		strb	r2, [r3, #0]
 113:.\main.c      ****               break;
 560              		.loc 1 113 0
 561 00aa 09E0     		b	.L27
 562              	.L19:
 114:.\main.c      ****             default:
 115:.\main.c      ****               hex[i]=rem+'0';
 563              		.loc 1 115 0
 564 00ac FB68     		ldr	r3, [r7, #12]
 565 00ae 3A68     		ldr	r2, [r7, #0]
ARM GAS  C:\Users\makij\AppData\Local\Temp\cc86oqbM.s 			page 13


 566 00b0 D318     		adds	r3, r2, r3
 567 00b2 BA68     		ldr	r2, [r7, #8]
 568 00b4 D2B2     		uxtb	r2, r2
 569 00b6 02F13002 		add	r2, r2, #48
 570 00ba D2B2     		uxtb	r2, r2
 571 00bc 1A70     		strb	r2, [r3, #0]
 116:.\main.c      ****               break;
 572              		.loc 1 116 0
 573 00be 00BF     		nop
 574              	.L27:
 117:.\main.c      ****         }
 118:.\main.c      ****         ++i;
 575              		.loc 1 118 0
 576 00c0 FB68     		ldr	r3, [r7, #12]
 577 00c2 03F10103 		add	r3, r3, #1
 578 00c6 FB60     		str	r3, [r7, #12]
 119:.\main.c      ****         n/=16;
 579              		.loc 1 119 0
 580 00c8 7B68     		ldr	r3, [r7, #4]
 581 00ca 002B     		cmp	r3, #0
 582 00cc 01DA     		bge	.L28
 583 00ce 03F10F03 		add	r3, r3, #15
 584              	.L28:
 585 00d2 4FEA2313 		asr	r3, r3, #4
 586 00d6 7B60     		str	r3, [r7, #4]
 587              	.L17:
  91:.\main.c      ****     while (n!=0)
 588              		.loc 1 91 0 discriminator 1
 589 00d8 7B68     		ldr	r3, [r7, #4]
 590 00da 002B     		cmp	r3, #0
 591 00dc 99D1     		bne	.L29
 120:.\main.c      ****     }
 121:.\main.c      ****     hex[i]='\0';
 592              		.loc 1 121 0
 593 00de FB68     		ldr	r3, [r7, #12]
 594 00e0 3A68     		ldr	r2, [r7, #0]
 595 00e2 D318     		adds	r3, r2, r3
 596 00e4 4FF00002 		mov	r2, #0
 597 00e8 1A70     		strb	r2, [r3, #0]
 122:.\main.c      ****     //strrev(hex);
 123:.\main.c      **** 	mystrrev(hex);   /* Reverse string */
 598              		.loc 1 123 0
 599 00ea 3868     		ldr	r0, [r7, #0]
 600 00ec FFF7FEFF 		bl	mystrrev
 124:.\main.c      **** }
 601              		.loc 1 124 0
 602 00f0 07F11007 		add	r7, r7, #16
 603 00f4 BD46     		mov	sp, r7
 604 00f6 80BD     		pop	{r7, pc}
 605              		.cfi_endproc
 606              	.LFE59:
 607              		.size	decimal_hex, .-decimal_hex
 608              		.section	.rodata
 609              		.align	2
 610              	.LC0:
 611 0000 63686172 		.ascii	"char \000"
 611      2000
ARM GAS  C:\Users\makij\AppData\Local\Temp\cc86oqbM.s 			page 14


 612 0006 0000     		.align	2
 613              	.LC1:
 614 0008 64656320 		.ascii	"dec \000"
 614      00
 615 000d 000000   		.align	2
 616              	.LC2:
 617 0010 68657820 		.ascii	"hex \000"
 617      00
 618 0015 000000   		.align	2
 619              	.LC3:
 620 0018 66756C6C 		.ascii	"full \000"
 620      2000
 621 001e 0000     		.section	.text.main,"ax",%progbits
 622              		.align	2
 623              		.global	main
 624              		.thumb
 625              		.thumb_func
 626              		.type	main, %function
 627              	main:
 628              	.LFB60:
 125:.\main.c      **** 
 126:.\main.c      **** 
 127:.\main.c      **** 
 128:.\main.c      **** int main()
 129:.\main.c      **** {
 629              		.loc 1 129 0
 630              		.cfi_startproc
 631              		@ args = 0, pretend = 0, frame = 24
 632              		@ frame_needed = 1, uses_anonymous_args = 0
 633 0000 80B5     		push	{r7, lr}
 634              	.LCFI11:
 635              		.cfi_def_cfa_offset 8
 636              		.cfi_offset 7, -8
 637              		.cfi_offset 14, -4
 638 0002 86B0     		sub	sp, sp, #24
 639              	.LCFI12:
 640              		.cfi_def_cfa_offset 32
 641 0004 00AF     		add	r7, sp, #0
 642              	.LCFI13:
 643              		.cfi_def_cfa_register 7
 130:.\main.c      **** 	// Initialize all components
 131:.\main.c      **** 	init();
 644              		.loc 1 131 0
 645 0006 FFF7FEFF 		bl	init
 646 000a 00E0     		b	.L75
 647              	.L76:
 132:.\main.c      **** 	uint16 count;
 133:.\main.c      **** 	
 134:.\main.c      **** 	uint16 forLoopCounter;
 135:.\main.c      **** 	// main program loop
 136:.\main.c      **** 	
 137:.\main.c      **** 	for(;;)
 138:.\main.c      ****     {
 139:.\main.c      **** 		// these states are switched in the various ISR's
 140:.\main.c      **** 		
 141:.\main.c      **** 			
 142:.\main.c      **** 			/****************************************
ARM GAS  C:\Users\makij\AppData\Local\Temp\cc86oqbM.s 			page 15


 143:.\main.c      **** 			uncommented as the current state was not changing
 144:.\main.c      **** 			*********************************************/
 145:.\main.c      **** 			/*
 146:.\main.c      **** 			if(i_send == 0 || i_send == forLoopCounter)
 147:.\main.c      **** 			{
 148:.\main.c      **** 				Timer_sendData_Sleep();
 149:.\main.c      **** 			}
 150:.\main.c      **** 			*/
 151:.\main.c      **** 			
 152:.\main.c      **** 			/*
 153:.\main.c      **** 				Transm_Output_Write(1);
 154:.\main.c      **** 			*/
 155:.\main.c      **** 				dataReady = false;
 156:.\main.c      **** 			
 157:.\main.c      **** 				memset(packetSend,  0, (80*8));
 158:.\main.c      **** 				//Pin_LEDBusy_Write(0);			
 159:.\main.c      **** 				//Pin_LEDIdle_Write(1);
 160:.\main.c      **** 				//Pin_LEDCollision_Write(0);
 161:.\main.c      **** 				/*****************************************************************************
 162:.\main.c      **** 				
 163:.\main.c      **** 				The USB need to watch for the return key before it creates the buffer
 164:.\main.c      **** 				Currently it fires on every key press (1/8/2015) James Maki
 165:.\main.c      **** 				
 166:.\main.c      **** 				******************************************************************************/
 167:.\main.c      **** 				
 168:.\main.c      **** 				
 169:.\main.c      **** 				//check message from usb
 170:.\main.c      **** 				if(USB_DataIsReady() != 0u)               /* Check for input data from PC */
 171:.\main.c      **** 	       		{   
 172:.\main.c      **** 		           count = USB_GetAll(packetUSB);           /* Read received data and re-enable OUT endpo
 173:.\main.c      **** 		           if(count != 0u)
 174:.\main.c      **** 		           {    
 175:.\main.c      **** 					while(USB_CDCIsReady() == 0u); /* Wait till component is ready to send more data to the PC */
 176:.\main.c      **** 		                   USB_PutData(packetUSB, count);         /* Send zero-length packet to PC */
 177:.\main.c      **** 						if((packetUSB[count-1] == '\r'))
 178:.\main.c      **** 			             {
 179:.\main.c      **** 							messageReady = true;
 180:.\main.c      **** 							/*
 181:.\main.c      **** 							int inputLength;
 182:.\main.c      **** 							for(inputLength = 0; inputLength < count && inputLength < 79; inputLength++)
 183:.\main.c      **** 							{
 184:.\main.c      **** 								
 185:.\main.c      **** 								while(USB_CDCIsReady() == 0u);
 186:.\main.c      **** 								USB_PutChar(packetUSB[inputLength]);
 187:.\main.c      **** 								
 188:.\main.c      **** 								while(USB_CDCIsReady() == 0u);
 189:.\main.c      **** 								USB_PutChar('\r');
 190:.\main.c      **** 								
 191:.\main.c      **** 								while(USB_CDCIsReady() == 0u);
 192:.\main.c      **** 								USB_PutChar('\n');
 193:.\main.c      **** 								
 194:.\main.c      **** 								
 195:.\main.c      **** 								usb[messageSize] = packetUSB[inputLength];
 196:.\main.c      **** 								messageSize++;
 197:.\main.c      **** 							}
 198:.\main.c      **** 							usb[messageSize] = '\r';
 199:.\main.c      **** 							messageSize++;
ARM GAS  C:\Users\makij\AppData\Local\Temp\cc86oqbM.s 			page 16


 200:.\main.c      **** 							*/
 201:.\main.c      **** 							usb[0] = 'H';
 202:.\main.c      **** 							usb[1] = 'e';
 203:.\main.c      **** 							usb[2] = 'l';
 204:.\main.c      **** 							usb[3] = 'l';
 205:.\main.c      **** 							usb[4] = 'o';
 206:.\main.c      **** 							
 207:.\main.c      **** 							usb[5] = ' ';
 208:.\main.c      **** 							
 209:.\main.c      **** 							usb[6] = 'W';
 210:.\main.c      **** 							usb[7] = 'r';
 211:.\main.c      **** 							usb[8] = 'o';
 212:.\main.c      **** 							usb[9] = 'l';
 213:.\main.c      **** 							usb[10] = 'd';
 214:.\main.c      **** 							
 215:.\main.c      **** 							usb[11] = '\r';
 216:.\main.c      **** 							messageSize = 11;
 217:.\main.c      **** 						}
 218:.\main.c      **** 					}
 219:.\main.c      **** 				}
 220:.\main.c      **** if(messageReady){
 221:.\main.c      **** 	//cout << "usb: " <<endl;
 222:.\main.c      **** 	int i;
 223:.\main.c      **** 	for(i = 0; usb[i] != '\r'; i++)
 224:.\main.c      **** 	{
 225:.\main.c      **** 		//cout<<"char "<<usb[i]<<endl;
 226:.\main.c      **** 		
 227:.\main.c      **** 		while(USB_CDCIsReady() == 0u);
 228:.\main.c      **** 				USB_PutData("char ", 5);
 229:.\main.c      **** 				while(USB_CDCIsReady() == 0u);
 230:.\main.c      **** 				USB_PutChar(usb[i]);
 231:.\main.c      **** 				while(USB_CDCIsReady() == 0u);
 232:.\main.c      **** 				USB_PutChar('\r');
 233:.\main.c      **** 				while(USB_CDCIsReady() == 0u);
 234:.\main.c      **** 				USB_PutChar('\n');
 235:.\main.c      **** 			
 236:.\main.c      **** 				dec = (unsigned int)usb[i];
 237:.\main.c      **** 				
 238:.\main.c      **** 				//cout<< "index: " << i << " @ " << usb[i] <<endl;
 239:.\main.c      **** 				//cout <<"dec "<< dec << endl;
 240:.\main.c      **** 				
 241:.\main.c      **** 				while(USB_CDCIsReady() == 0u);
 242:.\main.c      **** 				USB_PutData("dec ", 4);
 243:.\main.c      **** 				while(USB_CDCIsReady() == 0u);
 244:.\main.c      **** 				USB_PutChar(dec);
 245:.\main.c      **** 				while(USB_CDCIsReady() == 0u);
 246:.\main.c      **** 				USB_PutChar('\r');
 247:.\main.c      **** 				while(USB_CDCIsReady() == 0u);
 248:.\main.c      **** 				USB_PutChar('\n');
 249:.\main.c      **** 				
 250:.\main.c      **** 				decimal_hex(dec, hex);
 251:.\main.c      **** 				int i2;
 252:.\main.c      **** 				for(i2 = 0; hex[i2] != '\0'; i2++)
 253:.\main.c      **** 				{
 254:.\main.c      **** 					//cout << "hex " << hex[i2] << endl;
 255:.\main.c      **** 					
 256:.\main.c      **** 					while(USB_CDCIsReady() == 0u);
ARM GAS  C:\Users\makij\AppData\Local\Temp\cc86oqbM.s 			page 17


 257:.\main.c      **** 					USB_PutData("hex ", 4);
 258:.\main.c      **** 					while(USB_CDCIsReady() == 0u);
 259:.\main.c      **** 					USB_PutChar(hex[i2]);
 260:.\main.c      **** 					USB_PutChar('\r');
 261:.\main.c      **** 					while(USB_CDCIsReady() == 0u);
 262:.\main.c      **** 					USB_PutChar('\n');
 263:.\main.c      **** 					
 264:.\main.c      **** 					//conver to binary
 265:.\main.c      **** 					if(hex[i2] == '0'){
 266:.\main.c      **** 						packetBin[0] = '0';
 267:.\main.c      **** 						packetBin[1] = '0';
 268:.\main.c      **** 						packetBin[2] = '0';
 269:.\main.c      **** 						packetBin[3] = '0';
 270:.\main.c      **** 					}else if(hex[i2] == '1'){
 271:.\main.c      **** 						packetBin[0] = '0';
 272:.\main.c      **** 						packetBin[1] = '0';
 273:.\main.c      **** 						packetBin[2] = '0';
 274:.\main.c      **** 						packetBin[3] = '1';
 275:.\main.c      **** 					}else if(hex[i2] == '2'){
 276:.\main.c      **** 						packetBin[0] = '0';
 277:.\main.c      **** 						packetBin[1] = '0';
 278:.\main.c      **** 						packetBin[2] = '1';
 279:.\main.c      **** 						packetBin[3] = '0';
 280:.\main.c      **** 					}else if(hex[i2] == '3'){
 281:.\main.c      **** 						packetBin[0] = '0';
 282:.\main.c      **** 						packetBin[1] = '0';
 283:.\main.c      **** 						packetBin[2] = '1';
 284:.\main.c      **** 						packetBin[3] = '1';
 285:.\main.c      **** 					}else if(hex[i2] == '4'){
 286:.\main.c      **** 						packetBin[0] = '0';
 287:.\main.c      **** 						packetBin[1] = '1';
 288:.\main.c      **** 						packetBin[2] = '0';
 289:.\main.c      **** 						packetBin[3] = '0';
 290:.\main.c      **** 					}else if(hex[i2] == '5'){
 291:.\main.c      **** 						packetBin[0] = '0';
 292:.\main.c      **** 						packetBin[1] = '1';
 293:.\main.c      **** 						packetBin[2] = '0';
 294:.\main.c      **** 						packetBin[3] = '1';
 295:.\main.c      **** 					}else if(hex[i2] == '6'){
 296:.\main.c      **** 						packetBin[0] = '0';
 297:.\main.c      **** 						packetBin[1] = '1';
 298:.\main.c      **** 						packetBin[2] = '1';
 299:.\main.c      **** 						packetBin[3] = '0';
 300:.\main.c      **** 					}else if(hex[i2] == '7'){
 301:.\main.c      **** 						packetBin[0] = '0';
 302:.\main.c      **** 						packetBin[1] = '1';
 303:.\main.c      **** 						packetBin[2] = '1';
 304:.\main.c      **** 						packetBin[3] = '1';
 305:.\main.c      **** 					}else if(hex[i2] == '8'){
 306:.\main.c      **** 						packetBin[0] = '1';
 307:.\main.c      **** 						packetBin[1] = '0';
 308:.\main.c      **** 						packetBin[2] = '0';
 309:.\main.c      **** 						packetBin[3] = '0';
 310:.\main.c      **** 					}else if(hex[i2] == '9'){
 311:.\main.c      **** 						packetBin[0] = '1';
 312:.\main.c      **** 						packetBin[1] = '0';
 313:.\main.c      **** 						packetBin[2] = '0';
ARM GAS  C:\Users\makij\AppData\Local\Temp\cc86oqbM.s 			page 18


 314:.\main.c      **** 						packetBin[3] = '1';
 315:.\main.c      **** 					}else if(hex[i2] == 'A'){
 316:.\main.c      **** 						packetBin[0] = '1';
 317:.\main.c      **** 						packetBin[1] = '0';
 318:.\main.c      **** 						packetBin[2] = '1';
 319:.\main.c      **** 						packetBin[3] = '0';
 320:.\main.c      **** 					}else if(hex[i2] == 'B'){
 321:.\main.c      **** 						packetBin[0] = '1';
 322:.\main.c      **** 						packetBin[1] = '0';
 323:.\main.c      **** 						packetBin[2] = '1';
 324:.\main.c      **** 						packetBin[3] = '1';
 325:.\main.c      **** 					}else if(hex[i2] == 'C'){
 326:.\main.c      **** 						packetBin[0] = '1';
 327:.\main.c      **** 						packetBin[1] = '1';
 328:.\main.c      **** 						packetBin[2] = '0';
 329:.\main.c      **** 						packetBin[3] = '0';
 330:.\main.c      **** 					}else if(hex[i2] =='D'){
 331:.\main.c      **** 						packetBin[0] = '1';
 332:.\main.c      **** 						packetBin[1] = '1';
 333:.\main.c      **** 						packetBin[2] = '0';
 334:.\main.c      **** 						packetBin[3] = '1';
 335:.\main.c      **** 					}else if(hex[i2] == 'E'){
 336:.\main.c      **** 						packetBin[0] = '1';
 337:.\main.c      **** 						packetBin[1] = '1';
 338:.\main.c      **** 						packetBin[2] = '1';
 339:.\main.c      **** 						packetBin[3] = '0';
 340:.\main.c      **** 					}else {
 341:.\main.c      **** 						packetBin[0] = '1';
 342:.\main.c      **** 						packetBin[1] = '1';
 343:.\main.c      **** 						packetBin[2] = '1';
 344:.\main.c      **** 						packetBin[3] = '1';
 345:.\main.c      **** 					}
 346:.\main.c      **** 		
 347:.\main.c      **** 				int l2;
 348:.\main.c      **** 				for(l2 = 0; l2 <4; l2++)
 349:.\main.c      **** 				{
 350:.\main.c      **** 					packetSend[i_send + l2] = packetBin[l2]; 	
 351:.\main.c      **** 					//cout << "binary " << packetBin[l2] << " position" << i_send+l2 <<endl;
 352:.\main.c      **** 				}
 353:.\main.c      **** 				i_send +=4;
 354:.\main.c      **** 				//cout<<"i_send " << i_send << endl;
 355:.\main.c      **** 		
 356:.\main.c      **** 			}
 357:.\main.c      **** 			packetSend[i_send] = '\r';
 358:.\main.c      **** 	
 359:.\main.c      **** 			messageReady = false;
 360:.\main.c      **** 		}//start of conversion
 361:.\main.c      **** 		//cout<<"full "<< endl;
 362:.\main.c      **** 		
 363:.\main.c      **** 		while(USB_CDCIsReady() == 0u);
 364:.\main.c      **** 		USB_PutData("full ", 5);
 365:.\main.c      **** 		while(USB_CDCIsReady() == 0u);
 366:.\main.c      **** 		USB_PutChar('\r');
 367:.\main.c      **** 		while(USB_CDCIsReady() == 0u);
 368:.\main.c      **** 		USB_PutChar('\n');
 369:.\main.c      **** 	
 370:.\main.c      **** 		int i3;
ARM GAS  C:\Users\makij\AppData\Local\Temp\cc86oqbM.s 			page 19


 371:.\main.c      **** 		for(i3 = 0; packetSend[i3] != '\r'; i3++)
 372:.\main.c      **** 		{
 373:.\main.c      **** 			if(i3%8 == 0)
 374:.\main.c      **** 			{
 375:.\main.c      **** 				//cout<<" ";
 376:.\main.c      **** 				
 377:.\main.c      **** 				while(USB_CDCIsReady() == 0u);
 378:.\main.c      **** 				USB_PutChar(' ');
 379:.\main.c      **** 				
 380:.\main.c      **** 				
 381:.\main.c      **** 			}
 382:.\main.c      **** 			//cout << packetSend[i3];
 383:.\main.c      **** 			
 384:.\main.c      **** 			while(USB_CDCIsReady() == 0u);
 385:.\main.c      **** 			USB_PutChar(packetSend[i3]);
 386:.\main.c      **** 			
 387:.\main.c      **** 		}
 388:.\main.c      **** 	
 389:.\main.c      **** 	}//messageReady
 390:.\main.c      **** 				
 391:.\main.c      **** 	}//for()
 648              		.loc 1 391 0
 649 000c 00BF     		nop
 650              	.L75:
 155:.\main.c      **** 				dataReady = false;
 651              		.loc 1 155 0
 652 000e 40F20003 		movw	r3, #:lower16:dataReady
 653 0012 C0F20003 		movt	r3, #:upper16:dataReady
 654 0016 4FF00002 		mov	r2, #0
 655 001a 1A70     		strb	r2, [r3, #0]
 157:.\main.c      **** 				memset(packetSend,  0, (80*8));
 656              		.loc 1 157 0
 657 001c 40F20000 		movw	r0, #:lower16:packetSend
 658 0020 C0F20000 		movt	r0, #:upper16:packetSend
 659 0024 4FF00001 		mov	r1, #0
 660 0028 4FF42072 		mov	r2, #640
 661 002c FFF7FEFF 		bl	memset
 170:.\main.c      **** 				if(USB_DataIsReady() != 0u)               /* Check for input data from PC */
 662              		.loc 1 170 0
 663 0030 FFF7FEFF 		bl	USB_DataIsReady
 664 0034 0346     		mov	r3, r0
 665 0036 002B     		cmp	r3, #0
 666 0038 00F08580 		beq	.L31
 172:.\main.c      **** 		           count = USB_GetAll(packetUSB);           /* Read received data and re-enable OUT endpo
 667              		.loc 1 172 0
 668 003c 40F20000 		movw	r0, #:lower16:packetUSB
 669 0040 C0F20000 		movt	r0, #:upper16:packetUSB
 670 0044 FFF7FEFF 		bl	USB_GetAll
 671 0048 0346     		mov	r3, r0
 672 004a FB80     		strh	r3, [r7, #6]	@ movhi
 173:.\main.c      **** 		           if(count != 0u)
 673              		.loc 1 173 0
 674 004c FB88     		ldrh	r3, [r7, #6]
 675 004e 002B     		cmp	r3, #0
 676 0050 79D0     		beq	.L31
 175:.\main.c      **** 					while(USB_CDCIsReady() == 0u); /* Wait till component is ready to send more data to the PC */
 677              		.loc 1 175 0
ARM GAS  C:\Users\makij\AppData\Local\Temp\cc86oqbM.s 			page 20


 678 0052 00BF     		nop
 679              	.L32:
 175:.\main.c      **** 					while(USB_CDCIsReady() == 0u); /* Wait till component is ready to send more data to the PC */
 680              		.loc 1 175 0 is_stmt 0 discriminator 1
 681 0054 FFF7FEFF 		bl	USB_CDCIsReady
 682 0058 0346     		mov	r3, r0
 683 005a 002B     		cmp	r3, #0
 684 005c FAD0     		beq	.L32
 176:.\main.c      **** 		                   USB_PutData(packetUSB, count);         /* Send zero-length packet to PC */
 685              		.loc 1 176 0 is_stmt 1
 686 005e FB88     		ldrh	r3, [r7, #6]
 687 0060 40F20000 		movw	r0, #:lower16:packetUSB
 688 0064 C0F20000 		movt	r0, #:upper16:packetUSB
 689 0068 1946     		mov	r1, r3
 690 006a FFF7FEFF 		bl	USB_PutData
 177:.\main.c      **** 						if((packetUSB[count-1] == '\r'))
 691              		.loc 1 177 0
 692 006e FB88     		ldrh	r3, [r7, #6]
 693 0070 03F1FF32 		add	r2, r3, #-1
 694 0074 40F20003 		movw	r3, #:lower16:packetUSB
 695 0078 C0F20003 		movt	r3, #:upper16:packetUSB
 696 007c 9B5C     		ldrb	r3, [r3, r2]	@ zero_extendqisi2
 697 007e 0D2B     		cmp	r3, #13
 698 0080 61D1     		bne	.L31
 179:.\main.c      **** 							messageReady = true;
 699              		.loc 1 179 0
 700 0082 40F20003 		movw	r3, #:lower16:messageReady
 701 0086 C0F20003 		movt	r3, #:upper16:messageReady
 702 008a 4FF00102 		mov	r2, #1
 703 008e 1A70     		strb	r2, [r3, #0]
 201:.\main.c      **** 							usb[0] = 'H';
 704              		.loc 1 201 0
 705 0090 40F20003 		movw	r3, #:lower16:usb
 706 0094 C0F20003 		movt	r3, #:upper16:usb
 707 0098 4FF04802 		mov	r2, #72
 708 009c 1A70     		strb	r2, [r3, #0]
 202:.\main.c      **** 							usb[1] = 'e';
 709              		.loc 1 202 0
 710 009e 40F20003 		movw	r3, #:lower16:usb
 711 00a2 C0F20003 		movt	r3, #:upper16:usb
 712 00a6 4FF06502 		mov	r2, #101
 713 00aa 5A70     		strb	r2, [r3, #1]
 203:.\main.c      **** 							usb[2] = 'l';
 714              		.loc 1 203 0
 715 00ac 40F20003 		movw	r3, #:lower16:usb
 716 00b0 C0F20003 		movt	r3, #:upper16:usb
 717 00b4 4FF06C02 		mov	r2, #108
 718 00b8 9A70     		strb	r2, [r3, #2]
 204:.\main.c      **** 							usb[3] = 'l';
 719              		.loc 1 204 0
 720 00ba 40F20003 		movw	r3, #:lower16:usb
 721 00be C0F20003 		movt	r3, #:upper16:usb
 722 00c2 4FF06C02 		mov	r2, #108
 723 00c6 DA70     		strb	r2, [r3, #3]
 205:.\main.c      **** 							usb[4] = 'o';
 724              		.loc 1 205 0
 725 00c8 40F20003 		movw	r3, #:lower16:usb
ARM GAS  C:\Users\makij\AppData\Local\Temp\cc86oqbM.s 			page 21


 726 00cc C0F20003 		movt	r3, #:upper16:usb
 727 00d0 4FF06F02 		mov	r2, #111
 728 00d4 1A71     		strb	r2, [r3, #4]
 207:.\main.c      **** 							usb[5] = ' ';
 729              		.loc 1 207 0
 730 00d6 40F20003 		movw	r3, #:lower16:usb
 731 00da C0F20003 		movt	r3, #:upper16:usb
 732 00de 4FF02002 		mov	r2, #32
 733 00e2 5A71     		strb	r2, [r3, #5]
 209:.\main.c      **** 							usb[6] = 'W';
 734              		.loc 1 209 0
 735 00e4 40F20003 		movw	r3, #:lower16:usb
 736 00e8 C0F20003 		movt	r3, #:upper16:usb
 737 00ec 4FF05702 		mov	r2, #87
 738 00f0 9A71     		strb	r2, [r3, #6]
 210:.\main.c      **** 							usb[7] = 'r';
 739              		.loc 1 210 0
 740 00f2 40F20003 		movw	r3, #:lower16:usb
 741 00f6 C0F20003 		movt	r3, #:upper16:usb
 742 00fa 4FF07202 		mov	r2, #114
 743 00fe DA71     		strb	r2, [r3, #7]
 211:.\main.c      **** 							usb[8] = 'o';
 744              		.loc 1 211 0
 745 0100 40F20003 		movw	r3, #:lower16:usb
 746 0104 C0F20003 		movt	r3, #:upper16:usb
 747 0108 4FF06F02 		mov	r2, #111
 748 010c 1A72     		strb	r2, [r3, #8]
 212:.\main.c      **** 							usb[9] = 'l';
 749              		.loc 1 212 0
 750 010e 40F20003 		movw	r3, #:lower16:usb
 751 0112 C0F20003 		movt	r3, #:upper16:usb
 752 0116 4FF06C02 		mov	r2, #108
 753 011a 5A72     		strb	r2, [r3, #9]
 213:.\main.c      **** 							usb[10] = 'd';
 754              		.loc 1 213 0
 755 011c 40F20003 		movw	r3, #:lower16:usb
 756 0120 C0F20003 		movt	r3, #:upper16:usb
 757 0124 4FF06402 		mov	r2, #100
 758 0128 9A72     		strb	r2, [r3, #10]
 215:.\main.c      **** 							usb[11] = '\r';
 759              		.loc 1 215 0
 760 012a 40F20003 		movw	r3, #:lower16:usb
 761 012e C0F20003 		movt	r3, #:upper16:usb
 762 0132 4FF00D02 		mov	r2, #13
 763 0136 DA72     		strb	r2, [r3, #11]
 216:.\main.c      **** 							messageSize = 11;
 764              		.loc 1 216 0
 765 0138 40F20003 		movw	r3, #:lower16:messageSize
 766 013c C0F20003 		movt	r3, #:upper16:messageSize
 767 0140 4FF00B02 		mov	r2, #11
 768 0144 1A70     		strb	r2, [r3, #0]
 769              	.L31:
 220:.\main.c      **** if(messageReady){
 770              		.loc 1 220 0
 771 0146 40F20003 		movw	r3, #:lower16:messageReady
 772 014a C0F20003 		movt	r3, #:upper16:messageReady
 773 014e 1B78     		ldrb	r3, [r3, #0]	@ zero_extendqisi2
ARM GAS  C:\Users\makij\AppData\Local\Temp\cc86oqbM.s 			page 22


 774 0150 002B     		cmp	r3, #0
 775 0152 3FF45BAF 		beq	.L76
 776              	.LBB2:
 223:.\main.c      **** 	for(i = 0; usb[i] != '\r'; i++)
 777              		.loc 1 223 0
 778 0156 4FF00003 		mov	r3, #0
 779 015a 7B61     		str	r3, [r7, #20]
 780 015c 50E3     		b	.L34
 781              	.L78:
 782              	.LBB3:
 227:.\main.c      **** 		while(USB_CDCIsReady() == 0u);
 783              		.loc 1 227 0
 784 015e 00BF     		nop
 785              	.L35:
 227:.\main.c      **** 		while(USB_CDCIsReady() == 0u);
 786              		.loc 1 227 0 is_stmt 0 discriminator 1
 787 0160 FFF7FEFF 		bl	USB_CDCIsReady
 788 0164 0346     		mov	r3, r0
 789 0166 002B     		cmp	r3, #0
 790 0168 FAD0     		beq	.L35
 228:.\main.c      **** 				USB_PutData("char ", 5);
 791              		.loc 1 228 0 is_stmt 1
 792 016a 40F20000 		movw	r0, #:lower16:.LC0
 793 016e C0F20000 		movt	r0, #:upper16:.LC0
 794 0172 4FF00501 		mov	r1, #5
 795 0176 FFF7FEFF 		bl	USB_PutData
 229:.\main.c      **** 				while(USB_CDCIsReady() == 0u);
 796              		.loc 1 229 0
 797 017a 00BF     		nop
 798              	.L36:
 229:.\main.c      **** 				while(USB_CDCIsReady() == 0u);
 799              		.loc 1 229 0 is_stmt 0 discriminator 1
 800 017c FFF7FEFF 		bl	USB_CDCIsReady
 801 0180 0346     		mov	r3, r0
 802 0182 002B     		cmp	r3, #0
 803 0184 FAD0     		beq	.L36
 230:.\main.c      **** 				USB_PutChar(usb[i]);
 804              		.loc 1 230 0 is_stmt 1
 805 0186 40F20003 		movw	r3, #:lower16:usb
 806 018a C0F20003 		movt	r3, #:upper16:usb
 807 018e 7A69     		ldr	r2, [r7, #20]
 808 0190 9B18     		adds	r3, r3, r2
 809 0192 1B78     		ldrb	r3, [r3, #0]	@ zero_extendqisi2
 810 0194 1846     		mov	r0, r3
 811 0196 FFF7FEFF 		bl	USB_PutChar
 231:.\main.c      **** 				while(USB_CDCIsReady() == 0u);
 812              		.loc 1 231 0
 813 019a 00BF     		nop
 814              	.L37:
 231:.\main.c      **** 				while(USB_CDCIsReady() == 0u);
 815              		.loc 1 231 0 is_stmt 0 discriminator 1
 816 019c FFF7FEFF 		bl	USB_CDCIsReady
 817 01a0 0346     		mov	r3, r0
 818 01a2 002B     		cmp	r3, #0
 819 01a4 FAD0     		beq	.L37
 232:.\main.c      **** 				USB_PutChar('\r');
 820              		.loc 1 232 0 is_stmt 1
ARM GAS  C:\Users\makij\AppData\Local\Temp\cc86oqbM.s 			page 23


 821 01a6 4FF00D00 		mov	r0, #13
 822 01aa FFF7FEFF 		bl	USB_PutChar
 233:.\main.c      **** 				while(USB_CDCIsReady() == 0u);
 823              		.loc 1 233 0
 824 01ae 00BF     		nop
 825              	.L38:
 233:.\main.c      **** 				while(USB_CDCIsReady() == 0u);
 826              		.loc 1 233 0 is_stmt 0 discriminator 1
 827 01b0 FFF7FEFF 		bl	USB_CDCIsReady
 828 01b4 0346     		mov	r3, r0
 829 01b6 002B     		cmp	r3, #0
 830 01b8 FAD0     		beq	.L38
 234:.\main.c      **** 				USB_PutChar('\n');
 831              		.loc 1 234 0 is_stmt 1
 832 01ba 4FF00A00 		mov	r0, #10
 833 01be FFF7FEFF 		bl	USB_PutChar
 236:.\main.c      **** 				dec = (unsigned int)usb[i];
 834              		.loc 1 236 0
 835 01c2 40F20003 		movw	r3, #:lower16:usb
 836 01c6 C0F20003 		movt	r3, #:upper16:usb
 837 01ca 7A69     		ldr	r2, [r7, #20]
 838 01cc 9B18     		adds	r3, r3, r2
 839 01ce 1B78     		ldrb	r3, [r3, #0]	@ zero_extendqisi2
 840 01d0 1A46     		mov	r2, r3
 841 01d2 40F20003 		movw	r3, #:lower16:dec
 842 01d6 C0F20003 		movt	r3, #:upper16:dec
 843 01da 1A60     		str	r2, [r3, #0]
 241:.\main.c      **** 				while(USB_CDCIsReady() == 0u);
 844              		.loc 1 241 0
 845 01dc 00BF     		nop
 846              	.L39:
 241:.\main.c      **** 				while(USB_CDCIsReady() == 0u);
 847              		.loc 1 241 0 is_stmt 0 discriminator 1
 848 01de FFF7FEFF 		bl	USB_CDCIsReady
 849 01e2 0346     		mov	r3, r0
 850 01e4 002B     		cmp	r3, #0
 851 01e6 FAD0     		beq	.L39
 242:.\main.c      **** 				USB_PutData("dec ", 4);
 852              		.loc 1 242 0 is_stmt 1
 853 01e8 40F20000 		movw	r0, #:lower16:.LC1
 854 01ec C0F20000 		movt	r0, #:upper16:.LC1
 855 01f0 4FF00401 		mov	r1, #4
 856 01f4 FFF7FEFF 		bl	USB_PutData
 243:.\main.c      **** 				while(USB_CDCIsReady() == 0u);
 857              		.loc 1 243 0
 858 01f8 00BF     		nop
 859              	.L40:
 243:.\main.c      **** 				while(USB_CDCIsReady() == 0u);
 860              		.loc 1 243 0 is_stmt 0 discriminator 1
 861 01fa FFF7FEFF 		bl	USB_CDCIsReady
 862 01fe 0346     		mov	r3, r0
 863 0200 002B     		cmp	r3, #0
 864 0202 FAD0     		beq	.L40
 244:.\main.c      **** 				USB_PutChar(dec);
 865              		.loc 1 244 0 is_stmt 1
 866 0204 40F20003 		movw	r3, #:lower16:dec
 867 0208 C0F20003 		movt	r3, #:upper16:dec
ARM GAS  C:\Users\makij\AppData\Local\Temp\cc86oqbM.s 			page 24


 868 020c 1B68     		ldr	r3, [r3, #0]
 869 020e DBB2     		uxtb	r3, r3
 870 0210 1846     		mov	r0, r3
 871 0212 FFF7FEFF 		bl	USB_PutChar
 245:.\main.c      **** 				while(USB_CDCIsReady() == 0u);
 872              		.loc 1 245 0
 873 0216 00BF     		nop
 874              	.L41:
 245:.\main.c      **** 				while(USB_CDCIsReady() == 0u);
 875              		.loc 1 245 0 is_stmt 0 discriminator 1
 876 0218 FFF7FEFF 		bl	USB_CDCIsReady
 877 021c 0346     		mov	r3, r0
 878 021e 002B     		cmp	r3, #0
 879 0220 FAD0     		beq	.L41
 246:.\main.c      **** 				USB_PutChar('\r');
 880              		.loc 1 246 0 is_stmt 1
 881 0222 4FF00D00 		mov	r0, #13
 882 0226 FFF7FEFF 		bl	USB_PutChar
 247:.\main.c      **** 				while(USB_CDCIsReady() == 0u);
 883              		.loc 1 247 0
 884 022a 00BF     		nop
 885              	.L42:
 247:.\main.c      **** 				while(USB_CDCIsReady() == 0u);
 886              		.loc 1 247 0 is_stmt 0 discriminator 1
 887 022c FFF7FEFF 		bl	USB_CDCIsReady
 888 0230 0346     		mov	r3, r0
 889 0232 002B     		cmp	r3, #0
 890 0234 FAD0     		beq	.L42
 248:.\main.c      **** 				USB_PutChar('\n');
 891              		.loc 1 248 0 is_stmt 1
 892 0236 4FF00A00 		mov	r0, #10
 893 023a FFF7FEFF 		bl	USB_PutChar
 250:.\main.c      **** 				decimal_hex(dec, hex);
 894              		.loc 1 250 0
 895 023e 40F20003 		movw	r3, #:lower16:dec
 896 0242 C0F20003 		movt	r3, #:upper16:dec
 897 0246 1B68     		ldr	r3, [r3, #0]
 898 0248 1846     		mov	r0, r3
 899 024a 40F20001 		movw	r1, #:lower16:hex
 900 024e C0F20001 		movt	r1, #:upper16:hex
 901 0252 FFF7FEFF 		bl	decimal_hex
 252:.\main.c      **** 				for(i2 = 0; hex[i2] != '\0'; i2++)
 902              		.loc 1 252 0
 903 0256 4FF00003 		mov	r3, #0
 904 025a 3B61     		str	r3, [r7, #16]
 905 025c AFE2     		b	.L43
 906              	.L77:
 907              	.LBB4:
 256:.\main.c      **** 					while(USB_CDCIsReady() == 0u);
 908              		.loc 1 256 0
 909 025e 00BF     		nop
 910              	.L44:
 256:.\main.c      **** 					while(USB_CDCIsReady() == 0u);
 911              		.loc 1 256 0 is_stmt 0 discriminator 1
 912 0260 FFF7FEFF 		bl	USB_CDCIsReady
 913 0264 0346     		mov	r3, r0
 914 0266 002B     		cmp	r3, #0
ARM GAS  C:\Users\makij\AppData\Local\Temp\cc86oqbM.s 			page 25


 915 0268 FAD0     		beq	.L44
 257:.\main.c      **** 					USB_PutData("hex ", 4);
 916              		.loc 1 257 0 is_stmt 1
 917 026a 40F20000 		movw	r0, #:lower16:.LC2
 918 026e C0F20000 		movt	r0, #:upper16:.LC2
 919 0272 4FF00401 		mov	r1, #4
 920 0276 FFF7FEFF 		bl	USB_PutData
 258:.\main.c      **** 					while(USB_CDCIsReady() == 0u);
 921              		.loc 1 258 0
 922 027a 00BF     		nop
 923              	.L45:
 258:.\main.c      **** 					while(USB_CDCIsReady() == 0u);
 924              		.loc 1 258 0 is_stmt 0 discriminator 1
 925 027c FFF7FEFF 		bl	USB_CDCIsReady
 926 0280 0346     		mov	r3, r0
 927 0282 002B     		cmp	r3, #0
 928 0284 FAD0     		beq	.L45
 259:.\main.c      **** 					USB_PutChar(hex[i2]);
 929              		.loc 1 259 0 is_stmt 1
 930 0286 40F20003 		movw	r3, #:lower16:hex
 931 028a C0F20003 		movt	r3, #:upper16:hex
 932 028e 3A69     		ldr	r2, [r7, #16]
 933 0290 9B18     		adds	r3, r3, r2
 934 0292 1B78     		ldrb	r3, [r3, #0]	@ zero_extendqisi2
 935 0294 1846     		mov	r0, r3
 936 0296 FFF7FEFF 		bl	USB_PutChar
 260:.\main.c      **** 					USB_PutChar('\r');
 937              		.loc 1 260 0
 938 029a 4FF00D00 		mov	r0, #13
 939 029e FFF7FEFF 		bl	USB_PutChar
 261:.\main.c      **** 					while(USB_CDCIsReady() == 0u);
 940              		.loc 1 261 0
 941 02a2 00BF     		nop
 942              	.L46:
 261:.\main.c      **** 					while(USB_CDCIsReady() == 0u);
 943              		.loc 1 261 0 is_stmt 0 discriminator 1
 944 02a4 FFF7FEFF 		bl	USB_CDCIsReady
 945 02a8 0346     		mov	r3, r0
 946 02aa 002B     		cmp	r3, #0
 947 02ac FAD0     		beq	.L46
 262:.\main.c      **** 					USB_PutChar('\n');
 948              		.loc 1 262 0 is_stmt 1
 949 02ae 4FF00A00 		mov	r0, #10
 950 02b2 FFF7FEFF 		bl	USB_PutChar
 265:.\main.c      **** 					if(hex[i2] == '0'){
 951              		.loc 1 265 0
 952 02b6 40F20003 		movw	r3, #:lower16:hex
 953 02ba C0F20003 		movt	r3, #:upper16:hex
 954 02be 3A69     		ldr	r2, [r7, #16]
 955 02c0 9B18     		adds	r3, r3, r2
 956 02c2 1B78     		ldrb	r3, [r3, #0]	@ zero_extendqisi2
 957 02c4 302B     		cmp	r3, #48
 958 02c6 1CD1     		bne	.L47
 266:.\main.c      **** 						packetBin[0] = '0';
 959              		.loc 1 266 0
 960 02c8 40F20003 		movw	r3, #:lower16:packetBin
 961 02cc C0F20003 		movt	r3, #:upper16:packetBin
ARM GAS  C:\Users\makij\AppData\Local\Temp\cc86oqbM.s 			page 26


 962 02d0 4FF03002 		mov	r2, #48
 963 02d4 1A70     		strb	r2, [r3, #0]
 267:.\main.c      **** 						packetBin[1] = '0';
 964              		.loc 1 267 0
 965 02d6 40F20003 		movw	r3, #:lower16:packetBin
 966 02da C0F20003 		movt	r3, #:upper16:packetBin
 967 02de 4FF03002 		mov	r2, #48
 968 02e2 5A70     		strb	r2, [r3, #1]
 268:.\main.c      **** 						packetBin[2] = '0';
 969              		.loc 1 268 0
 970 02e4 40F20003 		movw	r3, #:lower16:packetBin
 971 02e8 C0F20003 		movt	r3, #:upper16:packetBin
 972 02ec 4FF03002 		mov	r2, #48
 973 02f0 9A70     		strb	r2, [r3, #2]
 269:.\main.c      **** 						packetBin[3] = '0';
 974              		.loc 1 269 0
 975 02f2 40F20003 		movw	r3, #:lower16:packetBin
 976 02f6 C0F20003 		movt	r3, #:upper16:packetBin
 977 02fa 4FF03002 		mov	r2, #48
 978 02fe DA70     		strb	r2, [r3, #3]
 979 0300 2FE2     		b	.L48
 980              	.L47:
 270:.\main.c      **** 					}else if(hex[i2] == '1'){
 981              		.loc 1 270 0
 982 0302 40F20003 		movw	r3, #:lower16:hex
 983 0306 C0F20003 		movt	r3, #:upper16:hex
 984 030a 3A69     		ldr	r2, [r7, #16]
 985 030c 9B18     		adds	r3, r3, r2
 986 030e 1B78     		ldrb	r3, [r3, #0]	@ zero_extendqisi2
 987 0310 312B     		cmp	r3, #49
 988 0312 1CD1     		bne	.L49
 271:.\main.c      **** 						packetBin[0] = '0';
 989              		.loc 1 271 0
 990 0314 40F20003 		movw	r3, #:lower16:packetBin
 991 0318 C0F20003 		movt	r3, #:upper16:packetBin
 992 031c 4FF03002 		mov	r2, #48
 993 0320 1A70     		strb	r2, [r3, #0]
 272:.\main.c      **** 						packetBin[1] = '0';
 994              		.loc 1 272 0
 995 0322 40F20003 		movw	r3, #:lower16:packetBin
 996 0326 C0F20003 		movt	r3, #:upper16:packetBin
 997 032a 4FF03002 		mov	r2, #48
 998 032e 5A70     		strb	r2, [r3, #1]
 273:.\main.c      **** 						packetBin[2] = '0';
 999              		.loc 1 273 0
 1000 0330 40F20003 		movw	r3, #:lower16:packetBin
 1001 0334 C0F20003 		movt	r3, #:upper16:packetBin
 1002 0338 4FF03002 		mov	r2, #48
 1003 033c 9A70     		strb	r2, [r3, #2]
 274:.\main.c      **** 						packetBin[3] = '1';
 1004              		.loc 1 274 0
 1005 033e 40F20003 		movw	r3, #:lower16:packetBin
 1006 0342 C0F20003 		movt	r3, #:upper16:packetBin
 1007 0346 4FF03102 		mov	r2, #49
 1008 034a DA70     		strb	r2, [r3, #3]
 1009 034c 09E2     		b	.L48
 1010              	.L49:
ARM GAS  C:\Users\makij\AppData\Local\Temp\cc86oqbM.s 			page 27


 275:.\main.c      **** 					}else if(hex[i2] == '2'){
 1011              		.loc 1 275 0
 1012 034e 40F20003 		movw	r3, #:lower16:hex
 1013 0352 C0F20003 		movt	r3, #:upper16:hex
 1014 0356 3A69     		ldr	r2, [r7, #16]
 1015 0358 9B18     		adds	r3, r3, r2
 1016 035a 1B78     		ldrb	r3, [r3, #0]	@ zero_extendqisi2
 1017 035c 322B     		cmp	r3, #50
 1018 035e 1CD1     		bne	.L50
 276:.\main.c      **** 						packetBin[0] = '0';
 1019              		.loc 1 276 0
 1020 0360 40F20003 		movw	r3, #:lower16:packetBin
 1021 0364 C0F20003 		movt	r3, #:upper16:packetBin
 1022 0368 4FF03002 		mov	r2, #48
 1023 036c 1A70     		strb	r2, [r3, #0]
 277:.\main.c      **** 						packetBin[1] = '0';
 1024              		.loc 1 277 0
 1025 036e 40F20003 		movw	r3, #:lower16:packetBin
 1026 0372 C0F20003 		movt	r3, #:upper16:packetBin
 1027 0376 4FF03002 		mov	r2, #48
 1028 037a 5A70     		strb	r2, [r3, #1]
 278:.\main.c      **** 						packetBin[2] = '1';
 1029              		.loc 1 278 0
 1030 037c 40F20003 		movw	r3, #:lower16:packetBin
 1031 0380 C0F20003 		movt	r3, #:upper16:packetBin
 1032 0384 4FF03102 		mov	r2, #49
 1033 0388 9A70     		strb	r2, [r3, #2]
 279:.\main.c      **** 						packetBin[3] = '0';
 1034              		.loc 1 279 0
 1035 038a 40F20003 		movw	r3, #:lower16:packetBin
 1036 038e C0F20003 		movt	r3, #:upper16:packetBin
 1037 0392 4FF03002 		mov	r2, #48
 1038 0396 DA70     		strb	r2, [r3, #3]
 1039 0398 E3E1     		b	.L48
 1040              	.L50:
 280:.\main.c      **** 					}else if(hex[i2] == '3'){
 1041              		.loc 1 280 0
 1042 039a 40F20003 		movw	r3, #:lower16:hex
 1043 039e C0F20003 		movt	r3, #:upper16:hex
 1044 03a2 3A69     		ldr	r2, [r7, #16]
 1045 03a4 9B18     		adds	r3, r3, r2
 1046 03a6 1B78     		ldrb	r3, [r3, #0]	@ zero_extendqisi2
 1047 03a8 332B     		cmp	r3, #51
 1048 03aa 1CD1     		bne	.L51
 281:.\main.c      **** 						packetBin[0] = '0';
 1049              		.loc 1 281 0
 1050 03ac 40F20003 		movw	r3, #:lower16:packetBin
 1051 03b0 C0F20003 		movt	r3, #:upper16:packetBin
 1052 03b4 4FF03002 		mov	r2, #48
 1053 03b8 1A70     		strb	r2, [r3, #0]
 282:.\main.c      **** 						packetBin[1] = '0';
 1054              		.loc 1 282 0
 1055 03ba 40F20003 		movw	r3, #:lower16:packetBin
 1056 03be C0F20003 		movt	r3, #:upper16:packetBin
 1057 03c2 4FF03002 		mov	r2, #48
 1058 03c6 5A70     		strb	r2, [r3, #1]
 283:.\main.c      **** 						packetBin[2] = '1';
ARM GAS  C:\Users\makij\AppData\Local\Temp\cc86oqbM.s 			page 28


 1059              		.loc 1 283 0
 1060 03c8 40F20003 		movw	r3, #:lower16:packetBin
 1061 03cc C0F20003 		movt	r3, #:upper16:packetBin
 1062 03d0 4FF03102 		mov	r2, #49
 1063 03d4 9A70     		strb	r2, [r3, #2]
 284:.\main.c      **** 						packetBin[3] = '1';
 1064              		.loc 1 284 0
 1065 03d6 40F20003 		movw	r3, #:lower16:packetBin
 1066 03da C0F20003 		movt	r3, #:upper16:packetBin
 1067 03de 4FF03102 		mov	r2, #49
 1068 03e2 DA70     		strb	r2, [r3, #3]
 1069 03e4 BDE1     		b	.L48
 1070              	.L51:
 285:.\main.c      **** 					}else if(hex[i2] == '4'){
 1071              		.loc 1 285 0
 1072 03e6 40F20003 		movw	r3, #:lower16:hex
 1073 03ea C0F20003 		movt	r3, #:upper16:hex
 1074 03ee 3A69     		ldr	r2, [r7, #16]
 1075 03f0 9B18     		adds	r3, r3, r2
 1076 03f2 1B78     		ldrb	r3, [r3, #0]	@ zero_extendqisi2
 1077 03f4 342B     		cmp	r3, #52
 1078 03f6 1CD1     		bne	.L52
 286:.\main.c      **** 						packetBin[0] = '0';
 1079              		.loc 1 286 0
 1080 03f8 40F20003 		movw	r3, #:lower16:packetBin
 1081 03fc C0F20003 		movt	r3, #:upper16:packetBin
 1082 0400 4FF03002 		mov	r2, #48
 1083 0404 1A70     		strb	r2, [r3, #0]
 287:.\main.c      **** 						packetBin[1] = '1';
 1084              		.loc 1 287 0
 1085 0406 40F20003 		movw	r3, #:lower16:packetBin
 1086 040a C0F20003 		movt	r3, #:upper16:packetBin
 1087 040e 4FF03102 		mov	r2, #49
 1088 0412 5A70     		strb	r2, [r3, #1]
 288:.\main.c      **** 						packetBin[2] = '0';
 1089              		.loc 1 288 0
 1090 0414 40F20003 		movw	r3, #:lower16:packetBin
 1091 0418 C0F20003 		movt	r3, #:upper16:packetBin
 1092 041c 4FF03002 		mov	r2, #48
 1093 0420 9A70     		strb	r2, [r3, #2]
 289:.\main.c      **** 						packetBin[3] = '0';
 1094              		.loc 1 289 0
 1095 0422 40F20003 		movw	r3, #:lower16:packetBin
 1096 0426 C0F20003 		movt	r3, #:upper16:packetBin
 1097 042a 4FF03002 		mov	r2, #48
 1098 042e DA70     		strb	r2, [r3, #3]
 1099 0430 97E1     		b	.L48
 1100              	.L52:
 290:.\main.c      **** 					}else if(hex[i2] == '5'){
 1101              		.loc 1 290 0
 1102 0432 40F20003 		movw	r3, #:lower16:hex
 1103 0436 C0F20003 		movt	r3, #:upper16:hex
 1104 043a 3A69     		ldr	r2, [r7, #16]
 1105 043c 9B18     		adds	r3, r3, r2
 1106 043e 1B78     		ldrb	r3, [r3, #0]	@ zero_extendqisi2
 1107 0440 352B     		cmp	r3, #53
 1108 0442 1CD1     		bne	.L53
ARM GAS  C:\Users\makij\AppData\Local\Temp\cc86oqbM.s 			page 29


 291:.\main.c      **** 						packetBin[0] = '0';
 1109              		.loc 1 291 0
 1110 0444 40F20003 		movw	r3, #:lower16:packetBin
 1111 0448 C0F20003 		movt	r3, #:upper16:packetBin
 1112 044c 4FF03002 		mov	r2, #48
 1113 0450 1A70     		strb	r2, [r3, #0]
 292:.\main.c      **** 						packetBin[1] = '1';
 1114              		.loc 1 292 0
 1115 0452 40F20003 		movw	r3, #:lower16:packetBin
 1116 0456 C0F20003 		movt	r3, #:upper16:packetBin
 1117 045a 4FF03102 		mov	r2, #49
 1118 045e 5A70     		strb	r2, [r3, #1]
 293:.\main.c      **** 						packetBin[2] = '0';
 1119              		.loc 1 293 0
 1120 0460 40F20003 		movw	r3, #:lower16:packetBin
 1121 0464 C0F20003 		movt	r3, #:upper16:packetBin
 1122 0468 4FF03002 		mov	r2, #48
 1123 046c 9A70     		strb	r2, [r3, #2]
 294:.\main.c      **** 						packetBin[3] = '1';
 1124              		.loc 1 294 0
 1125 046e 40F20003 		movw	r3, #:lower16:packetBin
 1126 0472 C0F20003 		movt	r3, #:upper16:packetBin
 1127 0476 4FF03102 		mov	r2, #49
 1128 047a DA70     		strb	r2, [r3, #3]
 1129 047c 71E1     		b	.L48
 1130              	.L53:
 295:.\main.c      **** 					}else if(hex[i2] == '6'){
 1131              		.loc 1 295 0
 1132 047e 40F20003 		movw	r3, #:lower16:hex
 1133 0482 C0F20003 		movt	r3, #:upper16:hex
 1134 0486 3A69     		ldr	r2, [r7, #16]
 1135 0488 9B18     		adds	r3, r3, r2
 1136 048a 1B78     		ldrb	r3, [r3, #0]	@ zero_extendqisi2
 1137 048c 362B     		cmp	r3, #54
 1138 048e 1CD1     		bne	.L54
 296:.\main.c      **** 						packetBin[0] = '0';
 1139              		.loc 1 296 0
 1140 0490 40F20003 		movw	r3, #:lower16:packetBin
 1141 0494 C0F20003 		movt	r3, #:upper16:packetBin
 1142 0498 4FF03002 		mov	r2, #48
 1143 049c 1A70     		strb	r2, [r3, #0]
 297:.\main.c      **** 						packetBin[1] = '1';
 1144              		.loc 1 297 0
 1145 049e 40F20003 		movw	r3, #:lower16:packetBin
 1146 04a2 C0F20003 		movt	r3, #:upper16:packetBin
 1147 04a6 4FF03102 		mov	r2, #49
 1148 04aa 5A70     		strb	r2, [r3, #1]
 298:.\main.c      **** 						packetBin[2] = '1';
 1149              		.loc 1 298 0
 1150 04ac 40F20003 		movw	r3, #:lower16:packetBin
 1151 04b0 C0F20003 		movt	r3, #:upper16:packetBin
 1152 04b4 4FF03102 		mov	r2, #49
 1153 04b8 9A70     		strb	r2, [r3, #2]
 299:.\main.c      **** 						packetBin[3] = '0';
 1154              		.loc 1 299 0
 1155 04ba 40F20003 		movw	r3, #:lower16:packetBin
 1156 04be C0F20003 		movt	r3, #:upper16:packetBin
ARM GAS  C:\Users\makij\AppData\Local\Temp\cc86oqbM.s 			page 30


 1157 04c2 4FF03002 		mov	r2, #48
 1158 04c6 DA70     		strb	r2, [r3, #3]
 1159 04c8 4BE1     		b	.L48
 1160              	.L54:
 300:.\main.c      **** 					}else if(hex[i2] == '7'){
 1161              		.loc 1 300 0
 1162 04ca 40F20003 		movw	r3, #:lower16:hex
 1163 04ce C0F20003 		movt	r3, #:upper16:hex
 1164 04d2 3A69     		ldr	r2, [r7, #16]
 1165 04d4 9B18     		adds	r3, r3, r2
 1166 04d6 1B78     		ldrb	r3, [r3, #0]	@ zero_extendqisi2
 1167 04d8 372B     		cmp	r3, #55
 1168 04da 1CD1     		bne	.L55
 301:.\main.c      **** 						packetBin[0] = '0';
 1169              		.loc 1 301 0
 1170 04dc 40F20003 		movw	r3, #:lower16:packetBin
 1171 04e0 C0F20003 		movt	r3, #:upper16:packetBin
 1172 04e4 4FF03002 		mov	r2, #48
 1173 04e8 1A70     		strb	r2, [r3, #0]
 302:.\main.c      **** 						packetBin[1] = '1';
 1174              		.loc 1 302 0
 1175 04ea 40F20003 		movw	r3, #:lower16:packetBin
 1176 04ee C0F20003 		movt	r3, #:upper16:packetBin
 1177 04f2 4FF03102 		mov	r2, #49
 1178 04f6 5A70     		strb	r2, [r3, #1]
 303:.\main.c      **** 						packetBin[2] = '1';
 1179              		.loc 1 303 0
 1180 04f8 40F20003 		movw	r3, #:lower16:packetBin
 1181 04fc C0F20003 		movt	r3, #:upper16:packetBin
 1182 0500 4FF03102 		mov	r2, #49
 1183 0504 9A70     		strb	r2, [r3, #2]
 304:.\main.c      **** 						packetBin[3] = '1';
 1184              		.loc 1 304 0
 1185 0506 40F20003 		movw	r3, #:lower16:packetBin
 1186 050a C0F20003 		movt	r3, #:upper16:packetBin
 1187 050e 4FF03102 		mov	r2, #49
 1188 0512 DA70     		strb	r2, [r3, #3]
 1189 0514 25E1     		b	.L48
 1190              	.L55:
 305:.\main.c      **** 					}else if(hex[i2] == '8'){
 1191              		.loc 1 305 0
 1192 0516 40F20003 		movw	r3, #:lower16:hex
 1193 051a C0F20003 		movt	r3, #:upper16:hex
 1194 051e 3A69     		ldr	r2, [r7, #16]
 1195 0520 9B18     		adds	r3, r3, r2
 1196 0522 1B78     		ldrb	r3, [r3, #0]	@ zero_extendqisi2
 1197 0524 382B     		cmp	r3, #56
 1198 0526 1CD1     		bne	.L56
 306:.\main.c      **** 						packetBin[0] = '1';
 1199              		.loc 1 306 0
 1200 0528 40F20003 		movw	r3, #:lower16:packetBin
 1201 052c C0F20003 		movt	r3, #:upper16:packetBin
 1202 0530 4FF03102 		mov	r2, #49
 1203 0534 1A70     		strb	r2, [r3, #0]
 307:.\main.c      **** 						packetBin[1] = '0';
 1204              		.loc 1 307 0
 1205 0536 40F20003 		movw	r3, #:lower16:packetBin
ARM GAS  C:\Users\makij\AppData\Local\Temp\cc86oqbM.s 			page 31


 1206 053a C0F20003 		movt	r3, #:upper16:packetBin
 1207 053e 4FF03002 		mov	r2, #48
 1208 0542 5A70     		strb	r2, [r3, #1]
 308:.\main.c      **** 						packetBin[2] = '0';
 1209              		.loc 1 308 0
 1210 0544 40F20003 		movw	r3, #:lower16:packetBin
 1211 0548 C0F20003 		movt	r3, #:upper16:packetBin
 1212 054c 4FF03002 		mov	r2, #48
 1213 0550 9A70     		strb	r2, [r3, #2]
 309:.\main.c      **** 						packetBin[3] = '0';
 1214              		.loc 1 309 0
 1215 0552 40F20003 		movw	r3, #:lower16:packetBin
 1216 0556 C0F20003 		movt	r3, #:upper16:packetBin
 1217 055a 4FF03002 		mov	r2, #48
 1218 055e DA70     		strb	r2, [r3, #3]
 1219 0560 FFE0     		b	.L48
 1220              	.L56:
 310:.\main.c      **** 					}else if(hex[i2] == '9'){
 1221              		.loc 1 310 0
 1222 0562 40F20003 		movw	r3, #:lower16:hex
 1223 0566 C0F20003 		movt	r3, #:upper16:hex
 1224 056a 3A69     		ldr	r2, [r7, #16]
 1225 056c 9B18     		adds	r3, r3, r2
 1226 056e 1B78     		ldrb	r3, [r3, #0]	@ zero_extendqisi2
 1227 0570 392B     		cmp	r3, #57
 1228 0572 1CD1     		bne	.L57
 311:.\main.c      **** 						packetBin[0] = '1';
 1229              		.loc 1 311 0
 1230 0574 40F20003 		movw	r3, #:lower16:packetBin
 1231 0578 C0F20003 		movt	r3, #:upper16:packetBin
 1232 057c 4FF03102 		mov	r2, #49
 1233 0580 1A70     		strb	r2, [r3, #0]
 312:.\main.c      **** 						packetBin[1] = '0';
 1234              		.loc 1 312 0
 1235 0582 40F20003 		movw	r3, #:lower16:packetBin
 1236 0586 C0F20003 		movt	r3, #:upper16:packetBin
 1237 058a 4FF03002 		mov	r2, #48
 1238 058e 5A70     		strb	r2, [r3, #1]
 313:.\main.c      **** 						packetBin[2] = '0';
 1239              		.loc 1 313 0
 1240 0590 40F20003 		movw	r3, #:lower16:packetBin
 1241 0594 C0F20003 		movt	r3, #:upper16:packetBin
 1242 0598 4FF03002 		mov	r2, #48
 1243 059c 9A70     		strb	r2, [r3, #2]
 314:.\main.c      **** 						packetBin[3] = '1';
 1244              		.loc 1 314 0
 1245 059e 40F20003 		movw	r3, #:lower16:packetBin
 1246 05a2 C0F20003 		movt	r3, #:upper16:packetBin
 1247 05a6 4FF03102 		mov	r2, #49
 1248 05aa DA70     		strb	r2, [r3, #3]
 1249 05ac D9E0     		b	.L48
 1250              	.L57:
 315:.\main.c      **** 					}else if(hex[i2] == 'A'){
 1251              		.loc 1 315 0
 1252 05ae 40F20003 		movw	r3, #:lower16:hex
 1253 05b2 C0F20003 		movt	r3, #:upper16:hex
 1254 05b6 3A69     		ldr	r2, [r7, #16]
ARM GAS  C:\Users\makij\AppData\Local\Temp\cc86oqbM.s 			page 32


 1255 05b8 9B18     		adds	r3, r3, r2
 1256 05ba 1B78     		ldrb	r3, [r3, #0]	@ zero_extendqisi2
 1257 05bc 412B     		cmp	r3, #65
 1258 05be 1CD1     		bne	.L58
 316:.\main.c      **** 						packetBin[0] = '1';
 1259              		.loc 1 316 0
 1260 05c0 40F20003 		movw	r3, #:lower16:packetBin
 1261 05c4 C0F20003 		movt	r3, #:upper16:packetBin
 1262 05c8 4FF03102 		mov	r2, #49
 1263 05cc 1A70     		strb	r2, [r3, #0]
 317:.\main.c      **** 						packetBin[1] = '0';
 1264              		.loc 1 317 0
 1265 05ce 40F20003 		movw	r3, #:lower16:packetBin
 1266 05d2 C0F20003 		movt	r3, #:upper16:packetBin
 1267 05d6 4FF03002 		mov	r2, #48
 1268 05da 5A70     		strb	r2, [r3, #1]
 318:.\main.c      **** 						packetBin[2] = '1';
 1269              		.loc 1 318 0
 1270 05dc 40F20003 		movw	r3, #:lower16:packetBin
 1271 05e0 C0F20003 		movt	r3, #:upper16:packetBin
 1272 05e4 4FF03102 		mov	r2, #49
 1273 05e8 9A70     		strb	r2, [r3, #2]
 319:.\main.c      **** 						packetBin[3] = '0';
 1274              		.loc 1 319 0
 1275 05ea 40F20003 		movw	r3, #:lower16:packetBin
 1276 05ee C0F20003 		movt	r3, #:upper16:packetBin
 1277 05f2 4FF03002 		mov	r2, #48
 1278 05f6 DA70     		strb	r2, [r3, #3]
 1279 05f8 B3E0     		b	.L48
 1280              	.L58:
 320:.\main.c      **** 					}else if(hex[i2] == 'B'){
 1281              		.loc 1 320 0
 1282 05fa 40F20003 		movw	r3, #:lower16:hex
 1283 05fe C0F20003 		movt	r3, #:upper16:hex
 1284 0602 3A69     		ldr	r2, [r7, #16]
 1285 0604 9B18     		adds	r3, r3, r2
 1286 0606 1B78     		ldrb	r3, [r3, #0]	@ zero_extendqisi2
 1287 0608 422B     		cmp	r3, #66
 1288 060a 1CD1     		bne	.L59
 321:.\main.c      **** 						packetBin[0] = '1';
 1289              		.loc 1 321 0
 1290 060c 40F20003 		movw	r3, #:lower16:packetBin
 1291 0610 C0F20003 		movt	r3, #:upper16:packetBin
 1292 0614 4FF03102 		mov	r2, #49
 1293 0618 1A70     		strb	r2, [r3, #0]
 322:.\main.c      **** 						packetBin[1] = '0';
 1294              		.loc 1 322 0
 1295 061a 40F20003 		movw	r3, #:lower16:packetBin
 1296 061e C0F20003 		movt	r3, #:upper16:packetBin
 1297 0622 4FF03002 		mov	r2, #48
 1298 0626 5A70     		strb	r2, [r3, #1]
 323:.\main.c      **** 						packetBin[2] = '1';
 1299              		.loc 1 323 0
 1300 0628 40F20003 		movw	r3, #:lower16:packetBin
 1301 062c C0F20003 		movt	r3, #:upper16:packetBin
 1302 0630 4FF03102 		mov	r2, #49
 1303 0634 9A70     		strb	r2, [r3, #2]
ARM GAS  C:\Users\makij\AppData\Local\Temp\cc86oqbM.s 			page 33


 324:.\main.c      **** 						packetBin[3] = '1';
 1304              		.loc 1 324 0
 1305 0636 40F20003 		movw	r3, #:lower16:packetBin
 1306 063a C0F20003 		movt	r3, #:upper16:packetBin
 1307 063e 4FF03102 		mov	r2, #49
 1308 0642 DA70     		strb	r2, [r3, #3]
 1309 0644 8DE0     		b	.L48
 1310              	.L59:
 325:.\main.c      **** 					}else if(hex[i2] == 'C'){
 1311              		.loc 1 325 0
 1312 0646 40F20003 		movw	r3, #:lower16:hex
 1313 064a C0F20003 		movt	r3, #:upper16:hex
 1314 064e 3A69     		ldr	r2, [r7, #16]
 1315 0650 9B18     		adds	r3, r3, r2
 1316 0652 1B78     		ldrb	r3, [r3, #0]	@ zero_extendqisi2
 1317 0654 432B     		cmp	r3, #67
 1318 0656 1CD1     		bne	.L60
 326:.\main.c      **** 						packetBin[0] = '1';
 1319              		.loc 1 326 0
 1320 0658 40F20003 		movw	r3, #:lower16:packetBin
 1321 065c C0F20003 		movt	r3, #:upper16:packetBin
 1322 0660 4FF03102 		mov	r2, #49
 1323 0664 1A70     		strb	r2, [r3, #0]
 327:.\main.c      **** 						packetBin[1] = '1';
 1324              		.loc 1 327 0
 1325 0666 40F20003 		movw	r3, #:lower16:packetBin
 1326 066a C0F20003 		movt	r3, #:upper16:packetBin
 1327 066e 4FF03102 		mov	r2, #49
 1328 0672 5A70     		strb	r2, [r3, #1]
 328:.\main.c      **** 						packetBin[2] = '0';
 1329              		.loc 1 328 0
 1330 0674 40F20003 		movw	r3, #:lower16:packetBin
 1331 0678 C0F20003 		movt	r3, #:upper16:packetBin
 1332 067c 4FF03002 		mov	r2, #48
 1333 0680 9A70     		strb	r2, [r3, #2]
 329:.\main.c      **** 						packetBin[3] = '0';
 1334              		.loc 1 329 0
 1335 0682 40F20003 		movw	r3, #:lower16:packetBin
 1336 0686 C0F20003 		movt	r3, #:upper16:packetBin
 1337 068a 4FF03002 		mov	r2, #48
 1338 068e DA70     		strb	r2, [r3, #3]
 1339 0690 67E0     		b	.L48
 1340              	.L60:
 330:.\main.c      **** 					}else if(hex[i2] =='D'){
 1341              		.loc 1 330 0
 1342 0692 40F20003 		movw	r3, #:lower16:hex
 1343 0696 C0F20003 		movt	r3, #:upper16:hex
 1344 069a 3A69     		ldr	r2, [r7, #16]
 1345 069c 9B18     		adds	r3, r3, r2
 1346 069e 1B78     		ldrb	r3, [r3, #0]	@ zero_extendqisi2
 1347 06a0 442B     		cmp	r3, #68
 1348 06a2 1CD1     		bne	.L61
 331:.\main.c      **** 						packetBin[0] = '1';
 1349              		.loc 1 331 0
 1350 06a4 40F20003 		movw	r3, #:lower16:packetBin
 1351 06a8 C0F20003 		movt	r3, #:upper16:packetBin
 1352 06ac 4FF03102 		mov	r2, #49
ARM GAS  C:\Users\makij\AppData\Local\Temp\cc86oqbM.s 			page 34


 1353 06b0 1A70     		strb	r2, [r3, #0]
 332:.\main.c      **** 						packetBin[1] = '1';
 1354              		.loc 1 332 0
 1355 06b2 40F20003 		movw	r3, #:lower16:packetBin
 1356 06b6 C0F20003 		movt	r3, #:upper16:packetBin
 1357 06ba 4FF03102 		mov	r2, #49
 1358 06be 5A70     		strb	r2, [r3, #1]
 333:.\main.c      **** 						packetBin[2] = '0';
 1359              		.loc 1 333 0
 1360 06c0 40F20003 		movw	r3, #:lower16:packetBin
 1361 06c4 C0F20003 		movt	r3, #:upper16:packetBin
 1362 06c8 4FF03002 		mov	r2, #48
 1363 06cc 9A70     		strb	r2, [r3, #2]
 334:.\main.c      **** 						packetBin[3] = '1';
 1364              		.loc 1 334 0
 1365 06ce 40F20003 		movw	r3, #:lower16:packetBin
 1366 06d2 C0F20003 		movt	r3, #:upper16:packetBin
 1367 06d6 4FF03102 		mov	r2, #49
 1368 06da DA70     		strb	r2, [r3, #3]
 1369 06dc 41E0     		b	.L48
 1370              	.L61:
 335:.\main.c      **** 					}else if(hex[i2] == 'E'){
 1371              		.loc 1 335 0
 1372 06de 40F20003 		movw	r3, #:lower16:hex
 1373 06e2 C0F20003 		movt	r3, #:upper16:hex
 1374 06e6 3A69     		ldr	r2, [r7, #16]
 1375 06e8 9B18     		adds	r3, r3, r2
 1376 06ea 1B78     		ldrb	r3, [r3, #0]	@ zero_extendqisi2
 1377 06ec 452B     		cmp	r3, #69
 1378 06ee 1CD1     		bne	.L62
 336:.\main.c      **** 						packetBin[0] = '1';
 1379              		.loc 1 336 0
 1380 06f0 40F20003 		movw	r3, #:lower16:packetBin
 1381 06f4 C0F20003 		movt	r3, #:upper16:packetBin
 1382 06f8 4FF03102 		mov	r2, #49
 1383 06fc 1A70     		strb	r2, [r3, #0]
 337:.\main.c      **** 						packetBin[1] = '1';
 1384              		.loc 1 337 0
 1385 06fe 40F20003 		movw	r3, #:lower16:packetBin
 1386 0702 C0F20003 		movt	r3, #:upper16:packetBin
 1387 0706 4FF03102 		mov	r2, #49
 1388 070a 5A70     		strb	r2, [r3, #1]
 338:.\main.c      **** 						packetBin[2] = '1';
 1389              		.loc 1 338 0
 1390 070c 40F20003 		movw	r3, #:lower16:packetBin
 1391 0710 C0F20003 		movt	r3, #:upper16:packetBin
 1392 0714 4FF03102 		mov	r2, #49
 1393 0718 9A70     		strb	r2, [r3, #2]
 339:.\main.c      **** 						packetBin[3] = '0';
 1394              		.loc 1 339 0
 1395 071a 40F20003 		movw	r3, #:lower16:packetBin
 1396 071e C0F20003 		movt	r3, #:upper16:packetBin
 1397 0722 4FF03002 		mov	r2, #48
 1398 0726 DA70     		strb	r2, [r3, #3]
 1399 0728 1BE0     		b	.L48
 1400              	.L62:
 341:.\main.c      **** 						packetBin[0] = '1';
ARM GAS  C:\Users\makij\AppData\Local\Temp\cc86oqbM.s 			page 35


 1401              		.loc 1 341 0
 1402 072a 40F20003 		movw	r3, #:lower16:packetBin
 1403 072e C0F20003 		movt	r3, #:upper16:packetBin
 1404 0732 4FF03102 		mov	r2, #49
 1405 0736 1A70     		strb	r2, [r3, #0]
 342:.\main.c      **** 						packetBin[1] = '1';
 1406              		.loc 1 342 0
 1407 0738 40F20003 		movw	r3, #:lower16:packetBin
 1408 073c C0F20003 		movt	r3, #:upper16:packetBin
 1409 0740 4FF03102 		mov	r2, #49
 1410 0744 5A70     		strb	r2, [r3, #1]
 343:.\main.c      **** 						packetBin[2] = '1';
 1411              		.loc 1 343 0
 1412 0746 40F20003 		movw	r3, #:lower16:packetBin
 1413 074a C0F20003 		movt	r3, #:upper16:packetBin
 1414 074e 4FF03102 		mov	r2, #49
 1415 0752 9A70     		strb	r2, [r3, #2]
 344:.\main.c      **** 						packetBin[3] = '1';
 1416              		.loc 1 344 0
 1417 0754 40F20003 		movw	r3, #:lower16:packetBin
 1418 0758 C0F20003 		movt	r3, #:upper16:packetBin
 1419 075c 4FF03102 		mov	r2, #49
 1420 0760 DA70     		strb	r2, [r3, #3]
 1421              	.L48:
 348:.\main.c      **** 				for(l2 = 0; l2 <4; l2++)
 1422              		.loc 1 348 0
 1423 0762 4FF00003 		mov	r3, #0
 1424 0766 FB60     		str	r3, [r7, #12]
 1425 0768 16E0     		b	.L63
 1426              	.L64:
 350:.\main.c      **** 					packetSend[i_send + l2] = packetBin[l2]; 	
 1427              		.loc 1 350 0 discriminator 2
 1428 076a 40F20003 		movw	r3, #:lower16:i_send
 1429 076e C0F20003 		movt	r3, #:upper16:i_send
 1430 0772 1A68     		ldr	r2, [r3, #0]
 1431 0774 FB68     		ldr	r3, [r7, #12]
 1432 0776 D218     		adds	r2, r2, r3
 1433 0778 40F20003 		movw	r3, #:lower16:packetBin
 1434 077c C0F20003 		movt	r3, #:upper16:packetBin
 1435 0780 F968     		ldr	r1, [r7, #12]
 1436 0782 5B18     		adds	r3, r3, r1
 1437 0784 1978     		ldrb	r1, [r3, #0]	@ zero_extendqisi2
 1438 0786 40F20003 		movw	r3, #:lower16:packetSend
 1439 078a C0F20003 		movt	r3, #:upper16:packetSend
 1440 078e 9954     		strb	r1, [r3, r2]
 348:.\main.c      **** 				for(l2 = 0; l2 <4; l2++)
 1441              		.loc 1 348 0 discriminator 2
 1442 0790 FB68     		ldr	r3, [r7, #12]
 1443 0792 03F10103 		add	r3, r3, #1
 1444 0796 FB60     		str	r3, [r7, #12]
 1445              	.L63:
 348:.\main.c      **** 				for(l2 = 0; l2 <4; l2++)
 1446              		.loc 1 348 0 is_stmt 0 discriminator 1
 1447 0798 FB68     		ldr	r3, [r7, #12]
 1448 079a 032B     		cmp	r3, #3
 1449 079c E5DD     		ble	.L64
 353:.\main.c      **** 				i_send +=4;
ARM GAS  C:\Users\makij\AppData\Local\Temp\cc86oqbM.s 			page 36


 1450              		.loc 1 353 0 is_stmt 1
 1451 079e 40F20003 		movw	r3, #:lower16:i_send
 1452 07a2 C0F20003 		movt	r3, #:upper16:i_send
 1453 07a6 1B68     		ldr	r3, [r3, #0]
 1454 07a8 03F10402 		add	r2, r3, #4
 1455 07ac 40F20003 		movw	r3, #:lower16:i_send
 1456 07b0 C0F20003 		movt	r3, #:upper16:i_send
 1457 07b4 1A60     		str	r2, [r3, #0]
 1458              	.LBE4:
 252:.\main.c      **** 				for(i2 = 0; hex[i2] != '\0'; i2++)
 1459              		.loc 1 252 0
 1460 07b6 3B69     		ldr	r3, [r7, #16]
 1461 07b8 03F10103 		add	r3, r3, #1
 1462 07bc 3B61     		str	r3, [r7, #16]
 1463              	.L43:
 252:.\main.c      **** 				for(i2 = 0; hex[i2] != '\0'; i2++)
 1464              		.loc 1 252 0 is_stmt 0 discriminator 1
 1465 07be 40F20003 		movw	r3, #:lower16:hex
 1466 07c2 C0F20003 		movt	r3, #:upper16:hex
 1467 07c6 3A69     		ldr	r2, [r7, #16]
 1468 07c8 9B18     		adds	r3, r3, r2
 1469 07ca 1B78     		ldrb	r3, [r3, #0]	@ zero_extendqisi2
 1470 07cc 002B     		cmp	r3, #0
 1471 07ce 7FF446AD 		bne	.L77
 357:.\main.c      **** 			packetSend[i_send] = '\r';
 1472              		.loc 1 357 0 is_stmt 1
 1473 07d2 40F20003 		movw	r3, #:lower16:i_send
 1474 07d6 C0F20003 		movt	r3, #:upper16:i_send
 1475 07da 1A68     		ldr	r2, [r3, #0]
 1476 07dc 40F20003 		movw	r3, #:lower16:packetSend
 1477 07e0 C0F20003 		movt	r3, #:upper16:packetSend
 1478 07e4 4FF00D01 		mov	r1, #13
 1479 07e8 9954     		strb	r1, [r3, r2]
 359:.\main.c      **** 			messageReady = false;
 1480              		.loc 1 359 0
 1481 07ea 40F20003 		movw	r3, #:lower16:messageReady
 1482 07ee C0F20003 		movt	r3, #:upper16:messageReady
 1483 07f2 4FF00002 		mov	r2, #0
 1484 07f6 1A70     		strb	r2, [r3, #0]
 1485              	.LBE3:
 223:.\main.c      **** 	for(i = 0; usb[i] != '\r'; i++)
 1486              		.loc 1 223 0
 1487 07f8 7B69     		ldr	r3, [r7, #20]
 1488 07fa 03F10103 		add	r3, r3, #1
 1489 07fe 7B61     		str	r3, [r7, #20]
 1490              	.L34:
 223:.\main.c      **** 	for(i = 0; usb[i] != '\r'; i++)
 1491              		.loc 1 223 0 is_stmt 0 discriminator 1
 1492 0800 40F20003 		movw	r3, #:lower16:usb
 1493 0804 C0F20003 		movt	r3, #:upper16:usb
 1494 0808 7A69     		ldr	r2, [r7, #20]
 1495 080a 9B18     		adds	r3, r3, r2
 1496 080c 1B78     		ldrb	r3, [r3, #0]	@ zero_extendqisi2
 1497 080e 0D2B     		cmp	r3, #13
 1498 0810 7FF4A5AC 		bne	.L78
 363:.\main.c      **** 		while(USB_CDCIsReady() == 0u);
 1499              		.loc 1 363 0 is_stmt 1
ARM GAS  C:\Users\makij\AppData\Local\Temp\cc86oqbM.s 			page 37


 1500 0814 00BF     		nop
 1501              	.L67:
 363:.\main.c      **** 		while(USB_CDCIsReady() == 0u);
 1502              		.loc 1 363 0 is_stmt 0 discriminator 1
 1503 0816 FFF7FEFF 		bl	USB_CDCIsReady
 1504 081a 0346     		mov	r3, r0
 1505 081c 002B     		cmp	r3, #0
 1506 081e FAD0     		beq	.L67
 364:.\main.c      **** 		USB_PutData("full ", 5);
 1507              		.loc 1 364 0 is_stmt 1
 1508 0820 40F20000 		movw	r0, #:lower16:.LC3
 1509 0824 C0F20000 		movt	r0, #:upper16:.LC3
 1510 0828 4FF00501 		mov	r1, #5
 1511 082c FFF7FEFF 		bl	USB_PutData
 365:.\main.c      **** 		while(USB_CDCIsReady() == 0u);
 1512              		.loc 1 365 0
 1513 0830 00BF     		nop
 1514              	.L68:
 365:.\main.c      **** 		while(USB_CDCIsReady() == 0u);
 1515              		.loc 1 365 0 is_stmt 0 discriminator 1
 1516 0832 FFF7FEFF 		bl	USB_CDCIsReady
 1517 0836 0346     		mov	r3, r0
 1518 0838 002B     		cmp	r3, #0
 1519 083a FAD0     		beq	.L68
 366:.\main.c      **** 		USB_PutChar('\r');
 1520              		.loc 1 366 0 is_stmt 1
 1521 083c 4FF00D00 		mov	r0, #13
 1522 0840 FFF7FEFF 		bl	USB_PutChar
 367:.\main.c      **** 		while(USB_CDCIsReady() == 0u);
 1523              		.loc 1 367 0
 1524 0844 00BF     		nop
 1525              	.L69:
 367:.\main.c      **** 		while(USB_CDCIsReady() == 0u);
 1526              		.loc 1 367 0 is_stmt 0 discriminator 1
 1527 0846 FFF7FEFF 		bl	USB_CDCIsReady
 1528 084a 0346     		mov	r3, r0
 1529 084c 002B     		cmp	r3, #0
 1530 084e FAD0     		beq	.L69
 368:.\main.c      **** 		USB_PutChar('\n');
 1531              		.loc 1 368 0 is_stmt 1
 1532 0850 4FF00A00 		mov	r0, #10
 1533 0854 FFF7FEFF 		bl	USB_PutChar
 371:.\main.c      **** 		for(i3 = 0; packetSend[i3] != '\r'; i3++)
 1534              		.loc 1 371 0
 1535 0858 4FF00003 		mov	r3, #0
 1536 085c BB60     		str	r3, [r7, #8]
 1537 085e 22E0     		b	.L70
 1538              	.L74:
 373:.\main.c      **** 			if(i3%8 == 0)
 1539              		.loc 1 373 0
 1540 0860 BB68     		ldr	r3, [r7, #8]
 1541 0862 03F00703 		and	r3, r3, #7
 1542 0866 002B     		cmp	r3, #0
 1543 0868 09D1     		bne	.L79
 377:.\main.c      **** 				while(USB_CDCIsReady() == 0u);
 1544              		.loc 1 377 0
 1545 086a 00BF     		nop
ARM GAS  C:\Users\makij\AppData\Local\Temp\cc86oqbM.s 			page 38


 1546              	.L72:
 377:.\main.c      **** 				while(USB_CDCIsReady() == 0u);
 1547              		.loc 1 377 0 is_stmt 0 discriminator 1
 1548 086c FFF7FEFF 		bl	USB_CDCIsReady
 1549 0870 0346     		mov	r3, r0
 1550 0872 002B     		cmp	r3, #0
 1551 0874 FAD0     		beq	.L72
 378:.\main.c      **** 				USB_PutChar(' ');
 1552              		.loc 1 378 0 is_stmt 1
 1553 0876 4FF02000 		mov	r0, #32
 1554 087a FFF7FEFF 		bl	USB_PutChar
 1555              	.L79:
 384:.\main.c      **** 			while(USB_CDCIsReady() == 0u);
 1556              		.loc 1 384 0
 1557 087e 00BF     		nop
 1558              	.L73:
 384:.\main.c      **** 			while(USB_CDCIsReady() == 0u);
 1559              		.loc 1 384 0 is_stmt 0 discriminator 1
 1560 0880 FFF7FEFF 		bl	USB_CDCIsReady
 1561 0884 0346     		mov	r3, r0
 1562 0886 002B     		cmp	r3, #0
 1563 0888 FAD0     		beq	.L73
 385:.\main.c      **** 			USB_PutChar(packetSend[i3]);
 1564              		.loc 1 385 0 is_stmt 1
 1565 088a 40F20003 		movw	r3, #:lower16:packetSend
 1566 088e C0F20003 		movt	r3, #:upper16:packetSend
 1567 0892 BA68     		ldr	r2, [r7, #8]
 1568 0894 9B18     		adds	r3, r3, r2
 1569 0896 1B78     		ldrb	r3, [r3, #0]	@ zero_extendqisi2
 1570 0898 1846     		mov	r0, r3
 1571 089a FFF7FEFF 		bl	USB_PutChar
 371:.\main.c      **** 		for(i3 = 0; packetSend[i3] != '\r'; i3++)
 1572              		.loc 1 371 0
 1573 089e BB68     		ldr	r3, [r7, #8]
 1574 08a0 03F10103 		add	r3, r3, #1
 1575 08a4 BB60     		str	r3, [r7, #8]
 1576              	.L70:
 371:.\main.c      **** 		for(i3 = 0; packetSend[i3] != '\r'; i3++)
 1577              		.loc 1 371 0 is_stmt 0 discriminator 1
 1578 08a6 40F20003 		movw	r3, #:lower16:packetSend
 1579 08aa C0F20003 		movt	r3, #:upper16:packetSend
 1580 08ae BA68     		ldr	r2, [r7, #8]
 1581 08b0 9B18     		adds	r3, r3, r2
 1582 08b2 1B78     		ldrb	r3, [r3, #0]	@ zero_extendqisi2
 1583 08b4 0D2B     		cmp	r3, #13
 1584 08b6 D3D1     		bne	.L74
 1585              	.LBE2:
 1586              		.loc 1 391 0 is_stmt 1
 1587 08b8 FFF7A8BB 		b	.L76
 1588              		.cfi_endproc
 1589              	.LFE60:
 1590              		.size	main, .-main
 1591              		.section	.text.init,"ax",%progbits
 1592              		.align	2
 1593              		.global	init
 1594              		.thumb
 1595              		.thumb_func
ARM GAS  C:\Users\makij\AppData\Local\Temp\cc86oqbM.s 			page 39


 1596              		.type	init, %function
 1597              	init:
 1598              	.LFB61:
 392:.\main.c      **** }
 393:.\main.c      **** 
 394:.\main.c      **** void init()
 395:.\main.c      **** {		
 1599              		.loc 1 395 0
 1600              		.cfi_startproc
 1601              		@ args = 0, pretend = 0, frame = 0
 1602              		@ frame_needed = 1, uses_anonymous_args = 0
 1603 0000 80B5     		push	{r7, lr}
 1604              	.LCFI14:
 1605              		.cfi_def_cfa_offset 8
 1606              		.cfi_offset 7, -8
 1607              		.cfi_offset 14, -4
 1608 0002 00AF     		add	r7, sp, #0
 1609              	.LCFI15:
 1610              		.cfi_def_cfa_register 7
 396:.\main.c      **** 	
 397:.\main.c      **** 	memset(usb, '0', 80);
 1611              		.loc 1 397 0
 1612 0004 40F20000 		movw	r0, #:lower16:usb
 1613 0008 C0F20000 		movt	r0, #:upper16:usb
 1614 000c 4FF03001 		mov	r1, #48
 1615 0010 4FF05002 		mov	r2, #80
 1616 0014 FFF7FEFF 		bl	memset
 398:.\main.c      **** 	memset(hex, '0', (80*2));
 1617              		.loc 1 398 0
 1618 0018 40F20000 		movw	r0, #:lower16:hex
 1619 001c C0F20000 		movt	r0, #:upper16:hex
 1620 0020 4FF03001 		mov	r1, #48
 1621 0024 4FF0A002 		mov	r2, #160
 1622 0028 FFF7FEFF 		bl	memset
 399:.\main.c      **** 	memset(packetBin, '0', 4);
 1623              		.loc 1 399 0
 1624 002c 40F20000 		movw	r0, #:lower16:packetBin
 1625 0030 C0F20000 		movt	r0, #:upper16:packetBin
 1626 0034 4FF03001 		mov	r1, #48
 1627 0038 4FF00402 		mov	r2, #4
 1628 003c FFF7FEFF 		bl	memset
 400:.\main.c      **** 	memset(packetSend, '0', (80*8));
 1629              		.loc 1 400 0
 1630 0040 40F20000 		movw	r0, #:lower16:packetSend
 1631 0044 C0F20000 		movt	r0, #:upper16:packetSend
 1632 0048 4FF03001 		mov	r1, #48
 1633 004c 4FF42072 		mov	r2, #640
 1634 0050 FFF7FEFF 		bl	memset
 401:.\main.c      **** 	
 402:.\main.c      **** 	messageReady = false;
 1635              		.loc 1 402 0
 1636 0054 40F20003 		movw	r3, #:lower16:messageReady
 1637 0058 C0F20003 		movt	r3, #:upper16:messageReady
 1638 005c 4FF00002 		mov	r2, #0
 1639 0060 1A70     		strb	r2, [r3, #0]
 403:.\main.c      **** 	//Transm_Output_Write(1);
 404:.\main.c      **** 	//Enable Global Interrupts
ARM GAS  C:\Users\makij\AppData\Local\Temp\cc86oqbM.s 			page 40


 405:.\main.c      **** 	CYGlobalIntEnable;
 1640              		.loc 1 405 0
 1641              	@ 405 ".\main.c" 1
 1642 0062 62B6     		CPSIE   i
 1643              	@ 0 "" 2
 406:.\main.c      **** 	
 407:.\main.c      **** 	//Init isr
 408:.\main.c      **** //	isr_BusyToCollision_StartEx(isr_BusyToCollision);
 409:.\main.c      **** //	isr_BusyToIdle_StartEx(isr_BusyToIdle);
 410:.\main.c      **** 	
 411:.\main.c      **** //	isr_RisingEdge_StartEx(isr_RisingEdgeDetected);
 412:.\main.c      **** //	isr_FallingEdge_StartEx(isr_FallingEdgeDetected);
 413:.\main.c      **** 	
 414:.\main.c      **** 	Timer_sendData_Start();
 1644              		.loc 1 414 0
 1645              		.thumb
 1646 0064 FFF7FEFF 		bl	Timer_sendData_Start
 415:.\main.c      **** 	Timer_sendData_Sleep();
 1647              		.loc 1 415 0
 1648 0068 FFF7FEFF 		bl	Timer_sendData_Sleep
 416:.\main.c      **** 	
 417:.\main.c      **** 	
 418:.\main.c      **** 	isr_sendData_StartEx(isr_sendingData);
 1649              		.loc 1 418 0
 1650 006c 40F20000 		movw	r0, #:lower16:isr_sendingData
 1651 0070 C0F20000 		movt	r0, #:upper16:isr_sendingData
 1652 0074 FFF7FEFF 		bl	isr_sendData_StartEx
 419:.\main.c      **** 	
 420:.\main.c      **** 	    /* Start USBFS Operation with 3V operation */
 421:.\main.c      ****     USB_Start(0u, USB_3V_OPERATION);
 1653              		.loc 1 421 0
 1654 0078 4FF00000 		mov	r0, #0
 1655 007c 4FF00001 		mov	r1, #0
 1656 0080 FFF7FEFF 		bl	USB_Start
 422:.\main.c      **** 	 /* Wait for Device to enumerate */
 423:.\main.c      ****     while(!USB_GetConfiguration());
 1657              		.loc 1 423 0
 1658 0084 00BF     		nop
 1659              	.L81:
 1660              		.loc 1 423 0 is_stmt 0 discriminator 1
 1661 0086 FFF7FEFF 		bl	USB_GetConfiguration
 1662 008a 0346     		mov	r3, r0
 1663 008c 002B     		cmp	r3, #0
 1664 008e FAD0     		beq	.L81
 424:.\main.c      **** 
 425:.\main.c      ****     /* Enumeration is done, enable OUT endpoint for receive data from Host */
 426:.\main.c      ****     USB_CDC_Init();
 1665              		.loc 1 426 0 is_stmt 1
 1666 0090 FFF7FEFF 		bl	USB_CDC_Init
 427:.\main.c      **** 	
 428:.\main.c      **** 	//Init Components
 429:.\main.c      **** 	//Timer_BusyToCollision_Start();
 430:.\main.c      **** 	//Timer_BusyToIdle_Start();
 431:.\main.c      **** 	
 432:.\main.c      **** }
 1667              		.loc 1 432 0
 1668 0094 80BD     		pop	{r7, pc}
ARM GAS  C:\Users\makij\AppData\Local\Temp\cc86oqbM.s 			page 41


 1669              		.cfi_endproc
 1670              	.LFE61:
 1671              		.size	init, .-init
 1672 0096 00BF     		.text
 1673              	.Letext0:
 1674              		.file 2 "c:\\program files (x86)\\cypress\\psoc creator\\3.0\\psoc creator\\import\\gnu_cs\\arm\\4
 1675              		.file 3 "./Generated_Source/PSoC5/cytypes.h"
 1676              		.file 4 "./Generated_Source/PSoC5/core_cm3.h"